 win32_handmade

 Timestamp is 678d6b3d (Sun Jan 19 22:14:37 2025)

 Preferred load address is 0000000140000000

 Start         Length     Name                   Class
 0001:00000000 0003e240H .text$mn                CODE
 0001:0003e240 00000040H .text$mn$00             CODE
 0001:0003e280 00000a70H .text$mn$21             CODE
 0001:0003ecf0 0000064dH .text$x                 CODE
 0002:00000000 00000380H .idata$5                DATA
 0002:00000380 00000038H .00cfg                  DATA
 0002:000003b8 00000008H .CRT$XCA                DATA
 0002:000003c0 00000008H .CRT$XCAA               DATA
 0002:000003c8 00000008H .CRT$XCZ                DATA
 0002:000003d0 00000008H .CRT$XIA                DATA
 0002:000003d8 00000008H .CRT$XIAA               DATA
 0002:000003e0 00000008H .CRT$XIAC               DATA
 0002:000003e8 00000020H .CRT$XIC                DATA
 0002:00000408 00000008H .CRT$XIZ                DATA
 0002:00000410 00000008H .CRT$XPA                DATA
 0002:00000418 00000010H .CRT$XPX                DATA
 0002:00000428 00000008H .CRT$XPXA               DATA
 0002:00000430 00000008H .CRT$XPZ                DATA
 0002:00000438 00000008H .CRT$XTA                DATA
 0002:00000440 00000010H .CRT$XTZ                DATA
 0002:00000448 00000000H .gehcont$y              DATA
 0002:00000448 00000000H .gfids$y                DATA
 0002:00000450 00010d20H .rdata                  DATA
 0002:00011170 00000190H .rdata$00               DATA
 0002:00011300 00000000H .rdata$CastGuardVftablesA DATA
 0002:00011300 00000000H .rdata$CastGuardVftablesC DATA
 0002:00011300 0000016cH .rdata$r                DATA
 0002:0001146c 000000fcH .rdata$voltmd           DATA
 0002:00011568 00000380H .rdata$zzzdbg           DATA
 0002:000118e8 00000008H .rtc$IAA                DATA
 0002:000118f0 00000008H .rtc$IZZ                DATA
 0002:000118f8 00000008H .rtc$TAA                DATA
 0002:00011900 00000008H .rtc$TZZ                DATA
 0002:00011908 000012e8H .xdata                  DATA
 0002:00012bf0 00000084H .xdata$x                DATA
 0002:00012c74 00000000H .edata                  DATA
 0002:00012c74 00000050H .idata$2                DATA
 0002:00012cc4 00000014H .idata$3                DATA
 0002:00012cd8 00000380H .idata$4                DATA
 0002:00013058 000007b2H .idata$6                DATA
 0003:00000000 00000ad0H .data                   DATA
 0003:00000ad0 00000050H .data$r                 DATA
 0003:00000b20 00000020H .data$rs                DATA
 0003:00000b40 000018c8H .bss                    DATA
 0004:00000000 00003150H .pdata                  DATA

  Address         Publics by Value              Rva+Base               Lib:Object

 0000:00000000       __AbsoluteZero             0000000000000000     <absolute>
 0000:00000000       ___safe_se_handler_count   0000000000000000     <absolute>
 0000:00000000       ___safe_se_handler_table   0000000000000000     <absolute>
 0000:00000000       __arm64x_extra_rfe_table   0000000000000000     <absolute>
 0000:00000000       __arm64x_extra_rfe_table_size 0000000000000000     <absolute>
 0000:00000000       __arm64x_native_entrypoint 0000000000000000     <absolute>
 0000:00000000       __arm64x_redirection_metadata 0000000000000000     <absolute>
 0000:00000000       __arm64x_redirection_metadata_count 0000000000000000     <absolute>
 0000:00000000       __dynamic_value_reloc_table 0000000000000000     <absolute>
 0000:00000000       __enclave_config           0000000000000000     <absolute>
 0000:00000000       __guard_check_icall_a64n_fptr 0000000000000000     <absolute>
 0000:00000000       __guard_eh_cont_count      0000000000000000     <absolute>
 0000:00000000       __guard_eh_cont_table      0000000000000000     <absolute>
 0000:00000000       __guard_fids_count         0000000000000000     <absolute>
 0000:00000000       __guard_fids_table         0000000000000000     <absolute>
 0000:00000000       __guard_iat_count          0000000000000000     <absolute>
 0000:00000000       __guard_iat_table          0000000000000000     <absolute>
 0000:00000000       __guard_longjmp_count      0000000000000000     <absolute>
 0000:00000000       __guard_longjmp_table      0000000000000000     <absolute>
 0000:00000000       __hybrid_auxiliary_delayload_iat 0000000000000000     <absolute>
 0000:00000000       __hybrid_auxiliary_delayload_iat_copy 0000000000000000     <absolute>
 0000:00000000       __hybrid_auxiliary_iat     0000000000000000     <absolute>
 0000:00000000       __hybrid_auxiliary_iat_copy 0000000000000000     <absolute>
 0000:00000000       __hybrid_code_map          0000000000000000     <absolute>
 0000:00000000       __hybrid_code_map_count    0000000000000000     <absolute>
 0000:00000000       __hybrid_image_info_bitfield 0000000000000000     <absolute>
 0000:00000000       __x64_code_ranges_to_entry_points 0000000000000000     <absolute>
 0000:00000000       __x64_code_ranges_to_entry_points_count 0000000000000000     <absolute>
 0000:00000100       __guard_flags              0000000000000100     <absolute>
 0000:00000000       __ImageBase                0000000140000000     <linker-defined>
 0001:00000000       WinMain                    0000000140001000 f   win32_handmade.obj
 0001:000017e0       ?XInputGetStateStub@@YAKKPEAU_XINPUT_STATE@@@Z 00000001400027e0 f   win32_handmade.obj
 0001:00001800       ?XInputSetStateStub@@YAKKPEAU_XINPUT_VIBRATION@@@Z 0000000140002800 f   win32_handmade.obj
 0001:00001a80       ?DEBUGPlatformFreeFileMemory@@YAXPEAUthread_context@@PEAX@Z 0000000140002a80 f   win32_handmade.obj
 0001:00001ac0       ?DEBUGPlatformReadEntireFile@@YA?AUdebug_read_file_result@@PEAUthread_context@@PEAD@Z 0000000140002ac0 f   win32_handmade.obj
 0001:00001c10       ?DEBUGPlatformWriteEntireFile@@YAHPEAUthread_context@@PEADIPEAX@Z 0000000140002c10 f   win32_handmade.obj
 0001:00002100       ?Win32GetWindowDimension@@YA?AUwin32_window_dimension@@PEAUHWND__@@@Z 0000000140003100 f   win32_handmade.obj
 0001:00003210       ?GetController@@YAPEAUgame_controller_input@@PEAUgame_input@@H@Z 0000000140004210 f i win32_handmade.obj
 0001:00003260       ?SafeTruncateUInt64@@YAI_K@Z 0000000140004260 f i win32_handmade.obj
 0001:00003290       ?Win32GetLastWriteTime@@YA?AU_FILETIME@@PEAD@Z 0000000140004290 f i win32_handmade.obj
 0001:00003300       ?Win32GetSecondsElapsed@@YAMT_LARGE_INTEGER@@0@Z 0000000140004300 f i win32_handmade.obj
 0001:00003340       ?Win32GetWallClock@@YA?AT_LARGE_INTEGER@@XZ 0000000140004340 f i win32_handmade.obj
 0001:00003360       __GSHandlerCheck           0000000140004360 f   LIBCMTD:gshandler.obj
 0001:000033a0       __GSHandlerCheckCommon     00000001400043a0 f   LIBCMTD:gshandler.obj
 0001:000034b0       __chkstk                   00000001400044b0 f   LIBCMTD:chkstk.obj
 0001:000034b0       _alloca_probe              00000001400044b0 f   LIBCMTD:chkstk.obj
 0001:00003510       __security_check_cookie    0000000140004510 f   LIBCMTD:amdsecgs.obj
 0001:000037f0       ?configure_argv@__scrt_narrow_argv_policy@@SAHXZ 00000001400047f0 f i LIBCMTD:exe_winmain.obj
 0001:00003810       ?initialize_environment@__scrt_narrow_environment_policy@@SAHXZ 0000000140004810 f i LIBCMTD:exe_winmain.obj
 0001:00003860       ?set_app_type@__scrt_winmain_policy@@SAXXZ 0000000140004860 f i LIBCMTD:exe_winmain.obj
 0001:00003880       ?set_commode@__scrt_file_policy@@SAXXZ 0000000140004880 f i LIBCMTD:exe_winmain.obj
 0001:000038a0       ?set_fmode@__scrt_file_policy@@SAXXZ 00000001400048a0 f i LIBCMTD:exe_winmain.obj
 0001:000038c0       WinMainCRTStartup          00000001400048c0 f   LIBCMTD:exe_winmain.obj
 0001:000038e0       __raise_securityfailure    00000001400048e0 f   LIBCMTD:gs_report.obj
 0001:00003920       __report_gsfailure         0000000140004920 f   LIBCMTD:gs_report.obj
 0001:00003a00       __report_rangecheckfailure 0000000140004a00 f   LIBCMTD:gs_report.obj
 0001:00003a20       __report_securityfailure   0000000140004a20 f   LIBCMTD:gs_report.obj
 0001:00003d80       NtCurrentTeb               0000000140004d80 f i LIBCMTD:utility.obj
 0001:00003d90       __scrt_acquire_startup_lock 0000000140004d90 f   LIBCMTD:utility.obj
 0001:00003e00       __scrt_initialize_crt      0000000140004e00 f   LIBCMTD:utility.obj
 0001:00003e50       __scrt_initialize_onexit_tables 0000000140004e50 f   LIBCMTD:utility.obj
 0001:00003f60       __scrt_is_nonwritable_in_current_image 0000000140004f60 f   LIBCMTD:utility.obj
 0001:00003ff0       __scrt_release_startup_lock 0000000140004ff0 f   LIBCMTD:utility.obj
 0001:00004020       __scrt_uninitialize_crt    0000000140005020 f   LIBCMTD:utility.obj
 0001:00004060       _onexit                    0000000140005060 f   LIBCMTD:utility.obj
 0001:000040e0       atexit                     00000001400050e0 f   LIBCMTD:utility.obj
 0001:000041e0       __security_init_cookie     00000001400051e0 f   LIBCMTD:gs_support.obj
 0001:00004260       ?get_current_state_index@__crt_state_management@@YA_KAEBV__crt_scoped_get_last_error_reset@@@Z 0000000140005260 f   libucrtd:invalid_parameter.obj
 0001:00004260       _matherr                   0000000140005260 f   LIBCMTD:matherr.obj
 0001:00004270       _get_startup_argv_mode     0000000140005270 f   LIBCMTD:argv_mode.obj
 0001:00004280       ?get_current_state_index@__crt_state_management@@YA_KXZ 0000000140005280 f   libucrtd:matherr.obj
 0001:00004280       ?get_invalid_value@__crt_hmodule_traits@@SAPEAUHINSTANCE__@@XZ 0000000140005280 f   libucrtd:exit.obj
 0001:00004280       __scrt_exe_initialize_mta  0000000140005280 f   LIBCMTD:utility_desktop.obj
 0001:00004280       __scrt_initialize_winrt    0000000140005280 f   LIBCMTD:utility_desktop.obj
 0001:00004280       __scrt_stub_for_initialize_mta 0000000140005280 f   LIBCMTD:utility_desktop.obj
 0001:00004280       _get_startup_commit_mode   0000000140005280 f   LIBCMTD:commit_mode.obj
 0001:00004280       _get_startup_new_mode      0000000140005280 f   LIBCMTD:new_mode.obj
 0001:00004280       _get_startup_thread_locale_mode 0000000140005280 f   LIBCMTD:thread_locale.obj
 0001:00004290       _get_startup_file_mode     0000000140005290 f   LIBCMTD:file_mode.obj
 0001:000042a0       ?__scrt_initialize_type_info@@YAXXZ 00000001400052a0 f   LIBCMTD:tncleanup.obj
 0001:000042c0       _should_initialize_environment 00000001400052c0 f   LIBCMTD:env_mode.obj
 0001:000042d0       _initialize_denormal_control 00000001400052d0 f   LIBCMTD:denormal_control.obj
 0001:000042d0       _initialize_invalid_parameter_handler 00000001400052d0 f   LIBCMTD:invalid_parameter_handler.obj
 0001:000042e0       __local_stdio_printf_options 00000001400052e0 f i LIBCMTD:default_local_stdio_options.obj
 0001:000042f0       __local_stdio_scanf_options 00000001400052f0 f i LIBCMTD:default_local_stdio_options.obj
 0001:00004300       __scrt_initialize_default_local_stdio_options 0000000140005300 f   LIBCMTD:default_local_stdio_options.obj
 0001:00004350       __scrt_is_user_matherr_present 0000000140005350 f   LIBCMTD:matherr_detection.obj
 0001:00004380       __scrt_get_dyn_tls_init_callback 0000000140005380 f   LIBCMTD:dyn_tls_init.obj
 0001:00004390       __scrt_get_dyn_tls_dtor_callback 0000000140005390 f   LIBCMTD:dyn_tls_dtor.obj
 0001:000043a0       __crt_debugger_hook        00000001400053a0 f   LIBCMTD:utility_desktop.obj
 0001:000043b0       __scrt_fastfail            00000001400053b0 f   LIBCMTD:utility_desktop.obj
 0001:00004550       __scrt_get_show_window_mode 0000000140005550 f   LIBCMTD:utility_desktop.obj
 0001:000045b0       __scrt_initialize_mta      00000001400055b0 f   LIBCMTD:utility_desktop.obj
 0001:000045c0       __scrt_is_managed_app      00000001400055c0 f   LIBCMTD:utility_desktop.obj
 0001:00004670       __scrt_set_unhandled_exception_filter 0000000140005670 f   LIBCMTD:utility_desktop.obj
 0001:00004690       __scrt_unhandled_exception_filter 0000000140005690 f   LIBCMTD:utility_desktop.obj
 0001:00004730       _RTC_Initialize            0000000140005730 f   LIBCMTD:initsect.obj
 0001:00004780       _RTC_Terminate             0000000140005780 f   LIBCMTD:initsect.obj
 0001:000047d0       ??1?$__crt_simd_cleanup_guard@$0A@@@QEAA@XZ 00000001400057d0 f i libucrtd:strnlen.obj
 0001:000047d0       ??1scoped_global_state_reset@__crt_state_management@@QEAA@XZ 00000001400057d0 f i libucrtd:onexit.obj
 0001:000047d0       _guard_check_icall_nop     00000001400057d0 f i LIBCMTD:guard_support.obj
 0001:000047e0       ReadNoFence64              00000001400057e0 f i LIBCMTD:guard_support.obj
 0001:00004800       ReadPointerNoFence         0000000140005800 f i LIBCMTD:guard_support.obj
 0001:00004820       _guard_icall_checks_enforced 0000000140005820 f i LIBCMTD:guard_support.obj
 0001:00004860       __isa_available_init       0000000140005860 f   LIBCMTD:cpu_disp.obj
 0001:00004d50       __scrt_is_ucrt_dll_in_use  0000000140005d50 f   LIBCMTD:ucrt_detection.obj
 0001:00004d80       __C_specific_handler       0000000140005d80 f   libvcruntimed:riscchandler.obj
 0001:000051f0       __vcrt_initialize          00000001400061f0 f   libvcruntimed:initialization.obj
 0001:00005230       __vcrt_uninitialize        0000000140006230 f   libvcruntimed:initialization.obj
 0001:00005250       ??$?RD@__crt_internal_free_policy@@QEBAXQEBD@Z 0000000140006250 f i libvcruntimed:std_type_info.obj
 0001:00005250       ??$?RU__vcrt_ptd@@@__crt_internal_free_policy@@QEBAXQEBU__vcrt_ptd@@@Z 0000000140006250 f i libvcruntimed:per_thread_data.obj
 0001:00005280       ??0?$__crt_scoped_stack_ptr@_W@@QEAA@U?$__crt_scoped_stack_ptr_tag@_W@@@Z 0000000140006280 f i libucrtd:getstringtypea.obj
 0001:00005280       ??0?$__crt_scoped_stack_ptr_tag@_W@@QEAA@QEA_W@Z 0000000140006280 f i libucrtd:getstringtypea.obj
 0001:00005280       ??0?$__crt_unique_handle_t@U__crt_findfile_traits@@@@QEAA@QEAX@Z 0000000140006280 f i libucrtd:argv_wildcards.obj
 0001:00005280       ??0?$__crt_unique_handle_t@U__crt_hmodule_traits@@@@QEAA@QEAUHINSTANCE__@@@Z 0000000140006280 f i libucrtd:exit.obj
 0001:00005280       ??0?$__crt_unique_heap_ptr@DU__crt_internal_free_policy@@@@QEAA@QEAD@Z 0000000140006280 f i libvcruntimed:std_type_info.obj
 0001:00005280       ??0?$__crt_unique_heap_ptr@DU__crt_public_free_policy@@@@QEAA@QEAD@Z 0000000140006280 f i libvcruntimed:std_exception.obj
 0001:00005280       ??0?$__crt_unique_heap_ptr@EU__crt_internal_free_policy@@@@QEAA@QEAE@Z 0000000140006280 f i libucrtd:argv_parsing.obj
 0001:00005280       ??0?$__crt_unique_heap_ptr@P6AXXZU__crt_internal_free_policy@@@@QEAA@QEAP6AXXZ@Z 0000000140006280 f i libucrtd:onexit.obj
 0001:00005280       ??0?$__crt_unique_heap_ptr@PEADU__crt_internal_free_policy@@@@QEAA@QEAPEAD@Z 0000000140006280 f i libucrtd:argv_parsing.obj
 0001:00005280       ??0?$__crt_unique_heap_ptr@PEAU__crt_stdio_stream_data@@U__crt_internal_free_policy@@@@QEAA@QEAPEAU__crt_stdio_stream_data@@@Z 0000000140006280 f i libucrtd:_file.obj
 0001:00005280       ??0?$__crt_unique_heap_ptr@U__acrt_ptd@@U__crt_internal_free_policy@@@@QEAA@QEAU__acrt_ptd@@@Z 0000000140006280 f i libucrtd:per_thread_data.obj
 0001:00005280       ??0?$__crt_unique_heap_ptr@U__crt_lowio_handle_data@@U__crt_internal_free_policy@@@@QEAA@QEAU__crt_lowio_handle_data@@@Z 0000000140006280 f i libucrtd:osfinfo.obj
 0001:00005280       ??0?$__crt_unique_heap_ptr@U__crt_multibyte_data@@U__crt_internal_free_policy@@@@QEAA@QEAU__crt_multibyte_data@@@Z 0000000140006280 f i libucrtd:wsetlocale.obj
 0001:00005280       ??0?$__crt_unique_heap_ptr@U__vcrt_ptd@@U__crt_internal_free_policy@@@@QEAA@QEAU__vcrt_ptd@@@Z 0000000140006280 f i libvcruntimed:per_thread_data.obj
 0001:00005280       ??0?$string_output_adapter@D@__crt_stdio_output@@QEAA@QEAU?$string_output_adapter_context@D@1@@Z 0000000140006280 f i libucrtd:output.obj
 0001:00005280       ??0?$string_output_adapter@_W@__crt_stdio_output@@QEAA@QEAU?$string_output_adapter_context@_W@1@@Z 0000000140006280 f i libucrtd:output.obj
 0001:00005280       ??0__crt_stdio_stream@@QEAA@QEAU__crt_stdio_stream_data@@@Z 0000000140006280 f i libucrtd:fflush.obj
 0001:00005280       ??0__crt_stdio_stream@@QEAA@QEAU_iobuf@@@Z 0000000140006280 f i libucrtd:output.obj
 0001:000052a0       ??1?$__crt_unique_heap_ptr@DU__crt_internal_free_policy@@@@QEAA@XZ 00000001400062a0 f i libvcruntimed:std_type_info.obj
 0001:000052a0       ??1?$__crt_unique_heap_ptr@U__vcrt_ptd@@U__crt_internal_free_policy@@@@QEAA@XZ 00000001400062a0 f i libvcruntimed:per_thread_data.obj
 0001:000052c0       ??B?$__crt_unique_heap_ptr@DU__crt_internal_free_policy@@@@QEBA_NXZ 00000001400062c0 f i libvcruntimed:std_type_info.obj
 0001:000052c0       ??B?$__crt_unique_heap_ptr@DU__crt_public_free_policy@@@@QEBA_NXZ 00000001400062c0 f i libvcruntimed:std_exception.obj
 0001:000052c0       ??B?$__crt_unique_heap_ptr@EU__crt_internal_free_policy@@@@QEBA_NXZ 00000001400062c0 f i libucrtd:argv_parsing.obj
 0001:000052c0       ??B?$__crt_unique_heap_ptr@PEADU__crt_internal_free_policy@@@@QEBA_NXZ 00000001400062c0 f i libucrtd:environment_initialization.obj
 0001:000052c0       ??B?$__crt_unique_heap_ptr@U__acrt_ptd@@U__crt_internal_free_policy@@@@QEBA_NXZ 00000001400062c0 f i libucrtd:per_thread_data.obj
 0001:000052c0       ??B?$__crt_unique_heap_ptr@U__crt_lowio_handle_data@@U__crt_internal_free_policy@@@@QEBA_NXZ 00000001400062c0 f i libucrtd:osfinfo.obj
 0001:000052c0       ??B?$__crt_unique_heap_ptr@U__crt_multibyte_data@@U__crt_internal_free_policy@@@@QEBA_NXZ 00000001400062c0 f i libucrtd:wsetlocale.obj
 0001:000052c0       ??B?$__crt_unique_heap_ptr@U__vcrt_ptd@@U__crt_internal_free_policy@@@@QEBA_NXZ 00000001400062c0 f i libvcruntimed:per_thread_data.obj
 0001:000052e0       ?__crt_interlocked_read_64@@YA_JPED_J@Z 00000001400062e0 f i libvcruntimed:std_type_info.obj
 0001:00005300       ??C__crt_stdio_stream@@QEBAPEAU__crt_stdio_stream_data@@XZ 0000000140006300 f i libucrtd:output.obj
 0001:00005300       ?get@?$__crt_scoped_stack_ptr@_W@@QEBAPEA_WXZ 0000000140006300 f i libucrtd:getstringtypea.obj
 0001:00005300       ?get@?$__crt_unique_handle_t@U__crt_findfile_traits@@@@QEBAPEAXXZ 0000000140006300 f i libucrtd:argv_wildcards.obj
 0001:00005300       ?get@?$__crt_unique_handle_t@U__crt_hmodule_traits@@@@QEBAPEAUHINSTANCE__@@XZ 0000000140006300 f i libucrtd:exit.obj
 0001:00005300       ?get@?$__crt_unique_heap_ptr@DU__crt_internal_free_policy@@@@QEBAPEADXZ 0000000140006300 f i libvcruntimed:std_type_info.obj
 0001:00005300       ?get@?$__crt_unique_heap_ptr@DU__crt_public_free_policy@@@@QEBAPEADXZ 0000000140006300 f i libvcruntimed:std_exception.obj
 0001:00005300       ?get@?$__crt_unique_heap_ptr@EU__crt_internal_free_policy@@@@QEBAPEAEXZ 0000000140006300 f i libucrtd:argv_parsing.obj
 0001:00005300       ?get@?$__crt_unique_heap_ptr@PEADU__crt_internal_free_policy@@@@QEBAPEAPEADXZ 0000000140006300 f i libucrtd:argv_parsing.obj
 0001:00005300       ?get@?$__crt_unique_heap_ptr@U__acrt_ptd@@U__crt_internal_free_policy@@@@QEBAPEAU__acrt_ptd@@XZ 0000000140006300 f i libucrtd:per_thread_data.obj
 0001:00005300       ?get@?$__crt_unique_heap_ptr@U__crt_lowio_handle_data@@U__crt_internal_free_policy@@@@QEBAPEAU__crt_lowio_handle_data@@XZ 0000000140006300 f i libucrtd:osfinfo.obj
 0001:00005300       ?get@?$__crt_unique_heap_ptr@U__crt_multibyte_data@@U__crt_internal_free_policy@@@@QEBAPEAU__crt_multibyte_data@@XZ 0000000140006300 f i libucrtd:wsetlocale.obj
 0001:00005300       ?get@?$__crt_unique_heap_ptr@U__vcrt_ptd@@U__crt_internal_free_policy@@@@QEBAPEAU__vcrt_ptd@@XZ 0000000140006300 f i libvcruntimed:per_thread_data.obj
 0001:00005300       ?public_stream@__crt_stdio_stream@@QEBAPEAU_iobuf@@XZ 0000000140006300 f i libucrtd:output.obj
 0001:00005300       ?save_state@?$c_string_character_source@D@__crt_strtox@@QEBAPEBDXZ 0000000140006300 f i libucrtd:output.obj
 0001:00005300       ?save_state@?$c_string_character_source@_W@__crt_strtox@@QEBAPEB_WXZ 0000000140006300 f i libucrtd:output.obj
 0001:00005310       ??B?$__crt_scoped_stack_ptr@_W@@QEBA_NXZ 0000000140006310 f i libucrtd:lcmapstringa.obj
 0001:00005310       ?is_valid@?$__crt_unique_heap_ptr@DU__crt_internal_free_policy@@@@QEBA_NXZ 0000000140006310 f i libvcruntimed:std_type_info.obj
 0001:00005310       ?is_valid@?$__crt_unique_heap_ptr@DU__crt_public_free_policy@@@@QEBA_NXZ 0000000140006310 f i libvcruntimed:std_exception.obj
 0001:00005310       ?is_valid@?$__crt_unique_heap_ptr@EU__crt_internal_free_policy@@@@QEBA_NXZ 0000000140006310 f i libucrtd:argv_parsing.obj
 0001:00005310       ?is_valid@?$__crt_unique_heap_ptr@PEADU__crt_internal_free_policy@@@@QEBA_NXZ 0000000140006310 f i libucrtd:environment_initialization.obj
 0001:00005310       ?is_valid@?$__crt_unique_heap_ptr@U__acrt_ptd@@U__crt_internal_free_policy@@@@QEBA_NXZ 0000000140006310 f i libucrtd:per_thread_data.obj
 0001:00005310       ?is_valid@?$__crt_unique_heap_ptr@U__crt_lowio_handle_data@@U__crt_internal_free_policy@@@@QEBA_NXZ 0000000140006310 f i libucrtd:osfinfo.obj
 0001:00005310       ?is_valid@?$__crt_unique_heap_ptr@U__crt_multibyte_data@@U__crt_internal_free_policy@@@@QEBA_NXZ 0000000140006310 f i libucrtd:wsetlocale.obj
 0001:00005310       ?is_valid@?$__crt_unique_heap_ptr@U__vcrt_ptd@@U__crt_internal_free_policy@@@@QEBA_NXZ 0000000140006310 f i libvcruntimed:per_thread_data.obj
 0001:00005310       ?valid@__crt_stdio_stream@@QEBA_NXZ 0000000140006310 f i libucrtd:output.obj
 0001:00005340       ?release@?$__crt_unique_heap_ptr@DU__crt_internal_free_policy@@@@QEAAXXZ 0000000140006340 f i libvcruntimed:std_type_info.obj
 0001:00005340       ?release@?$__crt_unique_heap_ptr@U__vcrt_ptd@@U__crt_internal_free_policy@@@@QEAAXXZ 0000000140006340 f i libvcruntimed:per_thread_data.obj
 0001:00005370       __std_type_info_compare    0000000140006370 f   libvcruntimed:std_type_info.obj
 0001:000053b0       __DestructExceptionObject  00000001400063b0 f   libvcruntimed:ehhelpers.obj
 0001:000054b0       ?_CallMemberFunction0@@YAXQEAX0@Z 00000001400064b0 f i libvcruntimed:ehhelpers.obj
 0001:00005590       _IsExceptionObjectToBeDestroyed 0000000140006590 f   libvcruntimed:ehhelpers.obj
 0001:000055e0       __AdjustPointer            00000001400065e0 f   libvcruntimed:ehhelpers.obj
 0001:00005660       __FrameUnwindFilter        0000000140006660 f   libvcruntimed:ehhelpers.obj
 0001:00005710       __current_exception        0000000140006710 f   libvcruntimed:ehhelpers.obj
 0001:00005730       __current_exception_context 0000000140006730 f   libvcruntimed:ehhelpers.obj
 0001:00005780       _NLG_Notify                0000000140006780 f   libvcruntimed:notify.obj
 0001:000057a0       __NLG_Dispatch2            00000001400067a0 f   libvcruntimed:notify.obj
 0001:000057b0       __NLG_Return2              00000001400067b0 f   libvcruntimed:notify.obj
 0001:000057c0       __except_validate_context_record 00000001400067c0 f   libvcruntimed:jbcxrval.obj
 0001:00005860       ?detach@?$__crt_unique_heap_ptr@DU__crt_internal_free_policy@@@@QEAAPEADXZ 0000000140006860 f i libucrtd:environment_initialization.obj
 0001:00005860       ?detach@?$__crt_unique_heap_ptr@DU__crt_public_free_policy@@@@QEAAPEADXZ 0000000140006860 f i libvcruntimed:std_exception.obj
 0001:00005860       ?detach@?$__crt_unique_heap_ptr@EU__crt_internal_free_policy@@@@QEAAPEAEXZ 0000000140006860 f i libucrtd:argv_parsing.obj
 0001:00005860       ?detach@?$__crt_unique_heap_ptr@P6AXXZU__crt_internal_free_policy@@@@QEAAPEAP6AXXZXZ 0000000140006860 f i libucrtd:onexit.obj
 0001:00005860       ?detach@?$__crt_unique_heap_ptr@PEADU__crt_internal_free_policy@@@@QEAAPEAPEADXZ 0000000140006860 f i libucrtd:argv_parsing.obj
 0001:00005860       ?detach@?$__crt_unique_heap_ptr@PEAU__crt_stdio_stream_data@@U__crt_internal_free_policy@@@@QEAAPEAPEAU__crt_stdio_stream_data@@XZ 0000000140006860 f i libucrtd:_file.obj
 0001:00005860       ?detach@?$__crt_unique_heap_ptr@U__acrt_ptd@@U__crt_internal_free_policy@@@@QEAAPEAU__acrt_ptd@@XZ 0000000140006860 f i libucrtd:per_thread_data.obj
 0001:00005860       ?detach@?$__crt_unique_heap_ptr@U__crt_lowio_handle_data@@U__crt_internal_free_policy@@@@QEAAPEAU__crt_lowio_handle_data@@XZ 0000000140006860 f i libucrtd:osfinfo.obj
 0001:00005860       ?detach@?$__crt_unique_heap_ptr@U__crt_multibyte_data@@U__crt_internal_free_policy@@@@QEAAPEAU__crt_multibyte_data@@XZ 0000000140006860 f i libucrtd:wsetlocale.obj
 0001:00005860       ?detach@?$__crt_unique_heap_ptr@U__vcrt_ptd@@U__crt_internal_free_policy@@@@QEAAPEAU__vcrt_ptd@@XZ 0000000140006860 f i libvcruntimed:per_thread_data.obj
 0001:000058d0       __vcrt_freefls             00000001400068d0 f   libvcruntimed:per_thread_data.obj
 0001:00005910       __vcrt_getptd              0000000140006910 f   libvcruntimed:per_thread_data.obj
 0001:00005940       __vcrt_getptd_noexit       0000000140006940 f   libvcruntimed:per_thread_data.obj
 0001:00005ae0       __vcrt_initialize_ptd      0000000140006ae0 f   libvcruntimed:per_thread_data.obj
 0001:00005b30       __vcrt_uninitialize_ptd    0000000140006b30 f   libvcruntimed:per_thread_data.obj
 0001:00005b60       __vcrt_initialize_locks    0000000140006b60 f   libvcruntimed:locks.obj
 0001:00005bd0       __vcrt_uninitialize_locks  0000000140006bd0 f   libvcruntimed:locks.obj
 0001:00005c30       _vsprintf_s_l              0000000140006c30 f i libvcruntimed:undname.obj
 0001:00005ca0       sprintf_s                  0000000140006ca0 f i libvcruntimed:undname.obj
 0001:00005d00       ??$__crt_interlocked_exchange_pointer@UHINSTANCE__@@PEAU1@@@YAPEAUHINSTANCE__@@PEDSEAU0@QEAU0@@Z 0000000140006d00 f i libvcruntimed:winapi_downlevel.obj
 0001:00005d00       ??$__crt_interlocked_exchange_pointer@UHINSTANCE__@@PEAX@@YAPEAUHINSTANCE__@@PEDSEAU0@QEAX@Z 0000000140006d00 f i libvcruntimed:winapi_downlevel.obj
 0001:00005d00       ??$__crt_interlocked_exchange_pointer@XPEAX@@YAPEAXPEDSEAXQEAX@Z 0000000140006d00 f i libvcruntimed:winapi_downlevel.obj
 0001:00005d20       ??$__crt_interlocked_read_pointer@UHINSTANCE__@@@@YAPEAUHINSTANCE__@@PEDSEAU0@@Z 0000000140006d20 f i libvcruntimed:winapi_downlevel.obj
 0001:00005d20       ??$__crt_interlocked_read_pointer@X@@YAPEAXPEDSEAX@Z 0000000140006d20 f i libvcruntimed:winapi_downlevel.obj
 0001:00005d40       ?get_invalid_value@__crt_findfile_traits@@SAPEAXXZ 0000000140006d40 f   libucrtd:argv_wildcards.obj
 0001:00006230       __vcrt_FlsAlloc            0000000140007230 f   libvcruntimed:winapi_downlevel.obj
 0001:00006280       __vcrt_FlsFree             0000000140007280 f   libvcruntimed:winapi_downlevel.obj
 0001:000062d0       __vcrt_FlsGetValue         00000001400072d0 f   libvcruntimed:winapi_downlevel.obj
 0001:00006320       __vcrt_FlsSetValue         0000000140007320 f   libvcruntimed:winapi_downlevel.obj
 0001:00006380       __vcrt_InitializeCriticalSectionEx 0000000140007380 f   libvcruntimed:winapi_downlevel.obj
 0001:000063f0       ??$?0AEAViterator@TryBlockMap@__FrameHandler3@@AEAV012@$0A@@?$pair@Viterator@TryBlockMap@__FrameHandler3@@V123@@std@@QEAA@AEAViterator@TryBlockMap@__FrameHandler3@@0@Z 00000001400073f0 f i libvcruntimed:risctrnsctrl.obj
 0001:00006500       ??$_CallSETranslator@V__FrameHandler3@@@@YAHPEAUEHExceptionRecord@@PEA_KPEAU_CONTEXT@@PEAU_xDISPATCHER_CONTEXT@@PEBU_s_FuncInfo@@K1H@Z 0000000140007500 f i libvcruntimed:risctrnsctrl.obj
 0001:00006590       ??0iterator@HandlerMap@__FrameHandler3@@QEAA@AEAV12@I@Z 0000000140007590 f i libvcruntimed:frame.obj
 0001:00006590       ??0iterator@TryBlockMap@__FrameHandler3@@QEAA@AEAV12@I@Z 0000000140007590 f i libvcruntimed:risctrnsctrl.obj
 0001:000065c0       ?CatchTryBlock@__FrameHandler3@@SAPEBU_s_TryBlockMapEntry@@PEBU_s_FuncInfo@@H@Z 00000001400075c0 f   libvcruntimed:risctrnsctrl.obj
 0001:00006650       ?ExecutionInCatch@__FrameHandler3@@SA_NPEAU_xDISPATCHER_CONTEXT@@PEBU_s_FuncInfo@@@Z 0000000140007650 f   libvcruntimed:risctrnsctrl.obj
 0001:000066a0       ?FrameUnwindToEmptyState@__FrameHandler3@@SAXPEA_KPEAU_xDISPATCHER_CONTEXT@@PEBU_s_FuncInfo@@@Z 00000001400076a0 f   libvcruntimed:risctrnsctrl.obj
 0001:00006740       ?GetEstablisherFrame@__FrameHandler3@@SAPEA_KPEA_KPEAU_xDISPATCHER_CONTEXT@@PEBU_s_FuncInfo@@0@Z 0000000140007740 f   libvcruntimed:risctrnsctrl.obj
 0001:000068b0       ?GetRangeOfTrysToCheck@__FrameHandler3@@SA?AU?$pair@Viterator@TryBlockMap@__FrameHandler3@@V123@@std@@AEAVTryBlockMap@1@HPEAU_xDISPATCHER_CONTEXT@@PEBU_s_FuncInfo@@H@Z 00000001400078b0 f   libvcruntimed:risctrnsctrl.obj
 0001:00006af0       ?UnwindNestedFrames@__FrameHandler3@@SAXPEA_KPEAUEHExceptionRecord@@PEAU_CONTEXT@@0PEAXPEBU_s_FuncInfo@@HHPEBU_s_HandlerType@@PEAU_xDISPATCHER_CONTEXT@@E@Z 0000000140007af0 f   libvcruntimed:risctrnsctrl.obj
 0001:00006c60       _CreateFrameInfo           0000000140007c60 f   libvcruntimed:risctrnsctrl.obj
 0001:00006cd0       _FindAndUnlinkFrame        0000000140007cd0 f   libvcruntimed:risctrnsctrl.obj
 0001:00006d50       _GetImageBase              0000000140007d50 f   libvcruntimed:risctrnsctrl.obj
 0001:00006d70       _GetThrowImageBase         0000000140007d70 f   libvcruntimed:risctrnsctrl.obj
 0001:00006d90       _SetImageBase              0000000140007d90 f   libvcruntimed:risctrnsctrl.obj
 0001:00006db0       _SetThrowImageBase         0000000140007db0 f   libvcruntimed:risctrnsctrl.obj
 0001:00006dd0       __CxxFrameHandler3         0000000140007dd0 f   libvcruntimed:risctrnsctrl.obj
 0001:00006eb0       ?GetCurrentState@__FrameHandler3@@SAHPEA_KPEAU_xDISPATCHER_CONTEXT@@PEBU_s_FuncInfo@@@Z 0000000140007eb0 f   libvcruntimed:ehstate.obj
 0001:00006f10       ?GetUnwindTryBlock@__FrameHandler3@@SAHPEA_KPEAU_xDISPATCHER_CONTEXT@@PEBU_s_FuncInfo@@@Z 0000000140007f10 f   libvcruntimed:ehstate.obj
 0001:00006f60       ?SetState@__FrameHandler3@@SAXPEA_KPEBU_s_FuncInfo@@H@Z 0000000140007f60 f   libvcruntimed:ehstate.obj
 0001:00006f90       ?SetUnwindTryBlock@__FrameHandler3@@SAXPEA_KPEAU_xDISPATCHER_CONTEXT@@PEBU_s_FuncInfo@@H@Z 0000000140007f90 f   libvcruntimed:ehstate.obj
 0001:00007000       ?StateFromControlPc@__FrameHandler3@@SAHPEBU_s_FuncInfo@@PEAU_xDISPATCHER_CONTEXT@@@Z 0000000140008000 f   libvcruntimed:ehstate.obj
 0001:00007040       ?StateFromIp@__FrameHandler3@@SAHPEBU_s_FuncInfo@@PEAU_xDISPATCHER_CONTEXT@@_K@Z 0000000140008040 f   libvcruntimed:ehstate.obj
 0001:00007140       ?__RVAtoRealOffset@@YA_KPEAU_xDISPATCHER_CONTEXT@@H@Z 0000000140008140 f i libvcruntimed:ehstate.obj
 0001:00008330       ??$TypeMatchHelper@V__FrameHandler3@@@@YAHPEBU_s_HandlerType@@PEBU_s_CatchableType@@PEBU_s_ThrowInfo@@@Z 0000000140009330 f i libvcruntimed:frame.obj
 0001:00008530       ??$__InternalCxxFrameHandler@V__FrameHandler3@@@@YA?AW4_EXCEPTION_DISPOSITION@@PEAUEHExceptionRecord@@PEA_KPEAU_CONTEXT@@PEAU_xDISPATCHER_CONTEXT@@PEBU_s_FuncInfo@@H1E@Z 0000000140009530 f i libvcruntimed:frame.obj
 0001:000089b0       ??$__InternalCxxFrameHandlerWrapper@V__FrameHandler3@@@@YA?AW4_EXCEPTION_DISPOSITION@@PEAUEHExceptionRecord@@PEA_KPEAU_CONTEXT@@PEAU_xDISPATCHER_CONTEXT@@PEBU_s_FuncInfo@@H1E@Z 00000001400099b0 f i libvcruntimed:frame.obj
 0001:00008a20       ??0HandlerMap@__FrameHandler3@@QEAA@PEBU_s_TryBlockMapEntry@@_KI@Z 0000000140009a20 f i libvcruntimed:frame.obj
 0001:00008a70       ??0TryBlockMap@__FrameHandler3@@QEAA@PEBU_s_FuncInfo@@_K@Z 0000000140009a70 f i libvcruntimed:frame.obj
 0001:00008aa0       ??0bad_exception@std@@QEAA@AEBV01@@Z 0000000140009aa0 f i libvcruntimed:frame.obj
 0001:00008ae0       ??0bad_exception@std@@QEAA@XZ 0000000140009ae0 f i libvcruntimed:frame.obj
 0001:00008b20       ??0exception@std@@QEAA@AEBV01@@Z 0000000140009b20 f i libvcruntimed:frame.obj
 0001:00008b80       ??0exception@std@@QEAA@QEBDH@Z 0000000140009b80 f i libvcruntimed:frame.obj
 0001:00008bd0       ??1bad_exception@std@@UEAA@XZ 0000000140009bd0 f i libvcruntimed:frame.obj
 0001:00008bf0       ??1exception@std@@UEAA@XZ  0000000140009bf0 f i libvcruntimed:frame.obj
 0001:00008c20       ??8iterator@HandlerMap@__FrameHandler3@@QEBA_NAEBV012@@Z 0000000140009c20 f i libvcruntimed:frame.obj
 0001:00008c60       ??8type_info@@QEBA_NAEBV0@@Z 0000000140009c60 f i libvcruntimed:frame.obj
 0001:00008ce0       ??9iterator@HandlerMap@__FrameHandler3@@QEBA_NAEBV012@@Z 0000000140009ce0 f i libvcruntimed:frame.obj
 0001:00008d20       ??Diterator@HandlerMap@__FrameHandler3@@QEAA?BU_s_HandlerType@@XZ 0000000140009d20 f i libvcruntimed:frame.obj
 0001:00008d60       ??Diterator@TryBlockMap@__FrameHandler3@@QEAA?BU_s_TryBlockMapEntry@@XZ 0000000140009d60 f i libvcruntimed:frame.obj
 0001:00008db0       ??Eiterator@HandlerMap@__FrameHandler3@@QEAAAEAV012@XZ 0000000140009db0 f i libvcruntimed:frame.obj
 0001:00008db0       ??Eiterator@TryBlockMap@__FrameHandler3@@QEAAAEAV012@XZ 0000000140009db0 f i libvcruntimed:frame.obj
 0001:00008dd0       ??Miterator@TryBlockMap@__FrameHandler3@@QEBA_NAEBV012@@Z 0000000140009dd0 f i libvcruntimed:frame.obj
 0001:00008e10       ??_Ebad_exception@std@@UEAAPEAXI@Z 0000000140009e10 f i libvcruntimed:frame.obj
 0001:00008e10       ??_Gbad_exception@std@@UEAAPEAXI@Z 0000000140009e10 f i libvcruntimed:frame.obj
 0001:00008e50       ??_Eexception@std@@UEAAPEAXI@Z 0000000140009e50 f i libvcruntimed:frame.obj
 0001:00008e50       ??_Gexception@std@@UEAAPEAXI@Z 0000000140009e50 f i libvcruntimed:frame.obj
 0001:00008e90       ?BuildCatchObject@__FrameHandler3@@SAXPEAUEHExceptionRecord@@PEAXPEBU_s_HandlerType@@PEBU_s_CatchableType@@@Z 0000000140009e90 f   libvcruntimed:frame.obj
 0001:00008ed0       ?CxxCallCatchBlock@__FrameHandler3@@SAPEAXPEAU_EXCEPTION_RECORD@@@Z 0000000140009ed0 f   libvcruntimed:frame.obj
 0001:00009230       ?FrameUnwindToState@__FrameHandler3@@SAXPEA_KPEAU_xDISPATCHER_CONTEXT@@PEBU_s_FuncInfo@@H@Z 000000014000a230 f   libvcruntimed:frame.obj
 0001:00009480       ?GetHandlerSearchState@__FrameHandler3@@SAHPEA_KPEAU_xDISPATCHER_CONTEXT@@PEBU_s_FuncInfo@@@Z 000000014000a480 f i libvcruntimed:frame.obj
 0001:00009530       ?GetMaxState@__FrameHandler3@@SAHPEAU_xDISPATCHER_CONTEXT@@PEBU_s_FuncInfo@@@Z 000000014000a530 f i libvcruntimed:frame.obj
 0001:00009730       ?TypeMatch@__FrameHandler3@@SAHPEBU_s_HandlerType@@PEBU_s_CatchableType@@PEBU_s_ThrowInfo@@@Z 000000014000a730 f   libvcruntimed:frame.obj
 0001:00009730       __TypeMatch                000000014000a730 f   libvcruntimed:frame.obj
 0001:00009760       ?_CallMemberFunction1@@YAXQEAX00@Z 000000014000a760 f i libvcruntimed:frame.obj
 0001:000097a0       ?_CallMemberFunction2@@YAXQEAX00H@Z 000000014000a7a0 f i libvcruntimed:frame.obj
 0001:00009830       ?begin@HandlerMap@__FrameHandler3@@QEAA?AViterator@12@XZ 000000014000a830 f i libvcruntimed:frame.obj
 0001:00009860       ?end@HandlerMap@__FrameHandler3@@QEAA?AViterator@12@XZ 000000014000a860 f i libvcruntimed:frame.obj
 0001:00009890       ?getESTypes@__FrameHandler3@@SAPEBU_s_ESTypeList@@PEBU_s_FuncInfo@@@Z 000000014000a890 f i libvcruntimed:frame.obj
 0001:000098d0       ?getLastEntry@HandlerMap@__FrameHandler3@@QEAAPEBU_s_HandlerType@@XZ 000000014000a8d0 f i libvcruntimed:frame.obj
 0001:000098f0       ?getMagicNum@__FrameHandler3@@SAIPEBU_s_FuncInfo@@@Z 000000014000a8f0 f i libvcruntimed:frame.obj
 0001:00009910       ?getNumTryBlocks@TryBlockMap@__FrameHandler3@@QEAAIXZ 000000014000a910 f i libvcruntimed:frame.obj
 0001:00009930       ?isEHs@__FrameHandler3@@SA_NPEBU_s_FuncInfo@@@Z 000000014000a930 f i libvcruntimed:frame.obj
 0001:00009970       ?isNoExcept@__FrameHandler3@@SA_NPEBU_s_FuncInfo@@@Z 000000014000a970 f i libvcruntimed:frame.obj
 0001:000099b0       ?what@exception@std@@UEBAPEBDXZ 000000014000a9b0 f i libvcruntimed:frame.obj
 0001:000099f0       __vcrt_EncodePointer       000000014000a9f0 f i libvcruntimed:frame.obj
 0001:00009a50       _CallSettingFrame          000000014000aa50 f   libvcruntimed:handlers.obj
 0001:00009a90       ??$?RD@__crt_public_free_policy@@QEBAXQEBD@Z 000000014000aa90 f i libvcruntimed:std_exception.obj
 0001:00009ab0       ??1?$__crt_unique_heap_ptr@DU__crt_public_free_policy@@@@QEAA@XZ 000000014000aab0 f i libvcruntimed:std_exception.obj
 0001:00009ad0       ?release@?$__crt_unique_heap_ptr@DU__crt_public_free_policy@@@@QEAAXXZ 000000014000aad0 f i libvcruntimed:std_exception.obj
 0001:00009b00       __std_exception_copy       000000014000ab00 f   libvcruntimed:std_exception.obj
 0001:00009c40       __std_exception_destroy    000000014000ac40 f   libvcruntimed:std_exception.obj
 0001:00009c80       _CxxThrowException         000000014000ac80 f   libvcruntimed:throw.obj
 0001:00009e30       _seh_filter_exe            000000014000ae30 f   libucrtd:exception_filter.obj
 0001:0000a2d0       __acrt_report_runtime_error 000000014000b2d0 f   libucrtd:report_runtime_error.obj
 0001:0000a550       _invoke_watson_if_error    000000014000b550 f i libucrtd:report_runtime_error.obj
 0001:0000a5a0       _query_app_type            000000014000b5a0 f   libucrtd:report_runtime_error.obj
 0001:0000a5b0       _set_app_type              000000014000b5b0 f   libucrtd:report_runtime_error.obj
 0001:0000a5c0       ??$__crt_fast_decode_pointer@P6AHPEAU_exception@@@Z@@YAP6AHPEAU_exception@@@ZQ6AH0@Z@Z 000000014000b5c0 f i libucrtd:matherr.obj
 0001:0000a5c0       ??$__crt_fast_decode_pointer@P6AH_K@Z@@YAP6AH_K@ZQ6AH0@Z@Z 000000014000b5c0 f i libucrtd:new_handler.obj
 0001:0000a5c0       ??$__crt_fast_decode_pointer@P6AXH@Z@@YAP6AXH@ZQ6AXH@Z@Z 000000014000b5c0 f i libucrtd:signal.obj
 0001:0000a5c0       ??$__crt_fast_decode_pointer@P6AXPEAXK0@Z@@YAP6AXPEAXK0@ZQ6AX0K0@Z@Z 000000014000b5c0 f i libucrtd:exit.obj
 0001:0000a5c0       ??$__crt_fast_decode_pointer@P6AXPEB_W00I_K@Z@@YAP6AXPEB_W00I_K@ZQ6AX000I1@Z@Z 000000014000b5c0 f i libucrtd:invalid_parameter.obj
 0001:0000a5c0       ??$__crt_fast_decode_pointer@P6AXXZ@@YAP6AXXZQ6AXXZ@Z 000000014000b5c0 f i libucrtd:onexit.obj
 0001:0000a5c0       ??$__crt_fast_decode_pointer@PEAP6AXXZ@@YAPEAP6AXXZQEAP6AXXZ@Z 000000014000b5c0 f i libucrtd:onexit.obj
 0001:0000a5c0       ??$__crt_fast_decode_pointer@PEAX@@YAPEAXQEAX@Z 000000014000b5c0 f i libucrtd:winapi_thunks.obj
 0001:0000a600       ??$__crt_fast_encode_pointer@P6AHPEAU_exception@@@Z@@YAP6AHPEAU_exception@@@ZQ6AH0@Z@Z 000000014000b600 f i libucrtd:matherr.obj
 0001:0000a600       ??$__crt_fast_encode_pointer@P6AHXZ@@YAP6AHXZQ6AHXZ@Z 000000014000b600 f i libucrtd:onexit.obj
 0001:0000a600       ??$__crt_fast_encode_pointer@P6AXH@Z@@YAP6AXH@ZQ6AXH@Z@Z 000000014000b600 f i libucrtd:signal.obj
 0001:0000a600       ??$__crt_fast_encode_pointer@P6AXPEAXK0@Z@@YAP6AXPEAXK0@ZQ6AX0K0@Z@Z 000000014000b600 f i libucrtd:exit.obj
 0001:0000a600       ??$__crt_fast_encode_pointer@P6AXXZ@@YAP6AXXZQ6AXXZ@Z 000000014000b600 f i libucrtd:onexit.obj
 0001:0000a600       ??$__crt_fast_encode_pointer@PEAP6AXXZ@@YAPEAP6AXXZQEAP6AXXZ@Z 000000014000b600 f i libucrtd:onexit.obj
 0001:0000a600       ??$__crt_fast_encode_pointer@PEAX@@YAPEAXQEAX@Z 000000014000b600 f i libucrtd:initialization.obj
 0001:0000a640       ?__crt_rotate_pointer_value@@YA_K_KH@Z 000000014000b640 f i libucrtd:matherr.obj
 0001:0000a660       ?initialize@?$dual_state_global@P6AHPEAU_exception@@@Z@__crt_state_management@@QEAAXQ6AHPEAU_exception@@@Z@Z 000000014000b660 f i libucrtd:matherr.obj
 0001:0000a660       ?initialize@?$dual_state_global@P6AH_K@Z@__crt_state_management@@QEAAXQ6AH_K@Z@Z 000000014000b660 f i libucrtd:new_handler.obj
 0001:0000a660       ?initialize@?$dual_state_global@P6AXH@Z@__crt_state_management@@QEAAXQ6AXH@Z@Z 000000014000b660 f i libucrtd:signal.obj
 0001:0000a660       ?initialize@?$dual_state_global@PEAPEAD@__crt_state_management@@QEAAXQEAPEAD@Z 000000014000b660 f i libucrtd:environment_initialization.obj
 0001:0000a660       ?initialize@?$dual_state_global@PEAU__crt_locale_data@@@__crt_state_management@@QEAAXQEAU__crt_locale_data@@@Z 000000014000b660 f i libucrtd:initialization.obj
 0001:0000a660       ?initialize@?$dual_state_global@PEAU__crt_multibyte_data@@@__crt_state_management@@QEAAXQEAU__crt_multibyte_data@@@Z 000000014000b660 f i libucrtd:mbctype.obj
 0001:0000a6b0       ?value@?$dual_state_global@P6AHPEAU_exception@@@Z@__crt_state_management@@QEAAAEAP6AHPEAU_exception@@@ZXZ 000000014000b6b0 f i libucrtd:matherr.obj
 0001:0000a6b0       ?value@?$dual_state_global@P6AH_K@Z@__crt_state_management@@QEAAAEAP6AH_K@ZXZ 000000014000b6b0 f i libucrtd:new_handler.obj
 0001:0000a6b0       ?value@?$dual_state_global@P6AXH@Z@__crt_state_management@@QEAAAEAP6AXH@ZXZ 000000014000b6b0 f i libucrtd:signal.obj
 0001:0000a6b0       ?value@?$dual_state_global@PEAE@__crt_state_management@@QEAAAEAPEAEXZ 000000014000b6b0 f i libucrtd:mbctype.obj
 0001:0000a6b0       ?value@?$dual_state_global@PEAPEAD@__crt_state_management@@QEAAAEAPEAPEADXZ 000000014000b6b0 f i libucrtd:environment_initialization.obj
 0001:0000a6b0       ?value@?$dual_state_global@PEAU__crt_locale_data@@@__crt_state_management@@QEAAAEAPEAU__crt_locale_data@@XZ 000000014000b6b0 f i libucrtd:wsetlocale.obj
 0001:0000a6b0       ?value@?$dual_state_global@PEAU__crt_multibyte_data@@@__crt_state_management@@QEAAAEAPEAU__crt_multibyte_data@@XZ 000000014000b6b0 f i libucrtd:mbctype.obj
 0001:0000a6d0       __acrt_has_user_matherr    000000014000b6d0 f   libucrtd:matherr.obj
 0001:0000a710       __acrt_initialize_user_matherr 000000014000b710 f   libucrtd:matherr.obj
 0001:0000a730       __acrt_invoke_user_matherr 000000014000b730 f   libucrtd:matherr.obj
 0001:0000a7a0       __setusermatherr           000000014000b7a0 f   libucrtd:matherr.obj
 0001:0000a7e0       ??$?RE@__crt_internal_free_policy@@QEBAXQEBE@Z 000000014000b7e0 f i libucrtd:argv_parsing.obj
 0001:0000a7e0       ??$?RP6AXXZ@__crt_internal_free_policy@@QEBAXQEBQ6AXXZ@Z 000000014000b7e0 f i libucrtd:onexit.obj
 0001:0000a7e0       ??$?RPEAD@__crt_internal_free_policy@@QEBAXQEBQEAD@Z 000000014000b7e0 f i libucrtd:argv_parsing.obj
 0001:0000a7e0       ??$?RPEAU__crt_stdio_stream_data@@@__crt_internal_free_policy@@QEBAXQEBQEAU__crt_stdio_stream_data@@@Z 000000014000b7e0 f i libucrtd:_file.obj
 0001:0000a7e0       ??$?RU__acrt_ptd@@@__crt_internal_free_policy@@QEBAXQEBU__acrt_ptd@@@Z 000000014000b7e0 f i libucrtd:per_thread_data.obj
 0001:0000a7e0       ??$?RU__crt_lowio_handle_data@@@__crt_internal_free_policy@@QEBAXQEBU__crt_lowio_handle_data@@@Z 000000014000b7e0 f i libucrtd:osfinfo.obj
 0001:0000a7e0       ??$?RU__crt_multibyte_data@@@__crt_internal_free_policy@@QEBAXQEBU__crt_multibyte_data@@@Z 000000014000b7e0 f i libucrtd:wsetlocale.obj
 0001:0000aba0       ??$get_module_file_name@$$TAEAY0BAF@DH@?$__crt_char_traits@D@@SAK$$QEA$$TAEAY0BAF@D$$QEAH@Z 000000014000bba0 f i libucrtd:argv_parsing.obj
 0001:0000aba0       ??$get_module_file_name@AEAPEAUHINSTANCE__@@AEAY0BAF@DK@?$__crt_char_traits@D@@SAKAEAPEAUHINSTANCE__@@AEAY0BAF@D$$QEAK@Z 000000014000bba0 f i libucrtd:dbgrpt.obj
 0001:0000b0b0       ??$set_program_name@PEAD@?$__crt_char_traits@D@@SAX$$QEAPEAD@Z 000000014000c0b0 f i libucrtd:argv_parsing.obj
 0001:0000b0d0       ??1?$__crt_unique_heap_ptr@EU__crt_internal_free_policy@@@@QEAA@XZ 000000014000c0d0 f i libucrtd:argv_parsing.obj
 0001:0000b0d0       ??1?$__crt_unique_heap_ptr@P6AXXZU__crt_internal_free_policy@@@@QEAA@XZ 000000014000c0d0 f i libucrtd:onexit.obj
 0001:0000b0d0       ??1?$__crt_unique_heap_ptr@PEADU__crt_internal_free_policy@@@@QEAA@XZ 000000014000c0d0 f i libucrtd:argv_parsing.obj
 0001:0000b0d0       ??1?$__crt_unique_heap_ptr@PEAU__crt_stdio_stream_data@@U__crt_internal_free_policy@@@@QEAA@XZ 000000014000c0d0 f i libucrtd:_file.obj
 0001:0000b0d0       ??1?$__crt_unique_heap_ptr@U__acrt_ptd@@U__crt_internal_free_policy@@@@QEAA@XZ 000000014000c0d0 f i libucrtd:per_thread_data.obj
 0001:0000b0d0       ??1?$__crt_unique_heap_ptr@U__crt_lowio_handle_data@@U__crt_internal_free_policy@@@@QEAA@XZ 000000014000c0d0 f i libucrtd:osfinfo.obj
 0001:0000b0d0       ??1?$__crt_unique_heap_ptr@U__crt_multibyte_data@@U__crt_internal_free_policy@@@@QEAA@XZ 000000014000c0d0 f i libucrtd:wsetlocale.obj
 0001:0000b1a0       ?dangerous_get_state_array@?$dual_state_global@H@__crt_state_management@@QEAAPEAHXZ 000000014000c1a0 f i libucrtd:txtmode.obj
 0001:0000b1a0       ?dangerous_get_state_array@?$dual_state_global@P6AXPEB_W00I_K@Z@__crt_state_management@@QEAAPEAP6AXPEB_W00I_K@ZXZ 000000014000c1a0 f i libucrtd:invalid_parameter.obj
 0001:0000b1a0       ?dangerous_get_state_array@?$dual_state_global@PEAE@__crt_state_management@@QEAAPEAPEAEXZ 000000014000c1a0 f i libucrtd:mbctype.obj
 0001:0000b1a0       ?dangerous_get_state_array@?$dual_state_global@PEAU__crt_locale_data@@@__crt_state_management@@QEAAPEAPEAU__crt_locale_data@@XZ 000000014000c1a0 f i libucrtd:per_thread_data.obj
 0001:0000b1a0       ?dangerous_get_state_array@?$dual_state_global@PEAU__crt_multibyte_data@@@__crt_state_management@@QEAAPEAPEAU__crt_multibyte_data@@XZ 000000014000c1a0 f i libucrtd:mbctype.obj
 0001:0000b1a0       ?debug_info@?$__crt_win32_buffer@DU__crt_win32_buffer_internal_dynamic_resizing@@@@QEBAAEBV__crt_win32_buffer_empty_debug_info@@XZ 000000014000c1a0 f i libucrtd:argv_wildcards.obj
 0001:0000b1a0       ?debug_info@?$__crt_win32_buffer@DU__crt_win32_buffer_no_resizing@@@@QEBAAEBV__crt_win32_buffer_empty_debug_info@@XZ 000000014000c1a0 f i libucrtd:getmodulefilenamea.obj
 0001:0000b1a0       ?debug_info@?$__crt_win32_buffer@_WU__crt_win32_buffer_internal_dynamic_resizing@@@@QEBAAEBV__crt_win32_buffer_empty_debug_info@@XZ 000000014000c1a0 f i libucrtd:argv_wildcards.obj
 0001:0000b1a0       ?get_address_of@?$__crt_unique_handle_t@U__crt_hmodule_traits@@@@QEAAPEAPEAUHINSTANCE__@@XZ 000000014000c1a0 f i libucrtd:exit.obj
 0001:0000b1a0       ?get_address_of@?$__crt_unique_heap_ptr@PEADU__crt_internal_free_policy@@@@QEAAPEAPEAPEADXZ 000000014000c1a0 f i libucrtd:argv_parsing.obj
 0001:0000b1d0       ?release@?$__crt_unique_heap_ptr@EU__crt_internal_free_policy@@@@QEAAXXZ 000000014000c1d0 f i libucrtd:argv_parsing.obj
 0001:0000b1d0       ?release@?$__crt_unique_heap_ptr@P6AXXZU__crt_internal_free_policy@@@@QEAAXXZ 000000014000c1d0 f i libucrtd:onexit.obj
 0001:0000b1d0       ?release@?$__crt_unique_heap_ptr@PEADU__crt_internal_free_policy@@@@QEAAXXZ 000000014000c1d0 f i libucrtd:argv_parsing.obj
 0001:0000b1d0       ?release@?$__crt_unique_heap_ptr@PEAU__crt_stdio_stream_data@@U__crt_internal_free_policy@@@@QEAAXXZ 000000014000c1d0 f i libucrtd:_file.obj
 0001:0000b1d0       ?release@?$__crt_unique_heap_ptr@U__acrt_ptd@@U__crt_internal_free_policy@@@@QEAAXXZ 000000014000c1d0 f i libucrtd:per_thread_data.obj
 0001:0000b1d0       ?release@?$__crt_unique_heap_ptr@U__crt_lowio_handle_data@@U__crt_internal_free_policy@@@@QEAAXXZ 000000014000c1d0 f i libucrtd:osfinfo.obj
 0001:0000b1d0       ?release@?$__crt_unique_heap_ptr@U__crt_multibyte_data@@U__crt_internal_free_policy@@@@QEAAXXZ 000000014000c1d0 f i libucrtd:wsetlocale.obj
 0001:0000b240       __acrt_allocate_buffer_for_argv 000000014000c240 f   libucrtd:argv_parsing.obj
 0001:0000b360       _configure_narrow_argv     000000014000c360 f   libucrtd:argv_parsing.obj
 0001:0000b380       _set_pgmptr                000000014000c380 f i libucrtd:argv_parsing.obj
 0001:0000b7b0       ??$get_environment_from_os@$$V@?$__crt_char_traits@D@@SAPEADXZ 000000014000c7b0 f i libucrtd:environment_initialization.obj
 0001:0000b7c0       ??$tcscpy_s@PEADAEB_KAEAPEAD@?$__crt_char_traits@D@@SAH$$QEAPEADAEB_KAEAPEAD@Z 000000014000c7c0 f i libucrtd:environment_initialization.obj
 0001:0000b800       ??$tcslen@AEAPEAD@?$__crt_char_traits@D@@SA_KAEAPEAD@Z 000000014000c800 f i libucrtd:environment_initialization.obj
 0001:0000b800       ??$tcslen@AEBQEBD@?$__crt_char_traits@D@@SA_KAEBQEBD@Z 000000014000c800 f i libucrtd:dbgrpt.obj
 0001:0000b820       ??$uninitialize@A6AXAEAPEAPEAD@_E@?$dual_state_global@PEAPEAD@__crt_state_management@@QEAAXA6AXAEAPEAPEAD@_E@Z 000000014000c820 f i libucrtd:environment_initialization.obj
 0001:0000b8a0       ??$uninitialize@A6AXAEAPEAPEA_W@_E@?$dual_state_global@PEAPEA_W@__crt_state_management@@QEAAXA6AXAEAPEAPEA_W@_E@Z 000000014000c8a0 f i libucrtd:environment_initialization.obj
 0001:0000b9f0       __dcrt_uninitialize_environments_nolock 000000014000c9f0 f   libucrtd:environment_initialization.obj
 0001:0000ba40       _initialize_narrow_environment 000000014000ca40 f   libucrtd:environment_initialization.obj
 0001:0000bb90       _get_narrow_winmain_command_line 000000014000cb90 f   libucrtd:argv_winmain.obj
 0001:0000bba0       _initterm                  000000014000cba0 f   libucrtd:initterm.obj
 0001:0000bc10       _initterm_e                000000014000cc10 f   libucrtd:initterm.obj
 0001:0000bc90       ??$?B$$A6AXH@Z@__crt_fast_encoded_nullptr_t@@QEBAP6AXH@ZXZ 000000014000cc90 f i libucrtd:signal.obj
 0001:0000bc90       ??$?B$$A6AXPEAXK0@Z@__crt_fast_encoded_nullptr_t@@QEBAP6AXPEAXK0@ZXZ 000000014000cc90 f i libucrtd:exit.obj
 0001:0000bc90       ??$?B$$A6AXXZ@__crt_fast_encoded_nullptr_t@@QEBAP6AXXZXZ 000000014000cc90 f i libucrtd:onexit.obj
 0001:0000bc90       ??$?BP6AXXZ@__crt_fast_encoded_nullptr_t@@QEBAPEAP6AXXZXZ 000000014000cc90 f i libucrtd:onexit.obj
 0001:0000bc90       ??$?BX@__crt_fast_encoded_nullptr_t@@QEBAPEAXXZ 000000014000cc90 f i libucrtd:initialization.obj
 0001:0000bd50       ??$__crt_get_proc_address@P6AXI@Z@@YAP6AXI@ZQEAUHINSTANCE__@@QEBD@Z 000000014000cd50 f i libucrtd:exit.obj
 0001:0000bd80       ??$__crt_interlocked_read@J@@YAJPEDJ@Z 000000014000cd80 f i libucrtd:exit.obj
 0001:0000be10       ??1?$__crt_unique_handle_t@U__crt_hmodule_traits@@@@QEAA@XZ 000000014000ce10 f i libucrtd:exit.obj
 0001:0000bf90       ?__acrt_select_exit_lock@@YA?AW4__acrt_lock_id@@XZ 000000014000cf90 f i libucrtd:exit.obj
 0001:0000bfa0       ?__crt_fast_encode_pointer@@YA?AU__crt_fast_encoded_nullptr_t@@$$T@Z 000000014000cfa0 f i libucrtd:exit.obj
 0001:0000bfc0       ?__crt_interlocked_read_32@@YAHPEDH@Z 000000014000cfc0 f i libucrtd:exit.obj
 0001:0000c000       ?close@?$__crt_unique_handle_t@U__crt_hmodule_traits@@@@QEAAXXZ 000000014000d000 f i libucrtd:exit.obj
 0001:0000c040       ?close@__crt_hmodule_traits@@SA_NPEAUHINSTANCE__@@@Z 000000014000d040 f i libucrtd:exit.obj
 0001:0000c300       __acrt_initialize_thread_local_exit_callback 000000014000d300 f   libucrtd:exit.obj
 0001:0000c320       _c_exit                    000000014000d320 f   libucrtd:exit.obj
 0001:0000c340       _cexit                     000000014000d340 f   libucrtd:exit.obj
 0001:0000c360       _exit                      000000014000d360 f   libucrtd:exit.obj
 0001:0000c380       _register_thread_local_exe_atexit_callback 000000014000d380 f   libucrtd:exit.obj
 0001:0000c3d0       exit                       000000014000d3d0 f   libucrtd:exit.obj
 0001:0000c3f0       ?value@?$dual_state_global@H@__crt_state_management@@QEAAAEAHXZ 000000014000d3f0 f i libucrtd:setmode.obj
 0001:0000c3f0       ?value@?$dual_state_global@J@__crt_state_management@@QEAAAEAJXZ 000000014000d3f0 f i libucrtd:new_mode.obj
 0001:0000c410       _set_fmode                 000000014000d410 f   libucrtd:setmode.obj
 0001:0000c670       __acrt_disable_global_locale_sync 000000014000d670 f i libucrtd:wsetlocale.obj
 0001:0000c6a0       __acrt_enable_global_locale_sync 000000014000d6a0 f i libucrtd:wsetlocale.obj
 0001:0000c6d0       __acrt_set_locale_changed  000000014000d6d0 f   libucrtd:wsetlocale.obj
 0001:0000c6e0       __acrt_uninitialize_locale 000000014000d6e0 f   libucrtd:wsetlocale.obj
 0001:0000c710       __ascii_tolower            000000014000d710 f i libucrtd:wsetlocale.obj
 0001:0000c730       __ascii_towlower           000000014000d730 f i libucrtd:wsetlocale.obj
 0001:0000c750       _configthreadlocale        000000014000d750 f   libucrtd:wsetlocale.obj
 0001:0000c8b0       _query_new_mode            000000014000d8b0 f   libucrtd:new_mode.obj
 0001:0000c8d0       _set_new_mode              000000014000d8d0 f   libucrtd:new_mode.obj
 0001:0000c9a0       __p__commode               000000014000d9a0 f   libucrtd:ncommode.obj
 0001:0000d080       _crt_atexit                000000014000e080 f   libucrtd:onexit.obj
 0001:0000d0a0       _execute_onexit_table      000000014000e0a0 f   libucrtd:onexit.obj
 0001:0000d0e0       _initialize_onexit_table   000000014000e0e0 f   libucrtd:onexit.obj
 0001:0000d160       _register_onexit_function  000000014000e160 f   libucrtd:onexit.obj
 0001:0000d200       __acrt_uninitialize_command_line 000000014000e200 f   libucrtd:argv_data.obj
 0001:0000d470       __acrt_initialize          000000014000e470 f   libucrtd:initialization.obj
 0001:0000d4a0       __acrt_uninitialize        000000014000e4a0 f   libucrtd:initialization.obj
 0001:0000d4d0       terminate                  000000014000e4d0 f   libucrtd:terminate.obj
 0001:0000d520       ??0_LocaleUpdate@@QEAA@QEAU__crt_locale_pointers@@@Z 000000014000e520 f i libucrtd:debug_heap.obj
 0001:0000d640       ??1_LocaleUpdate@@QEAA@XZ  000000014000e640 f i libucrtd:debug_heap.obj
 0001:0000d670       ?GetLocaleT@_LocaleUpdate@@QEAAPEAU__crt_locale_pointers@@XZ 000000014000e670 f i libucrtd:debug_heap.obj
 0001:0000fa20       _CrtCheckMemory            0000000140010a20 f   libucrtd:debug_heap.obj
 0001:0000fbb0       _CrtDumpMemoryLeaks        0000000140010bb0 f   libucrtd:debug_heap.obj
 0001:0000fc70       _CrtIsValidHeapPointer     0000000140010c70 f   libucrtd:debug_heap.obj
 0001:0000fcc0       _CrtIsValidPointer         0000000140010cc0 f   libucrtd:debug_heap.obj
 0001:0000fd00       _CrtMemCheckpoint          0000000140010d00 f   libucrtd:debug_heap.obj
 0001:0000ff80       _CrtMemDumpAllObjectsSince 0000000140010f80 f   libucrtd:debug_heap.obj
 0001:0000ffe0       _CrtSetDbgFlag             0000000140010fe0 f   libucrtd:debug_heap.obj
 0001:00010140       _CrtSetDumpClient          0000000140011140 f   libucrtd:debug_heap.obj
 0001:00010170       __acrt_get_locale_data_prefix 0000000140011170 f i libucrtd:debug_heap.obj
 0001:00010190       __acrt_locale_changed      0000000140011190 f i libucrtd:debug_heap.obj
 0001:000101c0       _calloc_dbg                00000001400111c0 f   libucrtd:debug_heap.obj
 0001:00010260       _chvalidchk_l              0000000140011260 f i libucrtd:debug_heap.obj
 0001:00010290       _free_dbg                  0000000140011290 f   libucrtd:debug_heap.obj
 0001:00010300       _invoke_watson_if_oneof    0000000140011300 f i libucrtd:debug_heap.obj
 0001:00010360       _ischartype_l              0000000140011360 f i libucrtd:debug_heap.obj
 0001:000103f0       _malloc_dbg                00000001400113f0 f   libucrtd:debug_heap.obj
 0001:00010430       _msize_dbg                 0000000140011430 f   libucrtd:debug_heap.obj
 0001:000105d0       _realloc_dbg               00000001400115d0 f   libucrtd:debug_heap.obj
 0001:00010640       _recalloc_dbg              0000000140011640 f   libucrtd:debug_heap.obj
 0001:00010c20       strcpy_s                   0000000140011c20 f   libucrtd:strcpy_s.obj
 0001:00010c60       strcmp                     0000000140011c60 f   libucrtd:strcmp.obj
 0001:00010ce0       strlen                     0000000140011ce0 f   libucrtd:strlen.obj
 0001:00010d90       abort                      0000000140011d90 f   libucrtd:abort.obj
 0001:00010e10       ??$initialize_from_array@$$BY00Q6AXPEB_W00I_K@Z@?$dual_state_global@P6AXPEB_W00I_K@Z@__crt_state_management@@QEAAXAEAY00Q6AXPEB_W00I_K@Z@Z 0000000140011e10 f i libucrtd:invalid_parameter.obj
 0001:00010e70       ??0?$cached@H@__crt_cached_ptd_host@@QEAA@XZ 0000000140011e70 f i libucrtd:invalid_parameter.obj
 0001:00010e70       ??0?$cached@K@__crt_cached_ptd_host@@QEAA@XZ 0000000140011e70 f i libucrtd:invalid_parameter.obj
 0001:00010e90       ??0__crt_cached_ptd_host@@QEAA@QEAU__crt_locale_pointers@@@Z 0000000140011e90 f i libucrtd:invalid_parameter.obj
 0001:00010f50       ??0__crt_scoped_get_last_error_reset@@QEAA@XZ 0000000140011f50 f i libucrtd:invalid_parameter.obj
 0001:00010f70       ??1__crt_cached_ptd_host@@QEAA@XZ 0000000140011f70 f i libucrtd:invalid_parameter.obj
 0001:00011020       ??1__crt_scoped_get_last_error_reset@@QEAA@XZ 0000000140012020 f i libucrtd:invalid_parameter.obj
 0001:000110e0       ?check_synchronize_global_state_index@__crt_cached_ptd_host@@AEAA_KAEBV__crt_scoped_get_last_error_reset@@@Z 00000001400120e0 f i libucrtd:invalid_parameter.obj
 0001:00011120       ?check_synchronize_global_state_index@__crt_cached_ptd_host@@AEAA_KXZ 0000000140012120 f i libucrtd:invalid_parameter.obj
 0001:00011180       ?check_synchronize_per_thread_data@__crt_cached_ptd_host@@AEAAPEAU__acrt_ptd@@XZ 0000000140012180 f i libucrtd:invalid_parameter.obj
 0001:000111c0       ?force_synchronize_global_state_index@__crt_cached_ptd_host@@AEAA_KAEBV__crt_scoped_get_last_error_reset@@@Z 00000001400121c0 f i libucrtd:invalid_parameter.obj
 0001:00011200       ?force_synchronize_per_thread_data@__crt_cached_ptd_host@@AEAAPEAU__acrt_ptd@@XZ 0000000140012200 f i libucrtd:invalid_parameter.obj
 0001:00011260       ?get_current_global_state_index@__crt_cached_ptd_host@@QEAA_KXZ 0000000140012260 f i libucrtd:invalid_parameter.obj
 0001:00011280       ?get_raw_ptd@__crt_cached_ptd_host@@QEAAPEAU__acrt_ptd@@XZ 0000000140012280 f i libucrtd:invalid_parameter.obj
 0001:000112a0       ?get_raw_ptd_noexit@__crt_cached_ptd_host@@QEAAPEAU__acrt_ptd@@XZ 00000001400122a0 f i libucrtd:invalid_parameter.obj
 0001:000112c0       ?try_synchronize_per_thread_data@__crt_cached_ptd_host@@AEAAPEAU__acrt_ptd@@XZ 00000001400122c0 f i libucrtd:invalid_parameter.obj
 0001:000112f0       ?unsafe_value@?$cached@H@__crt_cached_ptd_host@@QEAAHXZ 00000001400122f0 f i libucrtd:invalid_parameter.obj
 0001:000112f0       ?unsafe_value@?$cached@K@__crt_cached_ptd_host@@QEAAKXZ 00000001400122f0 f i libucrtd:invalid_parameter.obj
 0001:00011300       ?valid@?$cached@H@__crt_cached_ptd_host@@QEBA_NXZ 0000000140012300 f i libucrtd:invalid_parameter.obj
 0001:00011300       ?valid@?$cached@K@__crt_cached_ptd_host@@QEBA_NXZ 0000000140012300 f i libucrtd:invalid_parameter.obj
 0001:00011310       ?value@?$dual_state_global@P6AXPEB_W00I_K@Z@__crt_state_management@@QEAAAEAP6AXPEB_W00I_K@ZAEAV__crt_cached_ptd_host@@@Z 0000000140012310 f i libucrtd:invalid_parameter.obj
 0001:00011340       __acrt_call_reportfault    0000000140012340 f   libucrtd:invalid_parameter.obj
 0001:00011470       __acrt_initialize_invalid_parameter_handler 0000000140012470 f   libucrtd:invalid_parameter.obj
 0001:000114a0       _invalid_parameter         00000001400124a0 f   libucrtd:invalid_parameter.obj
 0001:00011510       _invalid_parameter_internal 0000000140012510 f   libucrtd:invalid_parameter.obj
 0001:00011660       _invalid_parameter_noinfo  0000000140012660 f   libucrtd:invalid_parameter.obj
 0001:00011690       _invoke_watson             0000000140012690 f   libucrtd:invalid_parameter.obj
 0001:000116f0       ??$?0AEBV?$string_output_adapter@D@__crt_stdio_output@@AEB_KAEBQEBDAEAV__crt_cached_ptd_host@@AEBQEAD@?$format_validation_base@DV?$string_output_adapter@D@__crt_stdio_output@@@__crt_stdio_output@@IEAA@AEBV?$string_output_adapter@D@1@AEB_KAEBQEBDAEAV__crt_cached_ptd_host@@AEBQEAD@Z 00000001400126f0 f i libucrtd:output.obj
 0001:00011740       ??$?0AEBV?$string_output_adapter@D@__crt_stdio_output@@AEB_KAEBQEBDAEAV__crt_cached_ptd_host@@AEBQEAD@?$standard_base@DV?$string_output_adapter@D@__crt_stdio_output@@@__crt_stdio_output@@IEAA@AEBV?$string_output_adapter@D@1@AEB_KAEBQEBDAEAV__crt_cached_ptd_host@@AEBQEAD@Z 0000000140012740 f i libucrtd:output.obj
 0001:000117b0       ??$?0AEBV?$string_output_adapter@_W@__crt_stdio_output@@AEB_KAEBQEB_WAEAV__crt_cached_ptd_host@@AEBQEAD@?$format_validation_base@_WV?$string_output_adapter@_W@__crt_stdio_output@@@__crt_stdio_output@@IEAA@AEBV?$string_output_adapter@_W@1@AEB_KAEBQEB_WAEAV__crt_cached_ptd_host@@AEBQEAD@Z 00000001400127b0 f i libucrtd:output.obj
 0001:00011800       ??$?0AEBV?$string_output_adapter@_W@__crt_stdio_output@@AEB_KAEBQEB_WAEAV__crt_cached_ptd_host@@AEBQEAD@?$standard_base@_WV?$string_output_adapter@_W@__crt_stdio_output@@@__crt_stdio_output@@IEAA@AEBV?$string_output_adapter@_W@1@AEB_KAEBQEB_WAEAV__crt_cached_ptd_host@@AEBQEAD@Z 0000000140012800 f i libucrtd:output.obj
 0001:00011870       ??$_tcstol_internal@DPEAPEAD$0A@@@YAJAEAV__crt_cached_ptd_host@@QEBDQEAPEADH@Z 0000000140012870 f i libucrtd:output.obj
 0001:000118c0       ??$_tcstol_internal@_WPEAPEA_W$0A@@@YAJAEAV__crt_cached_ptd_host@@QEB_WQEAPEA_WH@Z 00000001400128c0 f i libucrtd:output.obj
 0001:00013490       ??$count@D@formatting_buffer@__crt_stdio_output@@QEBA_KXZ 0000000140014490 f i libucrtd:output.obj
 0001:000134e0       ??$count@_W@formatting_buffer@__crt_stdio_output@@QEBA_KXZ 00000001400144e0 f i libucrtd:output.obj
 0001:00013530       ??$data@D@formatting_buffer@__crt_stdio_output@@QEAAPEADXZ 0000000140014530 f i libucrtd:output.obj
 0001:00013530       ??$data@_W@formatting_buffer@__crt_stdio_output@@QEAAPEA_WXZ 0000000140014530 f i libucrtd:output.obj
 0001:00013580       ??$ensure_buffer_is_big_enough@D@formatting_buffer@__crt_stdio_output@@QEAA_N_KAEAV__crt_cached_ptd_host@@@Z 0000000140014580 f i libucrtd:output.obj
 0001:000136c0       ??$ensure_buffer_is_big_enough@_W@formatting_buffer@__crt_stdio_output@@QEAA_N_KAEAV__crt_cached_ptd_host@@@Z 00000001400146c0 f i libucrtd:output.obj
 0001:00013800       ??$extract_argument_from_va_list@C_J@?$standard_base@DV?$string_output_adapter@D@__crt_stdio_output@@@__crt_stdio_output@@IEAA_NAEA_J@Z 0000000140014800 f i libucrtd:output.obj
 0001:00013800       ??$extract_argument_from_va_list@C_J@?$standard_base@_WV?$string_output_adapter@_W@__crt_stdio_output@@@__crt_stdio_output@@IEAA_NAEA_J@Z 0000000140014800 f i libucrtd:output.obj
 0001:00013840       ??$extract_argument_from_va_list@E_J@?$standard_base@DV?$string_output_adapter@D@__crt_stdio_output@@@__crt_stdio_output@@IEAA_NAEA_J@Z 0000000140014840 f i libucrtd:output.obj
 0001:00013840       ??$extract_argument_from_va_list@E_J@?$standard_base@_WV?$string_output_adapter@_W@__crt_stdio_output@@@__crt_stdio_output@@IEAA_NAEA_J@Z 0000000140014840 f i libucrtd:output.obj
 0001:00013880       ??$extract_argument_from_va_list@F_J@?$standard_base@DV?$string_output_adapter@D@__crt_stdio_output@@@__crt_stdio_output@@IEAA_NAEA_J@Z 0000000140014880 f i libucrtd:output.obj
 0001:00013880       ??$extract_argument_from_va_list@F_J@?$standard_base@_WV?$string_output_adapter@_W@__crt_stdio_output@@@__crt_stdio_output@@IEAA_NAEA_J@Z 0000000140014880 f i libucrtd:output.obj
 0001:000138c0       ??$extract_argument_from_va_list@GD@?$standard_base@DV?$string_output_adapter@D@__crt_stdio_output@@@__crt_stdio_output@@IEAA_NAEAD@Z 00000001400148c0 f i libucrtd:output.obj
 0001:000138f0       ??$extract_argument_from_va_list@G_J@?$standard_base@DV?$string_output_adapter@D@__crt_stdio_output@@@__crt_stdio_output@@IEAA_NAEA_J@Z 00000001400148f0 f i libucrtd:output.obj
 0001:000138f0       ??$extract_argument_from_va_list@G_J@?$standard_base@_WV?$string_output_adapter@_W@__crt_stdio_output@@@__crt_stdio_output@@IEAA_NAEA_J@Z 00000001400148f0 f i libucrtd:output.obj
 0001:00013930       ??$extract_argument_from_va_list@H_J@?$standard_base@DV?$string_output_adapter@D@__crt_stdio_output@@@__crt_stdio_output@@IEAA_NAEA_J@Z 0000000140014930 f i libucrtd:output.obj
 0001:00013930       ??$extract_argument_from_va_list@H_J@?$standard_base@_WV?$string_output_adapter@_W@__crt_stdio_output@@@__crt_stdio_output@@IEAA_NAEA_J@Z 0000000140014930 f i libucrtd:output.obj
 0001:00013960       ??$extract_argument_from_va_list@I_J@?$standard_base@DV?$string_output_adapter@D@__crt_stdio_output@@@__crt_stdio_output@@IEAA_NAEA_J@Z 0000000140014960 f i libucrtd:output.obj
 0001:00013960       ??$extract_argument_from_va_list@I_J@?$standard_base@_WV?$string_output_adapter@_W@__crt_stdio_output@@@__crt_stdio_output@@IEAA_NAEA_J@Z 0000000140014960 f i libucrtd:output.obj
 0001:00013990       ??$extract_argument_from_va_list@PEADPEAD@?$standard_base@DV?$string_output_adapter@D@__crt_stdio_output@@@__crt_stdio_output@@IEAA_NAEAPEAD@Z 0000000140014990 f i libucrtd:output.obj
 0001:00013990       ??$extract_argument_from_va_list@PEADPEAD@?$standard_base@_WV?$string_output_adapter@_W@__crt_stdio_output@@@__crt_stdio_output@@IEAA_NAEAPEAD@Z 0000000140014990 f i libucrtd:output.obj
 0001:00013990       ??$extract_argument_from_va_list@PEAUansi_string@?1??type_case_Z@?$output_processor@DV?$string_output_adapter@D@__crt_stdio_output@@V?$format_validation_base@DV?$string_output_adapter@D@__crt_stdio_output@@@2@@__crt_stdio_output@@AEAA_NXZ@PEAU1?1??234@AEAA_NXZ@@?$standard_base@DV?$string_output_adapter@D@__crt_stdio_output@@@__crt_stdio_output@@IEAA_NAEAPEAUansi_string@?1??type_case_Z@?$output_processor@DV?$string_output_adapter@D@__crt_stdio_output@@V?$format_validation_base@DV?$string_output_adapter@D@__crt_stdio_output@@@2@@1@AEAA_NXZ@@Z 0000000140014990 f i libucrtd:output.obj
 0001:00013990       ??$extract_argument_from_va_list@PEAUansi_string@?1??type_case_Z@?$output_processor@_WV?$string_output_adapter@_W@__crt_stdio_output@@V?$format_validation_base@_WV?$string_output_adapter@_W@__crt_stdio_output@@@2@@__crt_stdio_output@@AEAA_NXZ@PEAU1?1??234@AEAA_NXZ@@?$standard_base@_WV?$string_output_adapter@_W@__crt_stdio_output@@@__crt_stdio_output@@IEAA_NAEAPEAUansi_string@?1??type_case_Z@?$output_processor@_WV?$string_output_adapter@_W@__crt_stdio_output@@V?$format_validation_base@_WV?$string_output_adapter@_W@__crt_stdio_output@@@2@@1@AEAA_NXZ@@Z 0000000140014990 f i libucrtd:output.obj
 0001:00013990       ??$extract_argument_from_va_list@PEAXPEAX@?$standard_base@DV?$string_output_adapter@D@__crt_stdio_output@@@__crt_stdio_output@@IEAA_NAEAPEAX@Z 0000000140014990 f i libucrtd:output.obj
 0001:00013990       ??$extract_argument_from_va_list@PEAXPEAX@?$standard_base@_WV?$string_output_adapter@_W@__crt_stdio_output@@@__crt_stdio_output@@IEAA_NAEAPEAX@Z 0000000140014990 f i libucrtd:output.obj
 0001:00013990       ??$extract_argument_from_va_list@_J_J@?$standard_base@DV?$string_output_adapter@D@__crt_stdio_output@@@__crt_stdio_output@@IEAA_NAEA_J@Z 0000000140014990 f i libucrtd:output.obj
 0001:00013990       ??$extract_argument_from_va_list@_J_J@?$standard_base@_WV?$string_output_adapter@_W@__crt_stdio_output@@@__crt_stdio_output@@IEAA_NAEA_J@Z 0000000140014990 f i libucrtd:output.obj
 0001:00013990       ??$extract_argument_from_va_list@_K_J@?$standard_base@DV?$string_output_adapter@D@__crt_stdio_output@@@__crt_stdio_output@@IEAA_NAEA_J@Z 0000000140014990 f i libucrtd:output.obj
 0001:00013990       ??$extract_argument_from_va_list@_K_J@?$standard_base@_WV?$string_output_adapter@_W@__crt_stdio_output@@@__crt_stdio_output@@IEAA_NAEA_J@Z 0000000140014990 f i libucrtd:output.obj
 0001:000139c0       ??$extract_argument_from_va_list@U_CRT_DOUBLE@@U1@@?$standard_base@DV?$string_output_adapter@D@__crt_stdio_output@@@__crt_stdio_output@@IEAA_NAEAU_CRT_DOUBLE@@@Z 00000001400149c0 f i libucrtd:output.obj
 0001:000139c0       ??$extract_argument_from_va_list@U_CRT_DOUBLE@@U1@@?$standard_base@_WV?$string_output_adapter@_W@__crt_stdio_output@@@__crt_stdio_output@@IEAA_NAEAU_CRT_DOUBLE@@@Z 00000001400149c0 f i libucrtd:output.obj
 0001:00013a10       ??$extract_argument_from_va_list@_W_W@?$standard_base@DV?$string_output_adapter@D@__crt_stdio_output@@@__crt_stdio_output@@IEAA_NAEA_W@Z 0000000140014a10 f i libucrtd:output.obj
 0001:00013a10       ??$extract_argument_from_va_list@_W_W@?$standard_base@_WV?$string_output_adapter@_W@__crt_stdio_output@@@__crt_stdio_output@@IEAA_NAEA_W@Z 0000000140014a10 f i libucrtd:output.obj
 0001:00013a40       ??$is_overflow_condition@K@__crt_strtox@@YA_NIK@Z 0000000140014a40 f i libucrtd:output.obj
 0001:00013ab0       ??$is_wide_character_specifier@D@__crt_stdio_output@@YA_N_KDW4length_modifier@0@@Z 0000000140014ab0 f i libucrtd:output.obj
 0001:00013b50       ??$is_wide_character_specifier@_W@__crt_stdio_output@@YA_N_K_WW4length_modifier@0@@Z 0000000140014b50 f i libucrtd:output.obj
 0001:00013c20       ??$make_c_string_character_source@DPEAPEAD@__crt_strtox@@YA?AV?$c_string_character_source@D@0@QEBDQEAPEAD@Z 0000000140014c20 f i libucrtd:output.obj
 0001:00013c20       ??$make_c_string_character_source@_WPEAPEA_W@__crt_strtox@@YA?AV?$c_string_character_source@_W@0@QEB_WQEAPEA_W@Z 0000000140014c20 f i libucrtd:output.obj
 0001:00013c60       ??$parse_integer@KV?$c_string_character_source@D@__crt_strtox@@$0A@@__crt_strtox@@YAKAEAV__crt_cached_ptd_host@@V?$c_string_character_source@D@0@H_N@Z 0000000140014c60 f i libucrtd:output.obj
 0001:000140e0       ??$parse_integer@KV?$c_string_character_source@_W@__crt_strtox@@$0A@@__crt_strtox@@YAKAEAV__crt_cached_ptd_host@@V?$c_string_character_source@_W@0@H_N@Z 00000001400150e0 f i libucrtd:output.obj
 0001:00014560       ??$read_va_arg@C@__crt_stdio_output@@YACAEAPEAD@Z 0000000140015560 f i libucrtd:output.obj
 0001:00014560       ??$read_va_arg@E@__crt_stdio_output@@YAEAEAPEAD@Z 0000000140015560 f i libucrtd:output.obj
 0001:000145d0       ??$read_va_arg@F@__crt_stdio_output@@YAFAEAPEAD@Z 00000001400155d0 f i libucrtd:output.obj
 0001:000145d0       ??$read_va_arg@G@__crt_stdio_output@@YAGAEAPEAD@Z 00000001400155d0 f i libucrtd:output.obj
 0001:000145d0       ??$read_va_arg@_W@__crt_stdio_output@@YA_WAEAPEAD@Z 00000001400155d0 f i libucrtd:output.obj
 0001:00014640       ??$read_va_arg@H@__crt_stdio_output@@YAHAEAPEAD@Z 0000000140015640 f i libucrtd:output.obj
 0001:00014640       ??$read_va_arg@I@__crt_stdio_output@@YAIAEAPEAD@Z 0000000140015640 f i libucrtd:output.obj
 0001:000146a0       ??$read_va_arg@PEAD@__crt_stdio_output@@YAPEADAEAPEAD@Z 00000001400156a0 f i libucrtd:output.obj
 0001:000146a0       ??$read_va_arg@PEAUansi_string@?1??type_case_Z@?$output_processor@DV?$string_output_adapter@D@__crt_stdio_output@@V?$format_validation_base@DV?$string_output_adapter@D@__crt_stdio_output@@@2@@__crt_stdio_output@@AEAA_NXZ@@__crt_stdio_output@@YAPEAUansi_string@?1??type_case_Z@?$output_processor@DV?$string_output_adapter@D@__crt_stdio_output@@V?$format_validation_base@DV?$string_output_adapter@D@__crt_stdio_output@@@2@@0@AEAA_NXZ@AEAPEAD@Z 00000001400156a0 f i libucrtd:output.obj
 0001:000146a0       ??$read_va_arg@PEAUansi_string@?1??type_case_Z@?$output_processor@_WV?$string_output_adapter@_W@__crt_stdio_output@@V?$format_validation_base@_WV?$string_output_adapter@_W@__crt_stdio_output@@@2@@__crt_stdio_output@@AEAA_NXZ@@__crt_stdio_output@@YAPEAUansi_string@?1??type_case_Z@?$output_processor@_WV?$string_output_adapter@_W@__crt_stdio_output@@V?$format_validation_base@_WV?$string_output_adapter@_W@__crt_stdio_output@@@2@@0@AEAA_NXZ@AEAPEAD@Z 00000001400156a0 f i libucrtd:output.obj
 0001:000146a0       ??$read_va_arg@PEAX@__crt_stdio_output@@YAPEAXAEAPEAD@Z 00000001400156a0 f i libucrtd:output.obj
 0001:000146a0       ??$read_va_arg@U_CRT_DOUBLE@@@__crt_stdio_output@@YA?AU_CRT_DOUBLE@@AEAPEAD@Z 00000001400156a0 f i libucrtd:output.obj
 0001:000146a0       ??$read_va_arg@_J@__crt_stdio_output@@YA_JAEAPEAD@Z 00000001400156a0 f i libucrtd:output.obj
 0001:000146a0       ??$read_va_arg@_K@__crt_stdio_output@@YA_KAEAPEAD@Z 00000001400156a0 f i libucrtd:output.obj
 0001:00014710       ??$scratch_count@D@formatting_buffer@__crt_stdio_output@@QEBA_KXZ 0000000140015710 f i libucrtd:output.obj
 0001:00014730       ??$scratch_data@D@formatting_buffer@__crt_stdio_output@@QEAAPEADXZ 0000000140015730 f i libucrtd:output.obj
 0001:000147a0       ??$type_case_integer@$07@?$output_processor@DV?$string_output_adapter@D@__crt_stdio_output@@V?$format_validation_base@DV?$string_output_adapter@D@__crt_stdio_output@@@2@@__crt_stdio_output@@AEAA_N_N@Z 00000001400157a0 f i libucrtd:output.obj
 0001:00014c20       ??$type_case_integer@$07@?$output_processor@_WV?$string_output_adapter@_W@__crt_stdio_output@@V?$format_validation_base@_WV?$string_output_adapter@_W@__crt_stdio_output@@@2@@__crt_stdio_output@@AEAA_N_N@Z 0000000140015c20 f i libucrtd:output.obj
 0001:000150a0       ??$type_case_integer@$09@?$output_processor@DV?$string_output_adapter@D@__crt_stdio_output@@V?$format_validation_base@DV?$string_output_adapter@D@__crt_stdio_output@@@2@@__crt_stdio_output@@AEAA_N_N@Z 00000001400160a0 f i libucrtd:output.obj
 0001:00015520       ??$type_case_integer@$09@?$output_processor@_WV?$string_output_adapter@_W@__crt_stdio_output@@V?$format_validation_base@_WV?$string_output_adapter@_W@__crt_stdio_output@@@2@@__crt_stdio_output@@AEAA_N_N@Z 0000000140016520 f i libucrtd:output.obj
 0001:000159a0       ??$type_case_integer@$0BA@@?$output_processor@DV?$string_output_adapter@D@__crt_stdio_output@@V?$format_validation_base@DV?$string_output_adapter@D@__crt_stdio_output@@@2@@__crt_stdio_output@@AEAA_N_N@Z 00000001400169a0 f i libucrtd:output.obj
 0001:00015e20       ??$type_case_integer@$0BA@@?$output_processor@_WV?$string_output_adapter@_W@__crt_stdio_output@@V?$format_validation_base@_WV?$string_output_adapter@_W@__crt_stdio_output@@@2@@__crt_stdio_output@@AEAA_N_N@Z 0000000140016e20 f i libucrtd:output.obj
 0001:000162a0       ??$type_case_integer_parse_into_buffer@I$07@?$output_processor@DV?$string_output_adapter@D@__crt_stdio_output@@V?$format_validation_base@DV?$string_output_adapter@D@__crt_stdio_output@@@2@@__crt_stdio_output@@AEAAXI_N@Z 00000001400172a0 f i libucrtd:output.obj
 0001:000163d0       ??$type_case_integer_parse_into_buffer@I$07@?$output_processor@_WV?$string_output_adapter@_W@__crt_stdio_output@@V?$format_validation_base@_WV?$string_output_adapter@_W@__crt_stdio_output@@@2@@__crt_stdio_output@@AEAAXI_N@Z 00000001400173d0 f i libucrtd:output.obj
 0001:00016510       ??$type_case_integer_parse_into_buffer@I$09@?$output_processor@DV?$string_output_adapter@D@__crt_stdio_output@@V?$format_validation_base@DV?$string_output_adapter@D@__crt_stdio_output@@@2@@__crt_stdio_output@@AEAAXI_N@Z 0000000140017510 f i libucrtd:output.obj
 0001:00016640       ??$type_case_integer_parse_into_buffer@I$09@?$output_processor@_WV?$string_output_adapter@_W@__crt_stdio_output@@V?$format_validation_base@_WV?$string_output_adapter@_W@__crt_stdio_output@@@2@@__crt_stdio_output@@AEAAXI_N@Z 0000000140017640 f i libucrtd:output.obj
 0001:00016780       ??$type_case_integer_parse_into_buffer@I$0BA@@?$output_processor@DV?$string_output_adapter@D@__crt_stdio_output@@V?$format_validation_base@DV?$string_output_adapter@D@__crt_stdio_output@@@2@@__crt_stdio_output@@AEAAXI_N@Z 0000000140017780 f i libucrtd:output.obj
 0001:000168b0       ??$type_case_integer_parse_into_buffer@I$0BA@@?$output_processor@_WV?$string_output_adapter@_W@__crt_stdio_output@@V?$format_validation_base@_WV?$string_output_adapter@_W@__crt_stdio_output@@@2@@__crt_stdio_output@@AEAAXI_N@Z 00000001400178b0 f i libucrtd:output.obj
 0001:000169f0       ??$type_case_integer_parse_into_buffer@_K$07@?$output_processor@DV?$string_output_adapter@D@__crt_stdio_output@@V?$format_validation_base@DV?$string_output_adapter@D@__crt_stdio_output@@@2@@__crt_stdio_output@@AEAAX_K_N@Z 00000001400179f0 f i libucrtd:output.obj
 0001:00016b30       ??$type_case_integer_parse_into_buffer@_K$07@?$output_processor@_WV?$string_output_adapter@_W@__crt_stdio_output@@V?$format_validation_base@_WV?$string_output_adapter@_W@__crt_stdio_output@@@2@@__crt_stdio_output@@AEAAX_K_N@Z 0000000140017b30 f i libucrtd:output.obj
 0001:00016c70       ??$type_case_integer_parse_into_buffer@_K$09@?$output_processor@DV?$string_output_adapter@D@__crt_stdio_output@@V?$format_validation_base@DV?$string_output_adapter@D@__crt_stdio_output@@@2@@__crt_stdio_output@@AEAAX_K_N@Z 0000000140017c70 f i libucrtd:output.obj
 0001:00016db0       ??$type_case_integer_parse_into_buffer@_K$09@?$output_processor@_WV?$string_output_adapter@_W@__crt_stdio_output@@V?$format_validation_base@_WV?$string_output_adapter@_W@__crt_stdio_output@@@2@@__crt_stdio_output@@AEAAX_K_N@Z 0000000140017db0 f i libucrtd:output.obj
 0001:00016ef0       ??$type_case_integer_parse_into_buffer@_K$0BA@@?$output_processor@DV?$string_output_adapter@D@__crt_stdio_output@@V?$format_validation_base@DV?$string_output_adapter@D@__crt_stdio_output@@@2@@__crt_stdio_output@@AEAAX_K_N@Z 0000000140017ef0 f i libucrtd:output.obj
 0001:00017030       ??$type_case_integer_parse_into_buffer@_K$0BA@@?$output_processor@_WV?$string_output_adapter@_W@__crt_stdio_output@@V?$format_validation_base@_WV?$string_output_adapter@_W@__crt_stdio_output@@@2@@__crt_stdio_output@@AEAAX_K_N@Z 0000000140018030 f i libucrtd:output.obj
 0001:00017170       ??$write_multiple_characters@V?$string_output_adapter@D@__crt_stdio_output@@D@__crt_stdio_output@@YAXAEBV?$string_output_adapter@D@0@DHQEAHAEAV__crt_cached_ptd_host@@@Z 0000000140018170 f i libucrtd:output.obj
 0001:000171e0       ??$write_multiple_characters@V?$string_output_adapter@_W@__crt_stdio_output@@D@__crt_stdio_output@@YAXAEBV?$string_output_adapter@_W@0@DHQEAHAEAV__crt_cached_ptd_host@@@Z 00000001400181e0 f i libucrtd:output.obj
 0001:00017250       ??0?$c_string_character_source@D@__crt_strtox@@QEAA@QEBDQEAPEBD@Z 0000000140018250 f i libucrtd:output.obj
 0001:00017250       ??0?$c_string_character_source@_W@__crt_strtox@@QEAA@QEB_WQEAPEB_W@Z 0000000140018250 f i libucrtd:output.obj
 0001:000172a0       ??0?$common_data@D@__crt_stdio_output@@IEAA@AEAV__crt_cached_ptd_host@@@Z 00000001400182a0 f i libucrtd:output.obj
 0001:00017360       ??0?$common_data@_W@__crt_stdio_output@@IEAA@AEAV__crt_cached_ptd_host@@@Z 0000000140018360 f i libucrtd:output.obj
 0001:00017420       ??0?$output_adapter_data@DV?$string_output_adapter@D@__crt_stdio_output@@@__crt_stdio_output@@IEAA@AEBV?$string_output_adapter@D@1@_KQEBDAEAV__crt_cached_ptd_host@@QEAD@Z 0000000140018420 f i libucrtd:output.obj
 0001:000174a0       ??0?$output_adapter_data@_WV?$string_output_adapter@_W@__crt_stdio_output@@@__crt_stdio_output@@IEAA@AEBV?$string_output_adapter@_W@1@_KQEB_WAEAV__crt_cached_ptd_host@@QEAD@Z 00000001400184a0 f i libucrtd:output.obj
 0001:00017520       ??0?$output_processor@DV?$string_output_adapter@D@__crt_stdio_output@@V?$format_validation_base@DV?$string_output_adapter@D@__crt_stdio_output@@@2@@__crt_stdio_output@@QEAA@AEBV?$string_output_adapter@D@1@_KQEBDAEAV__crt_cached_ptd_host@@QEAD@Z 0000000140018520 f i libucrtd:output.obj
 0001:00017570       ??0?$output_processor@_WV?$string_output_adapter@_W@__crt_stdio_output@@V?$format_validation_base@_WV?$string_output_adapter@_W@__crt_stdio_output@@@2@@__crt_stdio_output@@QEAA@AEBV?$string_output_adapter@_W@1@_KQEB_WAEAV__crt_cached_ptd_host@@QEAD@Z 0000000140018570 f i libucrtd:output.obj
 0001:000175c0       ??0formatting_buffer@__crt_stdio_output@@QEAA@XZ 00000001400185c0 f i libucrtd:output.obj
 0001:00017600       ??0guard@?$cached@H@__crt_cached_ptd_host@@QEAA@AEAU12@@Z 0000000140018600 f i libucrtd:output.obj
 0001:00017640       ??1?$c_string_character_source@D@__crt_strtox@@QEAA@XZ 0000000140018640 f i libucrtd:output.obj
 0001:00017640       ??1?$c_string_character_source@_W@__crt_strtox@@QEAA@XZ 0000000140018640 f i libucrtd:output.obj
 0001:00017670       ??1?$common_data@D@__crt_stdio_output@@QEAA@XZ 0000000140018670 f i libucrtd:output.obj
 0001:00017670       ??1?$common_data@_W@__crt_stdio_output@@QEAA@XZ 0000000140018670 f i libucrtd:output.obj
 0001:00017690       ??1?$format_validation_base@DV?$string_output_adapter@D@__crt_stdio_output@@@__crt_stdio_output@@QEAA@XZ 0000000140018690 f i libucrtd:output.obj
 0001:00017690       ??1?$format_validation_base@_WV?$string_output_adapter@_W@__crt_stdio_output@@@__crt_stdio_output@@QEAA@XZ 0000000140018690 f i libucrtd:output.obj
 0001:000176b0       ??1?$output_adapter_data@DV?$string_output_adapter@D@__crt_stdio_output@@@__crt_stdio_output@@QEAA@XZ 00000001400186b0 f i libucrtd:output.obj
 0001:000176b0       ??1?$output_adapter_data@_WV?$string_output_adapter@_W@__crt_stdio_output@@@__crt_stdio_output@@QEAA@XZ 00000001400186b0 f i libucrtd:output.obj
 0001:000176d0       ??1?$output_processor@DV?$string_output_adapter@D@__crt_stdio_output@@V?$format_validation_base@DV?$string_output_adapter@D@__crt_stdio_output@@@2@@__crt_stdio_output@@QEAA@XZ 00000001400186d0 f i libucrtd:output.obj
 0001:000176d0       ??1?$output_processor@_WV?$string_output_adapter@_W@__crt_stdio_output@@V?$format_validation_base@_WV?$string_output_adapter@_W@__crt_stdio_output@@@2@@__crt_stdio_output@@QEAA@XZ 00000001400186d0 f i libucrtd:output.obj
 0001:000176f0       ??1?$standard_base@DV?$string_output_adapter@D@__crt_stdio_output@@@__crt_stdio_output@@QEAA@XZ 00000001400186f0 f i libucrtd:output.obj
 0001:000176f0       ??1?$standard_base@_WV?$string_output_adapter@_W@__crt_stdio_output@@@__crt_stdio_output@@QEAA@XZ 00000001400186f0 f i libucrtd:output.obj
 0001:00017710       ??1formatting_buffer@__crt_stdio_output@@QEAA@XZ 0000000140018710 f i libucrtd:output.obj
 0001:00017740       ??1guard@?$cached@H@__crt_cached_ptd_host@@QEAA@XZ 0000000140018740 f i libucrtd:output.obj
 0001:00017770       ??4?$__crt_unique_heap_ptr@DU__crt_internal_free_policy@@@@QEAAAEAV0@$$QEAV0@@Z 0000000140018770 f i libucrtd:output.obj
 0001:000177b0       ??A?$spectre_mitigated_lookup_table@Ustate_transition_pair@__crt_stdio_output@@$0IA@@__crt_stdio_output@@QEBAAEBUstate_transition_pair@1@_K@Z 00000001400187b0 f i libucrtd:output.obj
 0001:000177d0       ?adjust_hexit@?$output_processor@DV?$string_output_adapter@D@__crt_stdio_output@@V?$format_validation_base@DV?$string_output_adapter@D@__crt_stdio_output@@@2@@__crt_stdio_output@@CADH_N@Z 00000001400187d0 f i libucrtd:output.obj
 0001:000177d0       ?adjust_hexit@?$output_processor@_WV?$string_output_adapter@_W@__crt_stdio_output@@V?$format_validation_base@_WV?$string_output_adapter@_W@__crt_stdio_output@@@2@@__crt_stdio_output@@CADH_N@Z 00000001400187d0 f i libucrtd:output.obj
 0001:00017820       ?advance_to_next_pass@?$standard_base@DV?$string_output_adapter@D@__crt_stdio_output@@@__crt_stdio_output@@IEAA_NXZ 0000000140018820 f i libucrtd:output.obj
 0001:00017820       ?advance_to_next_pass@?$standard_base@_WV?$string_output_adapter@_W@__crt_stdio_output@@@__crt_stdio_output@@IEAA_NXZ 0000000140018820 f i libucrtd:output.obj
 0001:00017870       ?check@?$cached@H@__crt_cached_ptd_host@@QEBA_NH@Z 0000000140018870 f i libucrtd:output.obj
 0001:000178b0       ?create_guard@?$cached@H@__crt_cached_ptd_host@@QEAA?AVguard@12@XZ 00000001400188b0 f i libucrtd:output.obj
 0001:000178e0       ?crop_zeroes@__crt_stdio_output@@YAXPEADQEAU__crt_locale_pointers@@@Z 00000001400188e0 f i libucrtd:output.obj
 0001:00017a30       ?disable@guard@?$cached@H@__crt_cached_ptd_host@@QEAAXXZ 0000000140018a30 f i libucrtd:output.obj
 0001:00017a40       ?enable@guard@?$cached@H@__crt_cached_ptd_host@@QEAAXXZ 0000000140018a40 f i libucrtd:output.obj
 0001:00017a50       ?find_next_state@?$output_processor@DV?$string_output_adapter@D@__crt_stdio_output@@V?$format_validation_base@DV?$string_output_adapter@D@__crt_stdio_output@@@2@@__crt_stdio_output@@AEBA?AW4state@2@DW432@@Z 0000000140018a50 f i libucrtd:output.obj
 0001:00017af0       ?find_next_state@?$output_processor@_WV?$string_output_adapter@_W@__crt_stdio_output@@V?$format_validation_base@_WV?$string_output_adapter@_W@__crt_stdio_output@@@2@@__crt_stdio_output@@AEBA?AW4state@2@_WW432@@Z 0000000140018af0 f i libucrtd:output.obj
 0001:00017b90       ?force_decimal_point@__crt_stdio_output@@YAXPEADQEAU__crt_locale_pointers@@@Z 0000000140018b90 f i libucrtd:output.obj
 0001:00017c90       ?get@?$c_string_character_source@D@__crt_strtox@@QEAADXZ 0000000140018c90 f i libucrtd:output.obj
 0001:00017cd0       ?get@?$c_string_character_source@_W@__crt_strtox@@QEAA_WXZ 0000000140018cd0 f i libucrtd:output.obj
 0001:00017d10       ?get_errno@__crt_cached_ptd_host@@QEAA@XZ 0000000140018d10 f i libucrtd:output.obj
 0001:00017d20       ?get_flags@__crt_stdio_stream@@QEBAJXZ 0000000140018d20 f i libucrtd:output.obj
 0001:00017d50       ?get_locale@__crt_cached_ptd_host@@QEAAPEAU__crt_locale_pointers@@XZ 0000000140018d50 f i libucrtd:output.obj
 0001:00017d80       ?has_flag@?$output_processor@DV?$string_output_adapter@D@__crt_stdio_output@@V?$format_validation_base@DV?$string_output_adapter@D@__crt_stdio_output@@@2@@__crt_stdio_output@@AEBA_NI@Z 0000000140018d80 f i libucrtd:output.obj
 0001:00017d80       ?has_flag@?$output_processor@_WV?$string_output_adapter@_W@__crt_stdio_output@@V?$format_validation_base@_WV?$string_output_adapter@_W@__crt_stdio_output@@@2@@__crt_stdio_output@@AEBA_NI@Z 0000000140018d80 f i libucrtd:output.obj
 0001:00017dc0       ?is_string_backed@__crt_stdio_stream@@QEBA_NXZ 0000000140018dc0 f i libucrtd:output.obj
 0001:00017e00       ?maximum_signed_value@__crt_strtox@@YAJK@Z 0000000140018e00 f i libucrtd:output.obj
 0001:00017e10       ?minimum_signed_value@__crt_strtox@@YAJK@Z 0000000140018e10 f i libucrtd:output.obj
 0001:00017e20       ?narrow_null_string@?$output_processor@DV?$string_output_adapter@D@__crt_stdio_output@@V?$format_validation_base@DV?$string_output_adapter@D@__crt_stdio_output@@@2@@__crt_stdio_output@@CAPEADXZ 0000000140018e20 f i libucrtd:output.obj
 0001:00017e20       ?narrow_null_string@?$output_processor@_WV?$string_output_adapter@_W@__crt_stdio_output@@V?$format_validation_base@_WV?$string_output_adapter@_W@__crt_stdio_output@@@2@@__crt_stdio_output@@CAPEADXZ 0000000140018e20 f i libucrtd:output.obj
 0001:00017e30       ?parse_digit@__crt_strtox@@YAID@Z 0000000140018e30 f i libucrtd:output.obj
 0001:00017ea0       ?parse_digit@__crt_strtox@@YAI_W@Z 0000000140018ea0 f i libucrtd:output.obj
 0001:00017ef0       ?parse_int_from_format_string@?$output_processor@DV?$string_output_adapter@D@__crt_stdio_output@@V?$format_validation_base@DV?$string_output_adapter@D@__crt_stdio_output@@@2@@__crt_stdio_output@@AEAA_NQEAH@Z 0000000140018ef0 f i libucrtd:output.obj
 0001:00017ff0       ?parse_int_from_format_string@?$output_processor@_WV?$string_output_adapter@_W@__crt_stdio_output@@V?$format_validation_base@_WV?$string_output_adapter@_W@__crt_stdio_output@@@2@@__crt_stdio_output@@AEAA_NQEAH@Z 0000000140018ff0 f i libucrtd:output.obj
 0001:000180f0       ?process@?$output_processor@DV?$string_output_adapter@D@__crt_stdio_output@@V?$format_validation_base@DV?$string_output_adapter@D@__crt_stdio_output@@@2@@__crt_stdio_output@@QEAAHXZ 00000001400190f0 f i libucrtd:output.obj
 0001:000184b0       ?process@?$output_processor@_WV?$string_output_adapter@_W@__crt_stdio_output@@V?$format_validation_base@_WV?$string_output_adapter@_W@__crt_stdio_output@@@2@@__crt_stdio_output@@QEAAHXZ 00000001400194b0 f i libucrtd:output.obj
 0001:00018870       ?restore_state@?$c_string_character_source@D@__crt_strtox@@QEAA_NQEBD@Z 0000000140019870 f i libucrtd:output.obj
 0001:00018870       ?restore_state@?$c_string_character_source@_W@__crt_strtox@@QEAA_NQEB_W@Z 0000000140019870 f i libucrtd:output.obj
 0001:00018890       ?set@?$cached@H@__crt_cached_ptd_host@@QEAAHH@Z 0000000140019890 f i libucrtd:output.obj
 0001:00018890       ?set@?$cached@K@__crt_cached_ptd_host@@QEAAKK@Z 0000000140019890 f i libucrtd:errno.obj
 0001:000188c0       ?set_flag@?$output_processor@DV?$string_output_adapter@D@__crt_stdio_output@@V?$format_validation_base@DV?$string_output_adapter@D@__crt_stdio_output@@@2@@__crt_stdio_output@@AEAAXI@Z 00000001400198c0 f i libucrtd:output.obj
 0001:000188c0       ?set_flag@?$output_processor@_WV?$string_output_adapter@_W@__crt_stdio_output@@V?$format_validation_base@_WV?$string_output_adapter@_W@__crt_stdio_output@@@2@@__crt_stdio_output@@AEAAXI@Z 00000001400198c0 f i libucrtd:output.obj
 0001:000188e0       ?should_format@?$standard_base@DV?$string_output_adapter@D@__crt_stdio_output@@@__crt_stdio_output@@IEAA_NXZ 00000001400198e0 f i libucrtd:output.obj
 0001:000188e0       ?should_format@?$standard_base@_WV?$string_output_adapter@_W@__crt_stdio_output@@@__crt_stdio_output@@IEAA_NXZ 00000001400198e0 f i libucrtd:output.obj
 0001:000188e0       ?validate_and_update_state_at_beginning_of_format_character@?$standard_base@DV?$string_output_adapter@D@__crt_stdio_output@@@__crt_stdio_output@@IEAA_NXZ 00000001400198e0 f i libucrtd:output.obj
 0001:000188e0       ?validate_and_update_state_at_beginning_of_format_character@?$standard_base@_WV?$string_output_adapter@_W@__crt_stdio_output@@@__crt_stdio_output@@IEAA_NXZ 00000001400198e0 f i libucrtd:output.obj
 0001:000188e0       ?validate_state_for_type_case_a@?$standard_base@DV?$string_output_adapter@D@__crt_stdio_output@@@__crt_stdio_output@@IEBA_NXZ 00000001400198e0 f i libucrtd:output.obj
 0001:000188e0       ?validate_state_for_type_case_a@?$standard_base@_WV?$string_output_adapter@_W@__crt_stdio_output@@@__crt_stdio_output@@IEBA_NXZ 00000001400198e0 f i libucrtd:output.obj
 0001:000188f0       ?should_skip_normal_state_processing@?$standard_base@DV?$string_output_adapter@D@__crt_stdio_output@@@__crt_stdio_output@@IEAA_NXZ 00000001400198f0 f i libucrtd:output.obj
 0001:000188f0       ?should_skip_normal_state_processing@?$standard_base@_WV?$string_output_adapter@_W@__crt_stdio_output@@@__crt_stdio_output@@IEAA_NXZ 00000001400198f0 f i libucrtd:output.obj
 0001:000188f0       ?should_skip_type_state_output@?$standard_base@DV?$string_output_adapter@D@__crt_stdio_output@@@__crt_stdio_output@@IEBA_NXZ 00000001400198f0 f i libucrtd:output.obj
 0001:000188f0       ?should_skip_type_state_output@?$standard_base@_WV?$string_output_adapter@_W@__crt_stdio_output@@@__crt_stdio_output@@IEBA_NXZ 00000001400198f0 f i libucrtd:output.obj
 0001:00018900       ?state_case_dot@?$output_processor@DV?$string_output_adapter@D@__crt_stdio_output@@V?$format_validation_base@DV?$string_output_adapter@D@__crt_stdio_output@@@2@@__crt_stdio_output@@AEAA_NXZ 0000000140019900 f i libucrtd:output.obj
 0001:00018900       ?state_case_dot@?$output_processor@_WV?$string_output_adapter@_W@__crt_stdio_output@@V?$format_validation_base@_WV?$string_output_adapter@_W@__crt_stdio_output@@@2@@__crt_stdio_output@@AEAA_NXZ 0000000140019900 f i libucrtd:output.obj
 0001:00018920       ?state_case_flag@?$output_processor@DV?$string_output_adapter@D@__crt_stdio_output@@V?$format_validation_base@DV?$string_output_adapter@D@__crt_stdio_output@@@2@@__crt_stdio_output@@AEAA_NXZ 0000000140019920 f i libucrtd:output.obj
 0001:000189c0       ?state_case_flag@?$output_processor@_WV?$string_output_adapter@_W@__crt_stdio_output@@V?$format_validation_base@_WV?$string_output_adapter@_W@__crt_stdio_output@@@2@@__crt_stdio_output@@AEAA_NXZ 00000001400199c0 f i libucrtd:output.obj
 0001:00018a60       ?state_case_normal@?$output_processor@DV?$string_output_adapter@D@__crt_stdio_output@@V?$format_validation_base@DV?$string_output_adapter@D@__crt_stdio_output@@@2@@__crt_stdio_output@@AEAA_NXZ 0000000140019a60 f i libucrtd:output.obj
 0001:00018b60       ?state_case_normal@?$output_processor@_WV?$string_output_adapter@_W@__crt_stdio_output@@V?$format_validation_base@_WV?$string_output_adapter@_W@__crt_stdio_output@@@2@@__crt_stdio_output@@AEAA_NXZ 0000000140019b60 f i libucrtd:output.obj
 0001:00018c60       ?state_case_normal_common@?$output_processor@DV?$string_output_adapter@D@__crt_stdio_output@@V?$format_validation_base@DV?$string_output_adapter@D@__crt_stdio_output@@@2@@__crt_stdio_output@@AEAA_NXZ 0000000140019c60 f i libucrtd:output.obj
 0001:00018cc0       ?state_case_normal_common@?$output_processor@_WV?$string_output_adapter@_W@__crt_stdio_output@@V?$format_validation_base@_WV?$string_output_adapter@_W@__crt_stdio_output@@@2@@__crt_stdio_output@@AEAA_NXZ 0000000140019cc0 f i libucrtd:output.obj
 0001:00018d20       ?state_case_normal_tchar@?$output_processor@DV?$string_output_adapter@D@__crt_stdio_output@@V?$format_validation_base@DV?$string_output_adapter@D@__crt_stdio_output@@@2@@__crt_stdio_output@@AEAA_ND@Z 0000000140019d20 f i libucrtd:output.obj
 0001:00018eb0       ?state_case_normal_tchar@?$output_processor@_WV?$string_output_adapter@_W@__crt_stdio_output@@V?$format_validation_base@_WV?$string_output_adapter@_W@__crt_stdio_output@@@2@@__crt_stdio_output@@AEAA_N_W@Z 0000000140019eb0 f i libucrtd:output.obj
 0001:00018ed0       ?state_case_percent@?$output_processor@DV?$string_output_adapter@D@__crt_stdio_output@@V?$format_validation_base@DV?$string_output_adapter@D@__crt_stdio_output@@@2@@__crt_stdio_output@@AEAA_NXZ 0000000140019ed0 f i libucrtd:output.obj
 0001:00018ed0       ?state_case_percent@?$output_processor@_WV?$string_output_adapter@_W@__crt_stdio_output@@V?$format_validation_base@_WV?$string_output_adapter@_W@__crt_stdio_output@@@2@@__crt_stdio_output@@AEAA_NXZ 0000000140019ed0 f i libucrtd:output.obj
 0001:00018f20       ?state_case_precision@?$output_processor@DV?$string_output_adapter@D@__crt_stdio_output@@V?$format_validation_base@DV?$string_output_adapter@D@__crt_stdio_output@@@2@@__crt_stdio_output@@AEAA_NXZ 0000000140019f20 f i libucrtd:output.obj
 0001:00018fa0       ?state_case_precision@?$output_processor@_WV?$string_output_adapter@_W@__crt_stdio_output@@V?$format_validation_base@_WV?$string_output_adapter@_W@__crt_stdio_output@@@2@@__crt_stdio_output@@AEAA_NXZ 0000000140019fa0 f i libucrtd:output.obj
 0001:00019020       ?state_case_size@?$output_processor@DV?$string_output_adapter@D@__crt_stdio_output@@V?$format_validation_base@DV?$string_output_adapter@D@__crt_stdio_output@@@2@@__crt_stdio_output@@AEAA_NXZ 000000014001a020 f i libucrtd:output.obj
 0001:000194e0       ?state_case_size@?$output_processor@_WV?$string_output_adapter@_W@__crt_stdio_output@@V?$format_validation_base@_WV?$string_output_adapter@_W@__crt_stdio_output@@@2@@__crt_stdio_output@@AEAA_NXZ 000000014001a4e0 f i libucrtd:output.obj
 0001:000199a0       ?state_case_type@?$output_processor@DV?$string_output_adapter@D@__crt_stdio_output@@V?$format_validation_base@DV?$string_output_adapter@D@__crt_stdio_output@@@2@@__crt_stdio_output@@AEAA_NXZ 000000014001a9a0 f i libucrtd:output.obj
 0001:00019e60       ?state_case_type@?$output_processor@_WV?$string_output_adapter@_W@__crt_stdio_output@@V?$format_validation_base@_WV?$string_output_adapter@_W@__crt_stdio_output@@@2@@__crt_stdio_output@@AEAA_NXZ 000000014001ae60 f i libucrtd:output.obj
 0001:0001a3f0       ?state_case_width@?$output_processor@DV?$string_output_adapter@D@__crt_stdio_output@@V?$format_validation_base@DV?$string_output_adapter@D@__crt_stdio_output@@@2@@__crt_stdio_output@@AEAA_NXZ 000000014001b3f0 f i libucrtd:output.obj
 0001:0001a480       ?state_case_width@?$output_processor@_WV?$string_output_adapter@_W@__crt_stdio_output@@V?$format_validation_base@_WV?$string_output_adapter@_W@__crt_stdio_output@@@2@@__crt_stdio_output@@AEAA_NXZ 000000014001b480 f i libucrtd:output.obj
 0001:0001a510       ?state_count@?$format_validation_base@DV?$string_output_adapter@D@__crt_stdio_output@@@__crt_stdio_output@@KAIXZ 000000014001b510 f i libucrtd:output.obj
 0001:0001a510       ?state_count@?$format_validation_base@_WV?$string_output_adapter@_W@__crt_stdio_output@@@__crt_stdio_output@@KAIXZ 000000014001b510 f i libucrtd:output.obj
 0001:0001a520       ?state_transition_table@?$format_validation_base@DV?$string_output_adapter@D@__crt_stdio_output@@@__crt_stdio_output@@KAAEBV?$spectre_mitigated_lookup_table@Ustate_transition_pair@__crt_stdio_output@@$0IA@@2@XZ 000000014001b520 f i libucrtd:output.obj
 0001:0001a520       ?state_transition_table@?$format_validation_base@_WV?$string_output_adapter@_W@__crt_stdio_output@@@__crt_stdio_output@@KAAEBV?$spectre_mitigated_lookup_table@Ustate_transition_pair@__crt_stdio_output@@$0IA@@2@XZ 000000014001b520 f i libucrtd:output.obj
 0001:0001a530       ?tchar_string@?$common_data@D@__crt_stdio_output@@IEAAAEAPEADD@Z 000000014001b530 f i libucrtd:output.obj
 0001:0001a550       ?tchar_string@?$common_data@D@__crt_stdio_output@@IEAAAEAPEADXZ 000000014001b550 f i libucrtd:output.obj
 0001:0001a570       ?tchar_string@?$common_data@_W@__crt_stdio_output@@IEAAAEAPEA_WXZ 000000014001b570 f i libucrtd:output.obj
 0001:0001a590       ?tchar_string@?$common_data@_W@__crt_stdio_output@@IEAAAEAPEA_W_W@Z 000000014001b590 f i libucrtd:output.obj
 0001:0001a5b0       ?to_integer_size@__crt_stdio_output@@YA_KW4length_modifier@1@@Z 000000014001b5b0 f i libucrtd:output.obj
 0001:0001a660       ?type_case_X@?$output_processor@DV?$string_output_adapter@D@__crt_stdio_output@@V?$format_validation_base@DV?$string_output_adapter@D@__crt_stdio_output@@@2@@__crt_stdio_output@@AEAA_NXZ 000000014001b660 f i libucrtd:output.obj
 0001:0001a680       ?type_case_X@?$output_processor@_WV?$string_output_adapter@_W@__crt_stdio_output@@V?$format_validation_base@_WV?$string_output_adapter@_W@__crt_stdio_output@@@2@@__crt_stdio_output@@AEAA_NXZ 000000014001b680 f i libucrtd:output.obj
 0001:0001a6a0       ?type_case_Z@?$output_processor@DV?$string_output_adapter@D@__crt_stdio_output@@V?$format_validation_base@DV?$string_output_adapter@D@__crt_stdio_output@@@2@@__crt_stdio_output@@AEAA_NXZ 000000014001b6a0 f i libucrtd:output.obj
 0001:0001a7c0       ?type_case_Z@?$output_processor@_WV?$string_output_adapter@_W@__crt_stdio_output@@V?$format_validation_base@_WV?$string_output_adapter@_W@__crt_stdio_output@@@2@@__crt_stdio_output@@AEAA_NXZ 000000014001b7c0 f i libucrtd:output.obj
 0001:0001a8e0       ?type_case_a@?$output_processor@DV?$string_output_adapter@D@__crt_stdio_output@@V?$format_validation_base@DV?$string_output_adapter@D@__crt_stdio_output@@@2@@__crt_stdio_output@@AEAA_NXZ 000000014001b8e0 f i libucrtd:output.obj
 0001:0001ad40       ?type_case_a@?$output_processor@_WV?$string_output_adapter@_W@__crt_stdio_output@@V?$format_validation_base@_WV?$string_output_adapter@_W@__crt_stdio_output@@@2@@__crt_stdio_output@@AEAA_NXZ 000000014001bd40 f i libucrtd:output.obj
 0001:0001b1b0       ?type_case_c@?$output_processor@DV?$string_output_adapter@D@__crt_stdio_output@@V?$format_validation_base@DV?$string_output_adapter@D@__crt_stdio_output@@@2@@__crt_stdio_output@@AEAA_NXZ 000000014001c1b0 f i libucrtd:output.obj
 0001:0001b1d0       ?type_case_c@?$output_processor@_WV?$string_output_adapter@_W@__crt_stdio_output@@V?$format_validation_base@_WV?$string_output_adapter@_W@__crt_stdio_output@@@2@@__crt_stdio_output@@AEAA_NXZ 000000014001c1d0 f i libucrtd:output.obj
 0001:0001b1f0       ?type_case_c_tchar@?$output_processor@DV?$string_output_adapter@D@__crt_stdio_output@@V?$format_validation_base@DV?$string_output_adapter@D@__crt_stdio_output@@@2@@__crt_stdio_output@@AEAA_ND@Z 000000014001c1f0 f i libucrtd:output.obj
 0001:0001b360       ?type_case_c_tchar@?$output_processor@_WV?$string_output_adapter@_W@__crt_stdio_output@@V?$format_validation_base@_WV?$string_output_adapter@_W@__crt_stdio_output@@@2@@__crt_stdio_output@@AEAA_N_W@Z 000000014001c360 f i libucrtd:output.obj
 0001:0001b4c0       ?type_case_d@?$output_processor@DV?$string_output_adapter@D@__crt_stdio_output@@V?$format_validation_base@DV?$string_output_adapter@D@__crt_stdio_output@@@2@@__crt_stdio_output@@AEAA_NXZ 000000014001c4c0 f i libucrtd:output.obj
 0001:0001b4f0       ?type_case_d@?$output_processor@_WV?$string_output_adapter@_W@__crt_stdio_output@@V?$format_validation_base@_WV?$string_output_adapter@_W@__crt_stdio_output@@@2@@__crt_stdio_output@@AEAA_NXZ 000000014001c4f0 f i libucrtd:output.obj
 0001:0001b520       ?type_case_n@?$output_processor@DV?$string_output_adapter@D@__crt_stdio_output@@V?$format_validation_base@DV?$string_output_adapter@D@__crt_stdio_output@@@2@@__crt_stdio_output@@AEAA_NXZ 000000014001c520 f i libucrtd:output.obj
 0001:0001b7b0       ?type_case_n@?$output_processor@_WV?$string_output_adapter@_W@__crt_stdio_output@@V?$format_validation_base@_WV?$string_output_adapter@_W@__crt_stdio_output@@@2@@__crt_stdio_output@@AEAA_NXZ 000000014001c7b0 f i libucrtd:output.obj
 0001:0001ba40       ?type_case_o@?$output_processor@DV?$string_output_adapter@D@__crt_stdio_output@@V?$format_validation_base@DV?$string_output_adapter@D@__crt_stdio_output@@@2@@__crt_stdio_output@@AEAA_NXZ 000000014001ca40 f i libucrtd:output.obj
 0001:0001ba80       ?type_case_o@?$output_processor@_WV?$string_output_adapter@_W@__crt_stdio_output@@V?$format_validation_base@_WV?$string_output_adapter@_W@__crt_stdio_output@@@2@@__crt_stdio_output@@AEAA_NXZ 000000014001ca80 f i libucrtd:output.obj
 0001:0001bac0       ?type_case_p@?$output_processor@DV?$string_output_adapter@D@__crt_stdio_output@@V?$format_validation_base@DV?$string_output_adapter@D@__crt_stdio_output@@@2@@__crt_stdio_output@@AEAA_NXZ 000000014001cac0 f i libucrtd:output.obj
 0001:0001bb00       ?type_case_p@?$output_processor@_WV?$string_output_adapter@_W@__crt_stdio_output@@V?$format_validation_base@_WV?$string_output_adapter@_W@__crt_stdio_output@@@2@@__crt_stdio_output@@AEAA_NXZ 000000014001cb00 f i libucrtd:output.obj
 0001:0001bb40       ?type_case_s@?$output_processor@DV?$string_output_adapter@D@__crt_stdio_output@@V?$format_validation_base@DV?$string_output_adapter@D@__crt_stdio_output@@@2@@__crt_stdio_output@@AEAA_NXZ 000000014001cb40 f i libucrtd:output.obj
 0001:0001bc60       ?type_case_s@?$output_processor@_WV?$string_output_adapter@_W@__crt_stdio_output@@V?$format_validation_base@_WV?$string_output_adapter@_W@__crt_stdio_output@@@2@@__crt_stdio_output@@AEAA_NXZ 000000014001cc60 f i libucrtd:output.obj
 0001:0001bd80       ?type_case_s_compute_narrow_string_length@?$output_processor@DV?$string_output_adapter@D@__crt_stdio_output@@V?$format_validation_base@DV?$string_output_adapter@D@__crt_stdio_output@@@2@@__crt_stdio_output@@AEAAHHD@Z 000000014001cd80 f i libucrtd:output.obj
 0001:0001bdb0       ?type_case_s_compute_narrow_string_length@?$output_processor@_WV?$string_output_adapter@_W@__crt_stdio_output@@V?$format_validation_base@_WV?$string_output_adapter@_W@__crt_stdio_output@@@2@@__crt_stdio_output@@AEAAHH_W@Z 000000014001cdb0 f i libucrtd:output.obj
 0001:0001be50       ?type_case_u@?$output_processor@DV?$string_output_adapter@D@__crt_stdio_output@@V?$format_validation_base@DV?$string_output_adapter@D@__crt_stdio_output@@@2@@__crt_stdio_output@@AEAA_NXZ 000000014001ce50 f i libucrtd:output.obj
 0001:0001be70       ?type_case_u@?$output_processor@_WV?$string_output_adapter@_W@__crt_stdio_output@@V?$format_validation_base@_WV?$string_output_adapter@_W@__crt_stdio_output@@@2@@__crt_stdio_output@@AEAA_NXZ 000000014001ce70 f i libucrtd:output.obj
 0001:0001be90       ?type_case_x@?$output_processor@DV?$string_output_adapter@D@__crt_stdio_output@@V?$format_validation_base@DV?$string_output_adapter@D@__crt_stdio_output@@@2@@__crt_stdio_output@@AEAA_NXZ 000000014001ce90 f i libucrtd:output.obj
 0001:0001beb0       ?type_case_x@?$output_processor@_WV?$string_output_adapter@_W@__crt_stdio_output@@V?$format_validation_base@_WV?$string_output_adapter@_W@__crt_stdio_output@@@2@@__crt_stdio_output@@AEAA_NXZ 000000014001ceb0 f i libucrtd:output.obj
 0001:0001bed0       ?unget@?$c_string_character_source@D@__crt_strtox@@QEAAXD@Z 000000014001ced0 f i libucrtd:output.obj
 0001:0001bfb0       ?unget@?$c_string_character_source@_W@__crt_strtox@@QEAAX_W@Z 000000014001cfb0 f i libucrtd:output.obj
 0001:0001c090       ?unset_flag@?$output_processor@DV?$string_output_adapter@D@__crt_stdio_output@@V?$format_validation_base@DV?$string_output_adapter@D@__crt_stdio_output@@@2@@__crt_stdio_output@@AEAAXI@Z 000000014001d090 f i libucrtd:output.obj
 0001:0001c090       ?unset_flag@?$output_processor@_WV?$string_output_adapter@_W@__crt_stdio_output@@V?$format_validation_base@_WV?$string_output_adapter@_W@__crt_stdio_output@@@2@@__crt_stdio_output@@AEAAXI@Z 000000014001d090 f i libucrtd:output.obj
 0001:0001c0c0       ?update_field_width@?$standard_base@DV?$string_output_adapter@D@__crt_stdio_output@@@__crt_stdio_output@@IEAA_NXZ 000000014001d0c0 f i libucrtd:output.obj
 0001:0001c0c0       ?update_field_width@?$standard_base@_WV?$string_output_adapter@_W@__crt_stdio_output@@@__crt_stdio_output@@IEAA_NXZ 000000014001d0c0 f i libucrtd:output.obj
 0001:0001c0f0       ?update_locale@__crt_cached_ptd_host@@AEAAXXZ 000000014001d0f0 f i libucrtd:output.obj
 0001:0001c120       ?update_locale_slow@__crt_cached_ptd_host@@AEAAXXZ 000000014001d120 f i libucrtd:output.obj
 0001:0001c1d0       ?update_precision@?$standard_base@DV?$string_output_adapter@D@__crt_stdio_output@@@__crt_stdio_output@@IEAA_NXZ 000000014001d1d0 f i libucrtd:output.obj
 0001:0001c1d0       ?update_precision@?$standard_base@_WV?$string_output_adapter@_W@__crt_stdio_output@@@__crt_stdio_output@@IEAA_NXZ 000000014001d1d0 f i libucrtd:output.obj
 0001:0001c200       ?validate@?$c_string_character_source@D@__crt_strtox@@QEBA_NXZ 000000014001d200 f i libucrtd:output.obj
 0001:0001c2c0       ?validate@?$c_string_character_source@_W@__crt_strtox@@QEBA_NXZ 000000014001d2c0 f i libucrtd:output.obj
 0001:0001c380       ?validate@?$string_output_adapter@D@__crt_stdio_output@@QEBA_NAEAV__crt_cached_ptd_host@@@Z 000000014001d380 f i libucrtd:output.obj
 0001:0001c460       ?validate@?$string_output_adapter@_W@__crt_stdio_output@@QEBA_NAEAV__crt_cached_ptd_host@@@Z 000000014001d460 f i libucrtd:output.obj
 0001:0001c540       ?validate_and_update_state_at_end_of_format_string@?$format_validation_base@DV?$string_output_adapter@D@__crt_stdio_output@@@__crt_stdio_output@@IEAA_NXZ 000000014001d540 f i libucrtd:output.obj
 0001:0001c630       ?validate_and_update_state_at_end_of_format_string@?$format_validation_base@_WV?$string_output_adapter@_W@__crt_stdio_output@@@__crt_stdio_output@@IEAA_NXZ 000000014001d630 f i libucrtd:output.obj
 0001:0001c720       ?wide_character_to_digit@__crt_strtox@@YAH_W@Z 000000014001d720 f i libucrtd:output.obj
 0001:0001ca90       ?wide_null_string@?$output_processor@DV?$string_output_adapter@D@__crt_stdio_output@@V?$format_validation_base@DV?$string_output_adapter@D@__crt_stdio_output@@@2@@__crt_stdio_output@@CAPEA_WXZ 000000014001da90 f i libucrtd:output.obj
 0001:0001ca90       ?wide_null_string@?$output_processor@_WV?$string_output_adapter@_W@__crt_stdio_output@@V?$format_validation_base@_WV?$string_output_adapter@_W@__crt_stdio_output@@@2@@__crt_stdio_output@@CAPEA_WXZ 000000014001da90 f i libucrtd:output.obj
 0001:0001caa0       ?write_character@?$string_output_adapter@D@__crt_stdio_output@@QEBA_NDQEAHAEAV__crt_cached_ptd_host@@@Z 000000014001daa0 f i libucrtd:output.obj
 0001:0001cb70       ?write_character@?$string_output_adapter@_W@__crt_stdio_output@@QEBA_N_WQEAHAEAV__crt_cached_ptd_host@@@Z 000000014001db70 f i libucrtd:output.obj
 0001:0001cc40       ?write_stored_string_tchar@?$output_processor@DV?$string_output_adapter@D@__crt_stdio_output@@V?$format_validation_base@DV?$string_output_adapter@D@__crt_stdio_output@@@2@@__crt_stdio_output@@AEAA_ND@Z 000000014001dc40 f i libucrtd:output.obj
 0001:0001cdf0       ?write_stored_string_tchar@?$output_processor@_WV?$string_output_adapter@_W@__crt_stdio_output@@V?$format_validation_base@_WV?$string_output_adapter@_W@__crt_stdio_output@@@2@@__crt_stdio_output@@AEAA_N_W@Z 000000014001ddf0 f i libucrtd:output.obj
 0001:0001cf50       ?write_string@?$string_output_adapter@D@__crt_stdio_output@@QEBAXQEBDHQEAHAEAV__crt_cached_ptd_host@@@Z 000000014001df50 f i libucrtd:output.obj
 0001:0001d0c0       ?write_string@?$string_output_adapter@_W@__crt_stdio_output@@QEBAXQEB_WHQEAHAEAV__crt_cached_ptd_host@@@Z 000000014001e0c0 f i libucrtd:output.obj
 0001:0001d230       __acrt_isleadbyte_l_noupdate 000000014001e230 f i libucrtd:output.obj
 0001:0001d260       __acrt_locale_get_ctype_array_value 000000014001e260 f i libucrtd:output.obj
 0001:0001d2a0       __ascii_iswalpha           000000014001e2a0 f i libucrtd:output.obj
 0001:0001d2e0       __ascii_toupper            000000014001e2e0 f i libucrtd:output.obj
 0001:0001d300       __ascii_towupper           000000014001e300 f i libucrtd:output.obj
 0001:0001d320       __stdio_common_vsnprintf_s 000000014001e320 f   libucrtd:output.obj
 0001:0001d3b0       __stdio_common_vsnwprintf_s 000000014001e3b0 f   libucrtd:output.obj
 0001:0001d440       __stdio_common_vsprintf_s  000000014001e440 f   libucrtd:output.obj
 0001:0001d4d0       _ctype_fast_check_internal 000000014001e4d0 f i libucrtd:output.obj
 0001:0001d500       _isdigit_fast_internal     000000014001e500 f i libucrtd:output.obj
 0001:0001d530       _tolower_fast_internal     000000014001e530 f i libucrtd:output.obj
 0001:0001e330       ??$get_module_file_name@AEAPEAUHINSTANCE__@@AEAY0BAF@_WK@?$__crt_char_traits@_W@@SAKAEAPEAUHINSTANCE__@@AEAY0BAF@_W$$QEAK@Z 000000014001f330 f i libucrtd:dbgrpt.obj
 0001:0001e370       ??$tcscpy_s@AEAY0BAF@D_KPEBD@?$__crt_char_traits@D@@SAHAEAY0BAF@D$$QEA_K$$QEAPEBD@Z 000000014001f370 f i libucrtd:dbgrpt.obj
 0001:0001e3b0       ??$tcscpy_s@AEAY0BAF@_W_KPEB_W@?$__crt_char_traits@_W@@SAHAEAY0BAF@_W$$QEA_K$$QEAPEB_W@Z 000000014001f3b0 f i libucrtd:dbgrpt.obj
 0001:0001e3f0       ??$tcslen@AEAY0BAF@D@?$__crt_char_traits@D@@SA_KAEAY0BAF@D@Z 000000014001f3f0 f i libucrtd:dbgrpt.obj
 0001:0001e410       ??$tcslen@AEAY0BAF@_W@?$__crt_char_traits@_W@@SA_KAEAY0BAF@_W@Z 000000014001f410 f i libucrtd:dbgrpt.obj
 0001:0001e430       ??$tcslen@AEBQEB_W@?$__crt_char_traits@_W@@SA_KAEBQEB_W@Z 000000014001f430 f i libucrtd:dbgrpt.obj
 0001:0001e490       _CrtDbgReport              000000014001f490 f   libucrtd:dbgrpt.obj
 0001:0001e510       _CrtDbgReportW             000000014001f510 f   libucrtd:dbgrpt.obj
 0001:0001e590       __acrt_MessageWindowA      000000014001f590 f   libucrtd:dbgrpt.obj
 0001:0001e5e0       __acrt_MessageWindowW      000000014001f5e0 f   libucrtd:dbgrpt.obj
 0001:0001e630       _snwprintf_s               000000014001f630 f i libucrtd:dbgrpt.obj
 0001:0001e6a0       _vsnwprintf_s_l            000000014001f6a0 f i libucrtd:dbgrpt.obj
 0001:0001e730       strncmp                    000000014001f730 f   libucrtd:strncmp.obj
 0001:0001e7b0       wcsncmp                    000000014001f7b0 f   libucrtd:wcsncmp.obj
 0001:0001e840       free                       000000014001f840 f   libucrtd:free.obj
 0001:0001e870       malloc                     000000014001f870 f   libucrtd:malloc.obj
 0001:0001f1e0       __acrt_getptd              00000001400201e0 f   libucrtd:per_thread_data.obj
 0001:0001f210       __acrt_getptd_head         0000000140020210 f   libucrtd:per_thread_data.obj
 0001:0001f240       __acrt_getptd_noexit       0000000140020240 f   libucrtd:per_thread_data.obj
 0001:0001f250       __acrt_getptd_noexit_explicit 0000000140020250 f   libucrtd:per_thread_data.obj
 0001:0001f280       __acrt_initialize_ptd      0000000140020280 f   libucrtd:per_thread_data.obj
 0001:0001f2c0       __acrt_uninitialize_ptd    00000001400202c0 f   libucrtd:per_thread_data.obj
 0001:0001f2f0       _set_error_mode            00000001400202f0 f   libucrtd:set_error_mode.obj
 0001:0001fa80       wcscat_s                   0000000140020a80 f   libucrtd:wcscat_s.obj
 0001:0001ffb0       wcscpy_s                   0000000140020fb0 f   libucrtd:wcscpy_s.obj
 0001:00020690       wcsncpy_s                  0000000140021690 f   libucrtd:wcsncpy_s.obj
 0001:000219d0       ??1?$__crt_simd_cleanup_guard@$00@@QEAA@XZ 00000001400229d0 f i libucrtd:strnlen.obj
 0001:000219e0       ?compare_equals@?$__crt_simd_traits@$00E@@SA?AT__m256i@@T2@0@Z 00000001400229e0 f i libucrtd:strnlen.obj
 0001:00021a20       ?compare_equals@?$__crt_simd_traits@$00G@@SA?AT__m256i@@T2@0@Z 0000000140022a20 f i libucrtd:strnlen.obj
 0001:00021a60       ?compare_equals@?$__crt_simd_traits@$0A@E@@SA?AT__m128i@@T2@0@Z 0000000140022a60 f i libucrtd:strnlen.obj
 0001:00021a90       ?compare_equals@?$__crt_simd_traits@$0A@G@@SA?AT__m128i@@T2@0@Z 0000000140022a90 f i libucrtd:strnlen.obj
 0001:00021ac0       ?compute_byte_mask@?$__crt_simd_pack_traits@$00@@SAHT__m256i@@@Z 0000000140022ac0 f i libucrtd:strnlen.obj
 0001:00021ae0       ?compute_byte_mask@?$__crt_simd_pack_traits@$0A@@@SAHT__m128i@@@Z 0000000140022ae0 f i libucrtd:strnlen.obj
 0001:00021b00       ?get_zero_pack@?$__crt_simd_pack_traits@$00@@SA?AT__m256i@@XZ 0000000140022b00 f i libucrtd:strnlen.obj
 0001:00021b30       ?get_zero_pack@?$__crt_simd_pack_traits@$0A@@@SA?AT__m128i@@XZ 0000000140022b30 f i libucrtd:strnlen.obj
 0001:00021b50       strnlen                    0000000140022b50 f   libucrtd:strnlen.obj
 0001:00021b80       wcslen                     0000000140022b80 f   libucrtd:strnlen.obj
 0001:00021ba0       wcsnlen                    0000000140022ba0 f   libucrtd:strnlen.obj
 0001:00021d10       ??$message_box@$$TAEBQEB_WAEBQEB_WK@?$__crt_char_traits@_W@@SAH$$QEA$$TAEBQEB_W1$$QEAK@Z 0000000140022d10 f i libucrtd:crtmbox.obj
 0001:00021d10       ??$message_box@PEAUHWND__@@AEBQEB_WAEBQEB_WAEBI@?$__crt_char_traits@_W@@SAH$$QEAPEAUHWND__@@AEBQEB_W1AEBI@Z 0000000140022d10 f i libucrtd:crtmbox.obj
 0001:00021d60       ??$output_debug_string@AEBQEB_W@?$__crt_char_traits@_W@@SAXAEBQEB_W@Z 0000000140022d60 f i libucrtd:crtmbox.obj
 0001:00021d80       __acrt_show_wide_message_box 0000000140022d80 f   libucrtd:crtmbox.obj
 0001:00021db0       ?get_doserrno@__crt_cached_ptd_host@@QEAA@XZ 0000000140022db0 f i libucrtd:errno.obj
 0001:00021dc0       __acrt_errno_from_os_error 0000000140022dc0 f   libucrtd:errno.obj
 0001:00021e50       __acrt_errno_map_os_error  0000000140022e50 f   libucrtd:errno.obj
 0001:00021e80       __acrt_errno_map_os_error_ptd 0000000140022e80 f   libucrtd:errno.obj
 0001:00021ee0       __doserrno                 0000000140022ee0 f   libucrtd:errno.obj
 0001:00021f10       _errno                     0000000140022f10 f   libucrtd:errno.obj
 0001:00021f70       ??$__acrt_convert_wcs_mbs_cp@D_WV<lambda_7c9dea7b4ca7285d2cdb541a38da6275>@@U__crt_win32_buffer_internal_dynamic_resizing@@@@YAHQEBDAEAV?$__crt_win32_buffer@_WU__crt_win32_buffer_internal_dynamic_resizing@@@@AEBV<lambda_7c9dea7b4ca7285d2cdb541a38da6275>@@I@Z 0000000140022f70 f i libucrtd:argv_wildcards.obj
 0001:00022120       ??$__acrt_convert_wcs_mbs_cp@_WDV<lambda_d8593a27d1aa8c02be35c86a17d324c4>@@U__crt_win32_buffer_internal_dynamic_resizing@@@@YAHQEB_WAEAV?$__crt_win32_buffer@DU__crt_win32_buffer_internal_dynamic_resizing@@@@AEBV<lambda_d8593a27d1aa8c02be35c86a17d324c4>@@I@Z 0000000140023120 f i libucrtd:argv_wildcards.obj
 0001:000222d0       ??$__acrt_mbs_to_wcs_cp@U__crt_win32_buffer_internal_dynamic_resizing@@@@YAHQEBDAEAV?$__crt_win32_buffer@_WU__crt_win32_buffer_internal_dynamic_resizing@@@@I@Z 00000001400232d0 f i libucrtd:argv_wildcards.obj
 0001:00022320       ??$__acrt_wcs_to_mbs_cp@U__crt_win32_buffer_internal_dynamic_resizing@@@@YAHQEB_WAEAV?$__crt_win32_buffer@DU__crt_win32_buffer_internal_dynamic_resizing@@@@I@Z 0000000140023320 f i libucrtd:argv_wildcards.obj
 0001:00022d60       ??$tcsncpy_s@AEAPEAD_KAEAPEADAEB_K@?$__crt_char_traits@D@@SAHAEAPEAD$$QEA_K0AEB_K@Z 0000000140023d60 f i libucrtd:argv_wildcards.obj
 0001:00022d60       ??$tcsncpy_s@PEADAEB_KAEBQEBDAEB_K@?$__crt_char_traits@D@@SAH$$QEAPEADAEB_KAEBQEBD1@Z 0000000140023d60 f i libucrtd:argv_wildcards.obj
 0001:00022d60       ??$tcsncpy_s@PEAD_KAEBQEBDAEB_K@?$__crt_char_traits@D@@SAH$$QEAPEAD$$QEA_KAEBQEBDAEB_K@Z 0000000140023d60 f i libucrtd:argv_wildcards.obj
 0001:00022db0       ??$tcspbrk@AEAPEADAEAY02$$CBD@?$__crt_char_traits@D@@SAPEADAEAPEADAEAY02$$CBD@Z 0000000140023db0 f i libucrtd:argv_wildcards.obj
 0001:00022de0       ??0?$__crt_win32_buffer@DU__crt_win32_buffer_internal_dynamic_resizing@@@@QEAA@XZ 0000000140023de0 f i libucrtd:argv_wildcards.obj
 0001:00022de0       ??0?$__crt_win32_buffer@_WU__crt_win32_buffer_internal_dynamic_resizing@@@@QEAA@XZ 0000000140023de0 f i libucrtd:argv_wildcards.obj
 0001:00022e80       ??1?$__crt_unique_handle_t@U__crt_findfile_traits@@@@QEAA@XZ 0000000140023e80 f i libucrtd:argv_wildcards.obj
 0001:00022ea0       ??1?$__crt_win32_buffer@DU__crt_win32_buffer_internal_dynamic_resizing@@@@QEAA@XZ 0000000140023ea0 f i libucrtd:argv_wildcards.obj
 0001:00022ea0       ??1?$__crt_win32_buffer@_WU__crt_win32_buffer_internal_dynamic_resizing@@@@QEAA@XZ 0000000140023ea0 f i libucrtd:argv_wildcards.obj
 0001:00022f50       ??R<lambda_7c9dea7b4ca7285d2cdb541a38da6275>@@QEBA@IQEBDQEA_W_K@Z 0000000140023f50 f i libucrtd:argv_wildcards.obj
 0001:00023030       ??R<lambda_d8593a27d1aa8c02be35c86a17d324c4>@@QEBA@IQEB_WQEAD_K@Z 0000000140024030 f i libucrtd:argv_wildcards.obj
 0001:00023030       ??R<lambda_f788ae46380686e8b737efdd8c720d07>@@QEBA@IQEB_WQEAD_K@Z 0000000140024030 f i libucrtd:getmodulefilenamea.obj
 0001:00023090       ?__acrt_get_utf8_acp_compatibility_codepage@@YAIXZ 0000000140024090 f i libucrtd:argv_wildcards.obj
 0001:00023130       ?_deallocate@?$__crt_win32_buffer@DU__crt_win32_buffer_internal_dynamic_resizing@@@@AEAAXXZ 0000000140024130 f i libucrtd:argv_wildcards.obj
 0001:00023130       ?_deallocate@?$__crt_win32_buffer@_WU__crt_win32_buffer_internal_dynamic_resizing@@@@AEAAXXZ 0000000140024130 f i libucrtd:argv_wildcards.obj
 0001:00023180       ?allocate@?$__crt_win32_buffer@DU__crt_win32_buffer_internal_dynamic_resizing@@@@QEAAH_K@Z 0000000140024180 f i libucrtd:argv_wildcards.obj
 0001:00023200       ?allocate@?$__crt_win32_buffer@_WU__crt_win32_buffer_internal_dynamic_resizing@@@@QEAAH_K@Z 0000000140024200 f i libucrtd:argv_wildcards.obj
 0001:00023290       ?allocate@__crt_win32_buffer_internal_dynamic_resizing@@SAHQEAPEAX_KAEBV__crt_win32_buffer_empty_debug_info@@@Z 0000000140024290 f i libucrtd:argv_wildcards.obj
 0001:00023360       ?capacity@?$__crt_win32_buffer@DU__crt_win32_buffer_internal_dynamic_resizing@@@@QEBA_KXZ 0000000140024360 f i libucrtd:argv_wildcards.obj
 0001:00023360       ?capacity@?$__crt_win32_buffer@DU__crt_win32_buffer_no_resizing@@@@QEBA_KXZ 0000000140024360 f i libucrtd:getmodulefilenamea.obj
 0001:00023360       ?capacity@?$__crt_win32_buffer@_WU__crt_win32_buffer_internal_dynamic_resizing@@@@QEBA_KXZ 0000000140024360 f i libucrtd:argv_wildcards.obj
 0001:00023370       ?close@?$__crt_unique_handle_t@U__crt_findfile_traits@@@@QEAAXXZ 0000000140024370 f i libucrtd:argv_wildcards.obj
 0001:000233b0       ?close@__crt_findfile_traits@@SA_NPEAX@Z 00000001400243b0 f i libucrtd:argv_wildcards.obj
 0001:000233f0       ?data@?$__crt_win32_buffer@DU__crt_win32_buffer_internal_dynamic_resizing@@@@QEAAPEADXZ 00000001400243f0 f i libucrtd:argv_wildcards.obj
 0001:000233f0       ?data@?$__crt_win32_buffer@DU__crt_win32_buffer_no_resizing@@@@QEAAPEADXZ 00000001400243f0 f i libucrtd:getmodulefilenamea.obj
 0001:000233f0       ?data@?$__crt_win32_buffer@_WU__crt_win32_buffer_internal_dynamic_resizing@@@@QEAAPEA_WXZ 00000001400243f0 f i libucrtd:argv_wildcards.obj
 0001:00023400       ?deallocate@__crt_win32_buffer_internal_dynamic_resizing@@SAXQEAXAEBV__crt_win32_buffer_empty_debug_info@@@Z 0000000140024400 f i libucrtd:argv_wildcards.obj
 0001:000236f0       ?set_to_nullptr@?$__crt_win32_buffer@DU__crt_win32_buffer_internal_dynamic_resizing@@@@QEAAXXZ 00000001400246f0 f i libucrtd:argv_wildcards.obj
 0001:000236f0       ?set_to_nullptr@?$__crt_win32_buffer@_WU__crt_win32_buffer_internal_dynamic_resizing@@@@QEAAXXZ 00000001400246f0 f i libucrtd:argv_wildcards.obj
 0001:00023730       ?size@?$__crt_win32_buffer@DU__crt_win32_buffer_internal_dynamic_resizing@@@@QEAAX_K@Z 0000000140024730 f i libucrtd:argv_wildcards.obj
 0001:00023730       ?size@?$__crt_win32_buffer@DU__crt_win32_buffer_no_resizing@@@@QEAAX_K@Z 0000000140024730 f i libucrtd:getmodulefilenamea.obj
 0001:00023730       ?size@?$__crt_win32_buffer@_WU__crt_win32_buffer_internal_dynamic_resizing@@@@QEAAX_K@Z 0000000140024730 f i libucrtd:argv_wildcards.obj
 0001:00023770       ?strpbrk@@YAPEADQEADQEBD@Z 0000000140024770 f i libucrtd:argv_wildcards.obj
 0001:000237a0       __acrt_expand_narrow_argv_wildcards 00000001400247a0 f   libucrtd:argv_wildcards.obj
 0001:000237d0       ??$__acrt_convert_wcs_mbs_cp@_WDV<lambda_f788ae46380686e8b737efdd8c720d07>@@U__crt_win32_buffer_no_resizing@@@@YAHQEB_WAEAV?$__crt_win32_buffer@DU__crt_win32_buffer_no_resizing@@@@AEBV<lambda_f788ae46380686e8b737efdd8c720d07>@@I@Z 00000001400247d0 f i libucrtd:getmodulefilenamea.obj
 0001:00023980       ??$__acrt_wcs_to_mbs_cp@U__crt_win32_buffer_no_resizing@@@@YAHQEB_WAEAV?$__crt_win32_buffer@DU__crt_win32_buffer_no_resizing@@@@I@Z 0000000140024980 f i libucrtd:getmodulefilenamea.obj
 0001:000239d0       ??0?$__crt_win32_buffer@DU__crt_win32_buffer_no_resizing@@@@QEAA@QEAD_K@Z 00000001400249d0 f i libucrtd:getmodulefilenamea.obj
 0001:00023a40       ??1?$__crt_win32_buffer@DU__crt_win32_buffer_no_resizing@@@@QEAA@XZ 0000000140024a40 f i libucrtd:getmodulefilenamea.obj
 0001:00023a70       ?_deallocate@?$__crt_win32_buffer@DU__crt_win32_buffer_no_resizing@@@@AEAAXXZ 0000000140024a70 f i libucrtd:getmodulefilenamea.obj
 0001:00023ac0       ?allocate@?$__crt_win32_buffer@DU__crt_win32_buffer_no_resizing@@@@QEAAH_K@Z 0000000140024ac0 f i libucrtd:getmodulefilenamea.obj
 0001:00023b40       ?allocate@__crt_win32_buffer_no_resizing@@SAHQEAPEAX_KAEBV__crt_win32_buffer_empty_debug_info@@@Z 0000000140024b40 f i libucrtd:getmodulefilenamea.obj
 0001:00023b70       ?deallocate@__crt_win32_buffer_no_resizing@@SAXQEAXAEBV__crt_win32_buffer_empty_debug_info@@@Z 0000000140024b70 f i libucrtd:getmodulefilenamea.obj
 0001:00023b80       ?set_to_nullptr@?$__crt_win32_buffer@DU__crt_win32_buffer_no_resizing@@@@QEAAXXZ 0000000140024b80 f i libucrtd:getmodulefilenamea.obj
 0001:00023bc0       ?size@?$__crt_win32_buffer@DU__crt_win32_buffer_no_resizing@@@@QEBA_KXZ 0000000140024bc0 f i libucrtd:getmodulefilenamea.obj
 0001:00023bd0       __acrt_GetModuleFileNameA  0000000140024bd0 f   libucrtd:getmodulefilenamea.obj
 0001:00023d50       ??$initialize_from_array@$$BY10BAA@E@?$dual_state_global@PEAE@__crt_state_management@@QEAAXAEAY10BAA@E@Z 0000000140024d50 f i libucrtd:mbctype.obj
 0001:00023dc0       ??$initialize_from_array@$$BY10BAB@E@?$dual_state_global@PEAE@__crt_state_management@@QEAAXAEAY10BAB@E@Z 0000000140024dc0 f i libucrtd:mbctype.obj
 0001:00024960       __acrt_initialize_multibyte 0000000140025960 f   libucrtd:mbctype.obj
 0001:00024a30       __acrt_should_sync_with_global_locale 0000000140025a30 f i libucrtd:mbctype.obj
 0001:00024a70       __acrt_update_thread_multibyte_data 0000000140025a70 f   libucrtd:mbctype.obj
 0001:00024ab0       _setmbcp_nolock            0000000140025ab0 f   libucrtd:mbctype.obj
 0001:000251a0       _ismbblead                 00000001400261a0 f   libucrtd:ismbbyte.obj
 0001:000251d0       __acrt_initialize_command_line 00000001400261d0 f   libucrtd:argv_data.obj
 0001:00025310       __acrt_MultiByteToWideChar 0000000140026310 f   libucrtd:multibytetowidechar.obj
 0001:00025480       __acrt_WideCharToMultiByte 0000000140026480 f   libucrtd:widechartomultibyte.obj
 0001:000256c0       __dcrt_get_narrow_environment_from_os 00000001400266c0 f   libucrtd:get_environment_from_os.obj
 0001:000258f0       __acrt_initialize_locks    00000001400268f0 f   libucrtd:locks.obj
 0001:00025960       __acrt_lock                0000000140026960 f   libucrtd:locks.obj
 0001:00025990       __acrt_uninitialize_locks  0000000140026990 f   libucrtd:locks.obj
 0001:000259f0       __acrt_unlock              00000001400269f0 f   libucrtd:locks.obj
 0001:00025a20       __acrt_app_verifier_enabled 0000000140026a20 f   libucrtd:peb_access.obj
 0001:00025a60       __acrt_is_secure_process   0000000140026a60 f   libucrtd:peb_access.obj
 0001:00025d50       __acrt_get_developer_information_policy 0000000140026d50 f   libucrtd:win_policies.obj
 0001:00025d70       __acrt_get_process_end_policy 0000000140026d70 f   libucrtd:win_policies.obj
 0001:00025d80       __acrt_get_windowing_model_policy 0000000140026d80 f   libucrtd:win_policies.obj
 0001:00025da0       __acrt_lowio_create_handle_array 0000000140026da0 f   libucrtd:osfinfo.obj
 0001:00025f60       __acrt_lowio_destroy_handle_array 0000000140026f60 f   libucrtd:osfinfo.obj
 0001:00025fe0       __acrt_lowio_ensure_fh_exists 0000000140026fe0 f   libucrtd:osfinfo.obj
 0001:00026140       __acrt_lowio_lock_fh       0000000140027140 f   libucrtd:osfinfo.obj
 0001:00026180       __acrt_lowio_unlock_fh     0000000140027180 f   libucrtd:osfinfo.obj
 0001:000261c0       _free_osfhnd               00000001400271c0 f   libucrtd:osfinfo.obj
 0001:000262f0       _get_osfhandle             00000001400272f0 f   libucrtd:osfinfo.obj
 0001:000264f0       __acrt_initialize_fmode    00000001400274f0 f   libucrtd:txtmode.obj
 0001:000268f0       __acrt_initialize_lowio    00000001400278f0 f   libucrtd:ioinit.obj
 0001:00026940       __acrt_uninitialize_lowio  0000000140027940 f   libucrtd:ioinit.obj
 0001:000269c0       __acrt_locale_free_monetary 00000001400279c0 f   libucrtd:initmon.obj
 0001:00026bd0       __acrt_locale_free_numeric 0000000140027bd0 f   libucrtd:initnum.obj
 0001:00026d70       __acrt_locale_free_time    0000000140027d70 f   libucrtd:inittime.obj
 0001:00026ee0       _chvalidator_l             0000000140027ee0 f   libucrtd:isctype.obj
 0001:00026f90       _isctype_l                 0000000140027f90 f   libucrtd:isctype.obj
 0001:000271c0       _isleadbyte_fast_internal  00000001400281c0 f i libucrtd:isctype.obj
 0001:000271f0       ??1?$__crt_scoped_stack_ptr@_W@@QEAA@XZ 00000001400281f0 f i libucrtd:getstringtypea.obj
 0001:00027210       _MallocaComputeSize        0000000140028210 f i libucrtd:getstringtypea.obj
 0001:00027250       _MarkAllocaS               0000000140028250 f i libucrtd:getstringtypea.obj
 0001:00027280       __acrt_GetStringTypeA      0000000140028280 f   libucrtd:getstringtypea.obj
 0001:000274e0       _freea_crt                 00000001400284e0 f i libucrtd:getstringtypea.obj
 0001:00027580       __acrt_add_locale_ref      0000000140028580 f   libucrtd:locale_refcounting.obj
 0001:000276e0       __acrt_free_locale         00000001400286e0 f   libucrtd:locale_refcounting.obj
 0001:00027a60       __acrt_locale_add_lc_time_reference 0000000140028a60 f   libucrtd:locale_refcounting.obj
 0001:00027aa0       __acrt_locale_free_lc_time_if_unreferenced 0000000140028aa0 f   libucrtd:locale_refcounting.obj
 0001:00027b00       __acrt_locale_release_lc_time_reference 0000000140028b00 f   libucrtd:locale_refcounting.obj
 0001:00027b40       __acrt_release_locale_ref  0000000140028b40 f   libucrtd:locale_refcounting.obj
 0001:00027cb0       __acrt_update_thread_locale_data 0000000140028cb0 f   libucrtd:locale_refcounting.obj
 0001:00027d50       _updatetlocinfoEx_nolock   0000000140028d50 f   libucrtd:locale_refcounting.obj
 0001:000284a0       GetCurrentThreadEffectiveToken 00000001400294a0 f i libucrtd:winapi_thunks.obj
 0001:000284b0       __acrt_AppPolicyGetProcessTerminationMethodInternal 00000001400294b0 f   libucrtd:winapi_thunks.obj
 0001:00028510       __acrt_AppPolicyGetShowDeveloperDiagnosticInternal 0000000140029510 f   libucrtd:winapi_thunks.obj
 0001:00028570       __acrt_AppPolicyGetWindowingModelInternal 0000000140029570 f   libucrtd:winapi_thunks.obj
 0001:000285d0       __acrt_AreFileApisANSI     00000001400295d0 f   libucrtd:winapi_thunks.obj
 0001:00028620       __acrt_FlsAlloc            0000000140029620 f   libucrtd:winapi_thunks.obj
 0001:00028640       __acrt_FlsFree             0000000140029640 f   libucrtd:winapi_thunks.obj
 0001:00028660       __acrt_FlsGetValue         0000000140029660 f   libucrtd:winapi_thunks.obj
 0001:00028680       __acrt_FlsSetValue         0000000140029680 f   libucrtd:winapi_thunks.obj
 0001:000286b0       __acrt_InitializeCriticalSectionEx 00000001400296b0 f   libucrtd:winapi_thunks.obj
 0001:00028730       __acrt_LCMapStringEx       0000000140029730 f   libucrtd:winapi_thunks.obj
 0001:00028840       __acrt_LocaleNameToLCID    0000000140029840 f   libucrtd:winapi_thunks.obj
 0001:000288b0       __acrt_MessageBoxW         00000001400298b0 f   libucrtd:winapi_thunks.obj
 0001:00028930       __acrt_can_show_message_box 0000000140029930 f   libucrtd:winapi_thunks.obj
 0001:00028970       __acrt_get_parent_window   0000000140029970 f   libucrtd:winapi_thunks.obj
 0001:00028a10       __acrt_initialize_winapi_thunks 0000000140029a10 f   libucrtd:winapi_thunks.obj
 0001:00028a90       __acrt_is_interactive      0000000140029a90 f   libucrtd:winapi_thunks.obj
 0001:00028ba0       __acrt_uninitialize_winapi_thunks 0000000140029ba0 f   libucrtd:winapi_thunks.obj
 0001:00028c40       __acrt_initialize_heap     0000000140029c40 f   libucrtd:heap_handle.obj
 0001:00028c70       __acrt_uninitialize_heap   0000000140029c70 f   libucrtd:heap_handle.obj
 0001:00028c90       __acrt_execute_initializers 0000000140029c90 f   libucrtd:shared_initialization.obj
 0001:00028d90       __acrt_execute_uninitializers 0000000140029d90 f   libucrtd:shared_initialization.obj
 0001:00028e20       __acrt_initialize_new_handler 0000000140029e20 f   libucrtd:new_handler.obj
 0001:00028e40       _callnewh                  0000000140029e40 f   libucrtd:new_handler.obj
 0001:00028ea0       _query_new_handler         0000000140029ea0 f   libucrtd:new_handler.obj
 0001:000290b0       __acrt_get_sigabrt_handler 000000014002a0b0 f   libucrtd:signal.obj
 0001:000290e0       __acrt_initialize_signal_handlers 000000014002a0e0 f   libucrtd:signal.obj
 0001:00029140       __fpecode                  000000014002a140 f   libucrtd:signal.obj
 0001:00029160       raise                      000000014002a160 f   libucrtd:signal.obj
 0001:00029670       ?has_any_of@__crt_stdio_stream@@QEBA_NJ@Z 000000014002a670 f i libucrtd:_sftbuf.obj
 0001:000296b0       ?set_flags@__crt_stdio_stream@@QEBA_NJ@Z 000000014002a6b0 f i libucrtd:_sftbuf.obj
 0001:00029720       ?unset_flags@__crt_stdio_stream@@QEBA_NJ@Z 000000014002a720 f i libucrtd:_sftbuf.obj
 0001:00029790       _free_base                 000000014002a790 f   libucrtd:free_base.obj
 0001:000297f0       _realloc_base              000000014002a7f0 f   libucrtd:realloc_base.obj
 0001:00029910       _expand_base               000000014002a910 f   libucrtd:expand.obj
 0001:00029aa0       ?value_explicit@?$dual_state_global@PEAU__crt_locale_data@@@__crt_state_management@@QEAAAEAPEAU__crt_locale_data@@_K@Z 000000014002aaa0 f i libucrtd:locale_update.obj
 0001:00029aa0       ?value_explicit@?$dual_state_global@PEAU__crt_multibyte_data@@@__crt_state_management@@QEAAAEAPEAU__crt_multibyte_data@@_K@Z 000000014002aaa0 f i libucrtd:locale_update.obj
 0001:00029ac0       __acrt_update_locale_info  000000014002aac0 f   libucrtd:locale_update.obj
 0001:00029b10       __acrt_update_locale_info_explicit 000000014002ab10 f   libucrtd:locale_update.obj
 0001:00029b70       __acrt_update_multibyte_info 000000014002ab70 f   libucrtd:locale_update.obj
 0001:00029bc0       __acrt_update_multibyte_info_explicit 000000014002abc0 f   libucrtd:locale_update.obj
 0001:00029c20       _CrtDefaultAllocHook       000000014002ac20 f   libucrtd:debug_heap_hook.obj
 0001:00029c40       _CrtGetDebugFillThreshold  000000014002ac40 f   libucrtd:debug_fill_threshold.obj
 0001:00029c50       ?__acrt_fp_classify@@YA?AW4__acrt_fp_class@@AEBN@Z 000000014002ac50 f i libucrtd:cvt.obj
 0001:00029d50       ?__acrt_fp_is_negative@@YA_NAEBN@Z 000000014002ad50 f i libucrtd:cvt.obj
 0001:0002b670       ?strrchr@@YAPEADQEADH@Z    000000014002c670 f i libucrtd:cvt.obj
 0001:0002b690       __acrt_fp_format           000000014002c690 f   libucrtd:cvt.obj
 0001:0002bd60       ?value_or@?$cached@H@__crt_cached_ptd_host@@QEBAHH@Z 000000014002cd60 f i libucrtd:wctomb.obj
 0001:0002bd90       _wctomb_internal           000000014002cd90 f   libucrtd:wctomb.obj
 0001:0002c2f0       _mbtowc_internal           000000014002d2f0 f   libucrtd:mbtowc.obj
 0001:0002c680       ?lowio_handle@__crt_stdio_stream@@QEBAHXZ 000000014002d680 f i libucrtd:fileno.obj
 0001:0002c6b0       _fileno                    000000014002d6b0 f   libucrtd:fileno.obj
 0001:0002c790       __acrt_initialize_stdio    000000014002d790 f   libucrtd:_file.obj
 0001:0002c980       __acrt_uninitialize_stdio  000000014002d980 f   libucrtd:_file.obj
 0001:0002ca10       _lock_file                 000000014002da10 f   libucrtd:_file.obj
 0001:0002ca50       _unlock_file               000000014002da50 f   libucrtd:_file.obj
 0001:0002ca90       _get_printf_count_output   000000014002da90 f   libucrtd:printf_count_output.obj
 0001:0002cac0       _VCrtDbgReportA            000000014002dac0 f   libucrtd:dbgrptt.obj
 0001:0002d500       _VCrtDbgReportW            000000014002e500 f   libucrtd:dbgrptt.obj
 0001:0002e110       _snprintf_s                000000014002f110 f i libucrtd:dbgrptt.obj
 0001:0002e180       _vsnprintf_s               000000014002f180 f i libucrtd:dbgrptt.obj
 0001:0002e1d0       _vsnprintf_s_l             000000014002f1d0 f i libucrtd:dbgrptt.obj
 0001:0002e250       __acrt_OutputDebugStringA  000000014002f250 f   libucrtd:outputdebugstringa.obj
 0001:0002e4a0       qsort                      000000014002f4a0 f   libucrtd:qsort.obj
 0001:0002f310       strncpy_s                  0000000140030310 f   libucrtd:strncpy_s.obj
 0001:0002f480       strpbrk                    0000000140030480 f   libucrtd:strpbrk.obj
 0001:0002fd70       _mbsdec                    0000000140030d70 f   libucrtd:mbsdec.obj
 0001:0002fda0       _mbsdec_l                  0000000140030da0 f   libucrtd:mbsdec.obj
 0001:00030630       __acrt_LCMapStringA        0000000140031630 f   libucrtd:lcmapstringa.obj
 0001:00031300       _itoa_s                    0000000140032300 f   libucrtd:xtoa.obj
 0001:00031360       _itow_s                    0000000140032360 f   libucrtd:xtoa.obj
 0001:000313c0       __ascii_wcsnicmp           00000001400323c0 f   libucrtd:wcsnicmp.obj
 0001:00031540       __acrt_DownlevelLocaleNameToLCID 0000000140032540 f   libucrtd:lcidtoname_downlevel.obj
 0001:000315a0       _isatty                    00000001400325a0 f   libucrtd:isatty.obj
 0001:00031a50       ?__acrt_stdio_reset_buffer@@YAXV__crt_stdio_stream@@@Z 0000000140032a50 f i libucrtd:fflush.obj
 0001:00031c20       ?has_all_of@__crt_stdio_stream@@QEBA_NJ@Z 0000000140032c20 f i libucrtd:fflush.obj
 0001:00031d00       __acrt_stdio_flush_nolock  0000000140032d00 f   libucrtd:fflush.obj
 0001:00031e20       _fflush_nolock             0000000140032e20 f   libucrtd:fflush.obj
 0001:00031e60       _flushall                  0000000140032e60 f   libucrtd:fflush.obj
 0001:00031e70       _malloc_base               0000000140032e70 f   libucrtd:malloc_base.obj
 0001:000320d0       __acrt_fp_strflt_to_string 00000001400330d0 f   libucrtd:_fptostr.obj
 0001:00032c90       ??0big_integer@__crt_strtox@@QEAA@AEBU01@@Z 0000000140033c90 f i libucrtd:cfout.obj
 0001:00032c90       ??4big_integer@__crt_strtox@@QEAAAEAU01@AEBU01@@Z 0000000140033c90 f i libucrtd:cfout.obj
 0001:00032cf0       ??0big_integer@__crt_strtox@@QEAA@XZ 0000000140033cf0 f i libucrtd:cfout.obj
 0001:00032e40       ??8__crt_strtox@@YA_NAEBUbig_integer@0@0@Z 0000000140033e40 f i libucrtd:cfout.obj
 0001:00032eb0       ??9__crt_strtox@@YA_NAEBUbig_integer@0@0@Z 0000000140033eb0 f i libucrtd:cfout.obj
 0001:00032ef0       ?add_carry@__crt_strtox@@YAIAEAIII@Z 0000000140033ef0 f i libucrtd:cfout.obj
 0001:00032f40       ?add_multiply_carry@__crt_strtox@@YAIAEAIIII@Z 0000000140033f40 f i libucrtd:cfout.obj
 0001:00032fa0       ?bit_scan_reverse@__crt_strtox@@YAII@Z 0000000140033fa0 f i libucrtd:cfout.obj
 0001:00032fe0       ?count_sequential_high_zeroes@__crt_strtox@@YAII@Z 0000000140033fe0 f i libucrtd:cfout.obj
 0001:00033020       ?divide@__crt_strtox@@YA_KAEAUbig_integer@1@AEBU21@@Z 0000000140034020 f i libucrtd:cfout.obj
 0001:000339f0       ?is_zero@__crt_strtox@@YA_NAEBUbig_integer@1@@Z 00000001400349f0 f i libucrtd:cfout.obj
 0001:00033a20       ?make_big_integer@__crt_strtox@@YA?AUbig_integer@1@_K@Z 0000000140034a20 f i libucrtd:cfout.obj
 0001:00033af0       ?make_big_integer_power_of_two@__crt_strtox@@YA?AUbig_integer@1@I@Z 0000000140034af0 f i libucrtd:cfout.obj
 0001:00033bc0       ?multiply@__crt_strtox@@YA_NAEAUbig_integer@1@AEBU21@@Z 0000000140034bc0 f i libucrtd:cfout.obj
 0001:00033f40       ?multiply@__crt_strtox@@YA_NAEAUbig_integer@1@I@Z 0000000140034f40 f i libucrtd:cfout.obj
 0001:00034060       ?multiply_64_32@__crt_strtox@@YA_K_KI@Z 0000000140035060 f i libucrtd:cfout.obj
 0001:00034080       ?multiply_by_power_of_ten@__crt_strtox@@YA_NAEAUbig_integer@1@I@Z 0000000140035080 f i libucrtd:cfout.obj
 0001:00034230       ?multiply_core@__crt_strtox@@YAIQEAIII@Z 0000000140035230 f i libucrtd:cfout.obj
 0001:000342b0       ?shift_left@__crt_strtox@@YA_NAEAUbig_integer@1@I@Z 00000001400352b0 f i libucrtd:cfout.obj
 0001:00034590       __acrt_fltout              0000000140035590 f   libucrtd:cfout.obj
 0001:00034970       fegetround                 0000000140035970 f   libucrtd:fegetround.obj
 0001:00034990       ?__c32rtomb_utf8@__crt_mbstring@@YA_KPEAD_UPEAU_Mbstatet@@AEAV__crt_cached_ptd_host@@@Z 0000000140035990 f   libucrtd:c32rtomb.obj
 0001:00034ca0       ?__mbrtowc_utf8@__crt_mbstring@@YA_KPEA_WPEBD_KPEAU_Mbstatet@@AEAV__crt_cached_ptd_host@@@Z 0000000140035ca0 f   libucrtd:mbrtowc.obj
 0001:00034d20       ?__mbsrtowcs_utf8@__crt_mbstring@@YA_KPEA_WPEAPEBD_KPEAU_Mbstatet@@AEAV__crt_cached_ptd_host@@@Z 0000000140035d20 f   libucrtd:mbrtowc.obj
 0001:00035070       ?is_in_use@__crt_stdio_stream@@QEBA_NXZ 0000000140036070 f i libucrtd:closeall.obj
 0001:000350b0       _fcloseall                 00000001400360b0 f   libucrtd:closeall.obj
 0001:000351c0       ?has_crt_buffer@__crt_stdio_stream@@QEBA_NXZ 00000001400361c0 f i libucrtd:_freebuf.obj
 0001:000351e0       __acrt_stdio_free_buffer_nolock 00000001400361e0 f   libucrtd:_freebuf.obj
 0001:00035dd0       mbstowcs_s                 0000000140036dd0 f   libucrtd:mbstowcs.obj
 0001:00036c40       wcstombs_s                 0000000140037c40 f   libucrtd:wcstombs.obj
 0001:00037330       strcat_s                   0000000140038330 f   libucrtd:strcat_s.obj
 0001:00037360       __strncnt                  0000000140038360 f   libucrtd:strncnt.obj
 0001:00037580       _commit                    0000000140038580 f   libucrtd:commit.obj
 0001:00038f70       _utf8_no_of_trailbytes     0000000140039f70 f i libucrtd:write.obj
 0001:00038f90       _write_internal            0000000140039f90 f   libucrtd:write.obj
 0001:00039330       _write_nolock              000000014003a330 f   libucrtd:write.obj
 0001:00039a00       log10                      000000014003aa00 f   libucrtd:log10.obj
 0001:00039fb0       ceil                       000000014003afb0 f   libucrtd:ceil.obj
 0001:0003a180       _controlfp_s               000000014003b180 f   libucrtd:contrlfp.obj
 0001:0003a2b0       fegetenv                   000000014003b2b0 f   libucrtd:fegetenv.obj
 0001:0003a2e0       fesetenv                   000000014003b2e0 f   libucrtd:fesetenv.obj
 0001:0003a360       feholdexcept               000000014003b360 f   libucrtd:feholdexcept.obj
 0001:0003a3d0       ??$__acrt_fenv_shift_bits@W4__acrt_fenv_abstract_control@@@@YA?AW4__acrt_fenv_abstract_control@@W40@0I@Z 000000014003b3d0 f i libucrtd:_fenvutils.obj
 0001:0003a3d0       ??$__acrt_fenv_shift_bits@W4__acrt_fenv_abstract_status@@@@YA?AW4__acrt_fenv_abstract_status@@W40@0I@Z 000000014003b3d0 f i libucrtd:_fenvutils.obj
 0001:0003a400       ??$__acrt_fenv_translate_bit@W4__acrt_fenv_abstract_control@@W4__acrt_fenv_machine_sse_control@@@@YA?AW4__acrt_fenv_abstract_control@@W4__acrt_fenv_machine_sse_control@@0W40@1@Z 000000014003b400 f i libucrtd:_fenvutils.obj
 0001:0003a460       ??$__acrt_fenv_translate_bit@W4__acrt_fenv_abstract_status@@W4__acrt_fenv_machine_sse_status@@@@YA?AW4__acrt_fenv_abstract_status@@W4__acrt_fenv_machine_sse_status@@0W40@1@Z 000000014003b460 f i libucrtd:_fenvutils.obj
 0001:0003a460       ??$__acrt_fenv_translate_bit@W4__acrt_fenv_machine_sse_status@@W4__acrt_fenv_abstract_status@@@@YA?AW4__acrt_fenv_machine_sse_status@@W4__acrt_fenv_abstract_status@@0W40@1@Z 000000014003b460 f i libucrtd:_fenvutils.obj
 0001:0003a4b0       ??$__acrt_fenv_translate_bit@W4__acrt_fenv_machine_sse_control@@W4__acrt_fenv_abstract_control@@@@YA?AW4__acrt_fenv_machine_sse_control@@W4__acrt_fenv_abstract_control@@0W40@1@Z 000000014003b4b0 f i libucrtd:_fenvutils.obj
 0001:0003a510       ??$__acrt_fenv_unshift_bits@W4__acrt_fenv_abstract_control@@@@YA?AW4__acrt_fenv_abstract_control@@W40@0I@Z 000000014003b510 f i libucrtd:_fenvutils.obj
 0001:0003a510       ??$__acrt_fenv_unshift_bits@W4__acrt_fenv_abstract_status@@@@YA?AW4__acrt_fenv_abstract_status@@W40@0I@Z 000000014003b510 f i libucrtd:_fenvutils.obj
 0001:0003aa00       ??I@YA?AW4__acrt_fenv_abstract_control@@W40@0@Z 000000014003ba00 f i libucrtd:_fenvutils.obj
 0001:0003aa00       ??I@YA?AW4__acrt_fenv_abstract_status@@W40@0@Z 000000014003ba00 f i libucrtd:_fenvutils.obj
 0001:0003aa00       ??I@YA?AW4__acrt_fenv_machine_sse_status@@W40@0@Z 000000014003ba00 f i libucrtd:_fenvutils.obj
 0001:0003aa20       ??I@YA?AW4__acrt_fenv_machine_sse_control@@W40@0@Z 000000014003ba20 f i libucrtd:_fenvutils.obj
 0001:0003aa40       ??U@YA?AW4__acrt_fenv_abstract_control@@W40@0@Z 000000014003ba40 f i libucrtd:_fenvutils.obj
 0001:0003aa40       ??U@YA?AW4__acrt_fenv_abstract_status@@W40@0@Z 000000014003ba40 f i libucrtd:_fenvutils.obj
 0001:0003aa60       ??U@YA?AW4__acrt_fenv_machine_sse_control@@W40@0@Z 000000014003ba60 f i libucrtd:_fenvutils.obj
 0001:0003aa80       ??_5@YAAEAW4__acrt_fenv_abstract_control@@AEAW40@W40@@Z 000000014003ba80 f i libucrtd:_fenvutils.obj
 0001:0003aa80       ??_5@YAAEAW4__acrt_fenv_abstract_status@@AEAW40@W40@@Z 000000014003ba80 f i libucrtd:_fenvutils.obj
 0001:0003aa80       ??_5@YAAEAW4__acrt_fenv_machine_sse_status@@AEAW40@W40@@Z 000000014003ba80 f i libucrtd:_fenvutils.obj
 0001:0003aab0       ??_5@YAAEAW4__acrt_fenv_machine_sse_control@@AEAW40@W40@@Z 000000014003bab0 f i libucrtd:_fenvutils.obj
 0001:0003aae0       ?__acrt_fenv_shift_abstract_sse_control@@YA?AW4__acrt_fenv_abstract_control@@W41@@Z 000000014003bae0 f i libucrtd:_fenvutils.obj
 0001:0003ab30       ?__acrt_fenv_shift_abstract_sse_status@@YA?AW4__acrt_fenv_abstract_status@@W41@@Z 000000014003bb30 f i libucrtd:_fenvutils.obj
 0001:0003ab60       ?__acrt_fenv_unshift_abstract_sse_control@@YA?AW4__acrt_fenv_abstract_control@@W41@@Z 000000014003bb60 f i libucrtd:_fenvutils.obj
 0001:0003abb0       ?__acrt_fenv_unshift_abstract_sse_status@@YA?AW4__acrt_fenv_abstract_status@@W41@@Z 000000014003bbb0 f i libucrtd:_fenvutils.obj
 0001:0003aea0       __acrt_fenv_get_common_round_control 000000014003bea0 f   libucrtd:_fenvutils.obj
 0001:0003aec0       __acrt_fenv_get_control    000000014003bec0 f   libucrtd:_fenvutils.obj
 0001:0003aef0       __acrt_fenv_get_status     000000014003bef0 f   libucrtd:_fenvutils.obj
 0001:0003af20       __acrt_fenv_set_control    000000014003bf20 f   libucrtd:_fenvutils.obj
 0001:0003af40       __acrt_fenv_set_status     000000014003bf40 f   libucrtd:_fenvutils.obj
 0001:0003af60       ?reset_and_return@__crt_mbstring@@YA_K_KPEAU_Mbstatet@@@Z 000000014003bf60 f   libucrtd:common_utf8.obj
 0001:0003afa0       ?return_illegal_sequence@__crt_mbstring@@YA_KPEAU_Mbstatet@@AEAV__crt_cached_ptd_host@@@Z 000000014003bfa0 f   libucrtd:common_utf8.obj
 0001:0003b000       ?__mbrtoc32_utf8@__crt_mbstring@@YA_KPEA_UPEBD_KPEAU_Mbstatet@@AEAV__crt_cached_ptd_host@@@Z 000000014003c000 f   libucrtd:mbrtoc32.obj
 0001:0003b710       fclose                     000000014003c710 f   libucrtd:fclose.obj
 0001:0003b8e0       _lseeki64_nolock_internal  000000014003c8e0 f   libucrtd:lseek.obj
 0001:0003b920       ?__wcsrtombs_utf8@__crt_mbstring@@YA_KPEADPEAPEB_W_KPEAU_Mbstatet@@AEAV__crt_cached_ptd_host@@@Z 000000014003c920 f   libucrtd:wcrtomb.obj
 0001:0003bba0       _putwch_nolock             000000014003cba0 f   libucrtd:putwch.obj
 0001:0003bbf0       __acrt_initialize_fma3     000000014003cbf0 f   libucrtd:fma3_available.obj
 0001:0003bca0       _log10_special             000000014003cca0 f   libucrtd:log_special.obj
 0001:0003bfe0       _handle_error              000000014003cfe0 f   libucrtd:libm_error.obj
 0001:0003c170       _handle_nan                000000014003d170 f   libucrtd:libm_error.obj
 0001:0003c3b0       _clearfp                   000000014003d3b0 f   libucrtd:ieee.obj
 0001:0003c3d0       _control87                 000000014003d3d0 f   libucrtd:ieee.obj
 0001:0003c8c0       _close_internal            000000014003d8c0 f   libucrtd:close.obj
 0001:0003cb80       _close_nolock_internal     000000014003db80 f   libucrtd:close.obj
 0001:0003cbf0       ?__acrt_stdio_free_stream@@YAXV__crt_stdio_stream@@@Z 000000014003dbf0 f   libucrtd:stream.obj
 0001:0003cc90       ?deallocate@__crt_stdio_stream@@QEAAXXZ 000000014003dc90 f i libucrtd:stream.obj
 0001:0003ccb0       ?__c16rtomb_utf8@__crt_mbstring@@YA_KPEAD_SPEAU_Mbstatet@@AEAV__crt_cached_ptd_host@@@Z 000000014003dcb0 f   libucrtd:c16rtomb.obj
 0001:0003d030       __dcrt_lowio_ensure_console_output_initialized 000000014003e030 f   libucrtd:initcon.obj
 0001:0003d060       __dcrt_terminate_console_output 000000014003e060 f   libucrtd:initcon.obj
 0001:0003d090       __dcrt_write_console       000000014003e090 f   libucrtd:initcon.obj
 0001:0003d0d0       _raise_exc                 000000014003e0d0 f   libucrtd:fpexcept.obj
 0001:0003d130       _raise_exc_ex              000000014003e130 f   libucrtd:fpexcept.obj
 0001:0003d7b0       _set_errno_from_matherr    000000014003e7b0 f   libucrtd:fpexcept.obj
 0001:0003d800       _clrfp                     000000014003e800 f   libucrtd:fpctrl.obj
 0001:0003d830       _ctrlfp                    000000014003e830 f   libucrtd:fpctrl.obj
 0001:0003d8e0       _set_statfp                000000014003e8e0 f   libucrtd:fpctrl.obj
 0001:0003d920       _statfp                    000000014003e920 f   libucrtd:fpctrl.obj
 0001:0003d960       _get_fpsr                  000000014003e960 f   libucrtd:fpsr.obj
 0001:0003d970       _set_fpsr                  000000014003e970 f   libucrtd:fpsr.obj
 0001:0003d97a       _fclrf                     000000014003e97a f   libucrtd:fpsr.obj
 0001:0003d98e       _frnd                      000000014003e98e f   libucrtd:fpsr.obj
 0001:0003d9b0       _FindPESection             000000014003e9b0 f   LIBCMTD:pesect.obj
 0001:0003da60       _IsNonwritableInCurrentImage 000000014003ea60 f   LIBCMTD:pesect.obj
 0001:0003daf0       _ValidateImageBase         000000014003eaf0 f   LIBCMTD:pesect.obj
 0001:0003db70       ??1type_info@@UEAA@XZ      000000014003eb70 f   LIBCMTD:std_type_info_static.obj
 0001:0003db90       ??_Etype_info@@UEAAPEAXI@Z 000000014003eb90 f i LIBCMTD:std_type_info_static.obj
 0001:0003db90       ??_Gtype_info@@UEAAPEAXI@Z 000000014003eb90 f i LIBCMTD:std_type_info_static.obj
 0001:0003dbd0       ??3@YAXPEAX_K@Z            000000014003ebd0 f   LIBCMTD:delete_scalar_size.obj
 0001:0003dbf0       __GSHandlerCheck_SEH       000000014003ebf0 f   LIBCMTD:gshandlerseh.obj
 0001:0003dcb0       __GSHandlerCheck_EH        000000014003ecb0 f   LIBCMTD:gshandlereh.obj
 0001:0003dd60       ??3@YAXPEAX@Z              000000014003ed60 f   LIBCMTD:delete_scalar.obj
 0001:0003dd80       __C_specific_handler_noexcept 000000014003ed80 f   libvcruntimed:chandler_noexcept.obj
 0001:0003de10       strrchr                    000000014003ee10 f   libvcruntimed:strrchr.obj
 0001:0003e250       _guard_dispatch_icall_nop  000000014003f250 f   LIBCMTD:guard_dispatch.obj
 0001:0003e270       _guard_xfg_dispatch_icall_nop 000000014003f270 f   LIBCMTD:guard_xfg_dispatch.obj
 0001:0003e2a0       memcpy_repmovs             000000014003f2a0 f   libvcruntimed:memcpy.obj
 0001:0003e2b0       memcpy                     000000014003f2b0 f   libvcruntimed:memcpy.obj
 0001:0003e2b0       memcpy_$fo_default$        000000014003f2b0     libvcruntimed:memcpy.obj
 0001:0003e2b0       memmove                    000000014003f2b0 f   libvcruntimed:memcpy.obj
 0001:0003e940       memset_repstos             000000014003f940 f   libvcruntimed:memset.obj
 0001:0003e950       memset                     000000014003f950 f   libvcruntimed:memset.obj
 0002:00000000       __imp_GetDeviceCaps        0000000140041000     Gdi32:GDI32.dll
 0002:00000008       __imp_StretchDIBits        0000000140041008     Gdi32:GDI32.dll
 0002:00000010       \177GDI32_NULL_THUNK_DATA  0000000140041010     Gdi32:GDI32.dll
 0002:00000018       __imp_GetConsoleMode       0000000140041018     kernel32:KERNEL32.dll
 0002:00000020       __imp_GetConsoleOutputCP   0000000140041020     kernel32:KERNEL32.dll
 0002:00000028       __imp_FlushFileBuffers     0000000140041028     kernel32:KERNEL32.dll
 0002:00000030       __imp_SetFilePointerEx     0000000140041030     kernel32:KERNEL32.dll
 0002:00000038       __imp_WriteConsoleW        0000000140041038     kernel32:KERNEL32.dll
 0002:00000040       __imp_HeapQueryInformation 0000000140041040     kernel32:KERNEL32.dll
 0002:00000048       __imp_HeapFree             0000000140041048     kernel32:KERNEL32.dll
 0002:00000050       __imp_GetProcessHeap       0000000140041050     kernel32:KERNEL32.dll
 0002:00000058       __imp_LCMapStringW         0000000140041058     kernel32:KERNEL32.dll
 0002:00000060       __imp_CreateFileW          0000000140041060     kernel32:KERNEL32.dll
 0002:00000068       __imp_HeapReAlloc          0000000140041068     kernel32:KERNEL32.dll
 0002:00000070       __imp_LeaveCriticalSection 0000000140041070     kernel32:KERNEL32.dll
 0002:00000078       __imp_FlsFree              0000000140041078     kernel32:KERNEL32.dll
 0002:00000080       __imp_CompareFileTime      0000000140041080     kernel32:KERNEL32.dll
 0002:00000088       __imp_CreateFileA          0000000140041088     kernel32:KERNEL32.dll
 0002:00000090       __imp_GetFileAttributesExA 0000000140041090     kernel32:KERNEL32.dll
 0002:00000098       __imp_GetFileSizeEx        0000000140041098     kernel32:KERNEL32.dll
 0002:000000a0       __imp_ReadFile             00000001400410a0     kernel32:KERNEL32.dll
 0002:000000a8       __imp_WriteFile            00000001400410a8     kernel32:KERNEL32.dll
 0002:000000b0       __imp_OutputDebugStringA   00000001400410b0     kernel32:KERNEL32.dll
 0002:000000b8       __imp_CloseHandle          00000001400410b8     kernel32:KERNEL32.dll
 0002:000000c0       __imp_GetLastError         00000001400410c0     kernel32:KERNEL32.dll
 0002:000000c8       __imp_QueryPerformanceCounter 00000001400410c8     kernel32:KERNEL32.dll
 0002:000000d0       __imp_QueryPerformanceFrequency 00000001400410d0     kernel32:KERNEL32.dll
 0002:000000d8       __imp_Sleep                00000001400410d8     kernel32:KERNEL32.dll
 0002:000000e0       __imp_VirtualAlloc         00000001400410e0     kernel32:KERNEL32.dll
 0002:000000e8       __imp_VirtualFree          00000001400410e8     kernel32:KERNEL32.dll
 0002:000000f0       __imp_MapViewOfFile        00000001400410f0     kernel32:KERNEL32.dll
 0002:000000f8       __imp_FreeLibrary          00000001400410f8     kernel32:KERNEL32.dll
 0002:00000100       __imp_GetModuleFileNameA   0000000140041100     kernel32:KERNEL32.dll
 0002:00000108       __imp_GetProcAddress       0000000140041108     kernel32:KERNEL32.dll
 0002:00000110       __imp_LoadLibraryA         0000000140041110     kernel32:KERNEL32.dll
 0002:00000118       __imp_CreateFileMappingA   0000000140041118     kernel32:KERNEL32.dll
 0002:00000120       __imp_CopyFileA            0000000140041120     kernel32:KERNEL32.dll
 0002:00000128       __imp_RtlCaptureContext    0000000140041128     kernel32:KERNEL32.dll
 0002:00000130       __imp_RtlLookupFunctionEntry 0000000140041130     kernel32:KERNEL32.dll
 0002:00000138       __imp_RtlVirtualUnwind     0000000140041138     kernel32:KERNEL32.dll
 0002:00000140       __imp_UnhandledExceptionFilter 0000000140041140     kernel32:KERNEL32.dll
 0002:00000148       __imp_SetUnhandledExceptionFilter 0000000140041148     kernel32:KERNEL32.dll
 0002:00000150       __imp_GetCurrentProcess    0000000140041150     kernel32:KERNEL32.dll
 0002:00000158       __imp_TerminateProcess     0000000140041158     kernel32:KERNEL32.dll
 0002:00000160       __imp_IsProcessorFeaturePresent 0000000140041160     kernel32:KERNEL32.dll
 0002:00000168       __imp_GetCurrentProcessId  0000000140041168     kernel32:KERNEL32.dll
 0002:00000170       __imp_GetCurrentThreadId   0000000140041170     kernel32:KERNEL32.dll
 0002:00000178       __imp_GetSystemTimeAsFileTime 0000000140041178     kernel32:KERNEL32.dll
 0002:00000180       __imp_InitializeSListHead  0000000140041180     kernel32:KERNEL32.dll
 0002:00000188       __imp_IsDebuggerPresent    0000000140041188     kernel32:KERNEL32.dll
 0002:00000190       __imp_GetStartupInfoW      0000000140041190     kernel32:KERNEL32.dll
 0002:00000198       __imp_GetModuleHandleW     0000000140041198     kernel32:KERNEL32.dll
 0002:000001a0       __imp_FlsSetValue          00000001400411a0     kernel32:KERNEL32.dll
 0002:000001a8       __imp_RtlUnwindEx          00000001400411a8     kernel32:KERNEL32.dll
 0002:000001b0       __imp_SetLastError         00000001400411b0     kernel32:KERNEL32.dll
 0002:000001b8       __imp_EnterCriticalSection 00000001400411b8     kernel32:KERNEL32.dll
 0002:000001c0       __imp_DeleteCriticalSection 00000001400411c0     kernel32:KERNEL32.dll
 0002:000001c8       __imp_InitializeCriticalSectionAndSpinCount 00000001400411c8     kernel32:KERNEL32.dll
 0002:000001d0       __imp_TlsAlloc             00000001400411d0     kernel32:KERNEL32.dll
 0002:000001d8       __imp_TlsGetValue          00000001400411d8     kernel32:KERNEL32.dll
 0002:000001e0       __imp_TlsSetValue          00000001400411e0     kernel32:KERNEL32.dll
 0002:000001e8       __imp_TlsFree              00000001400411e8     kernel32:KERNEL32.dll
 0002:000001f0       __imp_LoadLibraryExW       00000001400411f0     kernel32:KERNEL32.dll
 0002:000001f8       __imp_EncodePointer        00000001400411f8     kernel32:KERNEL32.dll
 0002:00000200       __imp_RaiseException       0000000140041200     kernel32:KERNEL32.dll
 0002:00000208       __imp_RtlPcToFileHeader    0000000140041208     kernel32:KERNEL32.dll
 0002:00000210       __imp_GetStdHandle         0000000140041210     kernel32:KERNEL32.dll
 0002:00000218       __imp_GetModuleFileNameW   0000000140041218     kernel32:KERNEL32.dll
 0002:00000220       __imp_ExitProcess          0000000140041220     kernel32:KERNEL32.dll
 0002:00000228       __imp_GetModuleHandleExW   0000000140041228     kernel32:KERNEL32.dll
 0002:00000230       __imp_HeapAlloc            0000000140041230     kernel32:KERNEL32.dll
 0002:00000238       __imp_HeapSize             0000000140041238     kernel32:KERNEL32.dll
 0002:00000240       __imp_HeapValidate         0000000140041240     kernel32:KERNEL32.dll
 0002:00000248       __imp_GetSystemInfo        0000000140041248     kernel32:KERNEL32.dll
 0002:00000250       __imp_OutputDebugStringW   0000000140041250     kernel32:KERNEL32.dll
 0002:00000258       __imp_FindClose            0000000140041258     kernel32:KERNEL32.dll
 0002:00000260       __imp_FindFirstFileExW     0000000140041260     kernel32:KERNEL32.dll
 0002:00000268       __imp_FindNextFileW        0000000140041268     kernel32:KERNEL32.dll
 0002:00000270       __imp_IsValidCodePage      0000000140041270     kernel32:KERNEL32.dll
 0002:00000278       __imp_GetACP               0000000140041278     kernel32:KERNEL32.dll
 0002:00000280       __imp_GetOEMCP             0000000140041280     kernel32:KERNEL32.dll
 0002:00000288       __imp_GetCPInfo            0000000140041288     kernel32:KERNEL32.dll
 0002:00000290       __imp_GetCommandLineA      0000000140041290     kernel32:KERNEL32.dll
 0002:00000298       __imp_GetCommandLineW      0000000140041298     kernel32:KERNEL32.dll
 0002:000002a0       __imp_MultiByteToWideChar  00000001400412a0     kernel32:KERNEL32.dll
 0002:000002a8       __imp_WideCharToMultiByte  00000001400412a8     kernel32:KERNEL32.dll
 0002:000002b0       __imp_GetEnvironmentStringsW 00000001400412b0     kernel32:KERNEL32.dll
 0002:000002b8       __imp_FreeEnvironmentStringsW 00000001400412b8     kernel32:KERNEL32.dll
 0002:000002c0       __imp_SetStdHandle         00000001400412c0     kernel32:KERNEL32.dll
 0002:000002c8       __imp_GetFileType          00000001400412c8     kernel32:KERNEL32.dll
 0002:000002d0       __imp_GetStringTypeW       00000001400412d0     kernel32:KERNEL32.dll
 0002:000002d8       __imp_FlsAlloc             00000001400412d8     kernel32:KERNEL32.dll
 0002:000002e0       __imp_FlsGetValue          00000001400412e0     kernel32:KERNEL32.dll
 0002:000002e8       \177KERNEL32_NULL_THUNK_DATA 00000001400412e8     kernel32:KERNEL32.dll
 0002:000002f0       __imp_TranslateMessage     00000001400412f0     user32:USER32.dll
 0002:000002f8       __imp_DispatchMessageA     00000001400412f8     user32:USER32.dll
 0002:00000300       __imp_PeekMessageA         0000000140041300     user32:USER32.dll
 0002:00000308       __imp_ScreenToClient       0000000140041308     user32:USER32.dll
 0002:00000310       __imp_GetCursorPos         0000000140041310     user32:USER32.dll
 0002:00000318       __imp_GetClientRect        0000000140041318     user32:USER32.dll
 0002:00000320       __imp_EndPaint             0000000140041320     user32:USER32.dll
 0002:00000328       __imp_BeginPaint           0000000140041328     user32:USER32.dll
 0002:00000330       __imp_ReleaseDC            0000000140041330     user32:USER32.dll
 0002:00000338       __imp_GetDC                0000000140041338     user32:USER32.dll
 0002:00000340       __imp_GetKeyState          0000000140041340     user32:USER32.dll
 0002:00000348       __imp_CreateWindowExA      0000000140041348     user32:USER32.dll
 0002:00000350       __imp_RegisterClassA       0000000140041350     user32:USER32.dll
 0002:00000358       __imp_DefWindowProcA       0000000140041358     user32:USER32.dll
 0002:00000360       __imp_wsprintfA            0000000140041360     user32:USER32.dll
 0002:00000368       \177USER32_NULL_THUNK_DATA 0000000140041368     user32:USER32.dll
 0002:00000370       __imp_timeBeginPeriod      0000000140041370     winmm:WINMM.dll
 0002:00000378       \177WINMM_NULL_THUNK_DATA  0000000140041378     winmm:WINMM.dll
 0002:00000380       __guard_check_icall_fptr   0000000140041380     LIBCMTD:guard_support.obj
 0002:00000388       __guard_xfg_check_icall_fptr 0000000140041388     LIBCMTD:guard_support.obj
 0002:00000390       __guard_dispatch_icall_fptr 0000000140041390     LIBCMTD:guard_support.obj
 0002:00000398       __guard_xfg_dispatch_icall_fptr 0000000140041398     LIBCMTD:guard_support.obj
 0002:000003a0       __guard_xfg_table_dispatch_icall_fptr 00000001400413a0     LIBCMTD:guard_support.obj
 0002:000003a8       __castguard_check_failure_os_handled_fptr 00000001400413a8     LIBCMTD:guard_support.obj
 0002:000003b0       __guard_memcpy_fptr        00000001400413b0     libvcruntimed:softmemtag.obj
 0002:000003b8       __xc_a                     00000001400413b8     LIBCMTD:initializers.obj
 0002:000003c8       __xc_z                     00000001400413c8     LIBCMTD:initializers.obj
 0002:000003d0       __xi_a                     00000001400413d0     LIBCMTD:initializers.obj
 0002:000003e8       __acrt_multibyte_initializer 00000001400413e8     libucrtd:multibyte_initializer.obj
 0002:000003f0       __acrt_fmode_initializer   00000001400413f0     libucrtd:fmode_initializer.obj
 0002:000003f8       __acrt_stdio_initializer   00000001400413f8     libucrtd:stdio_initializer.obj
 0002:00000400       __acrt_tran_fma3_initializer 0000000140041400     libucrtd:fma3_initializer.obj
 0002:00000408       __xi_z                     0000000140041408     LIBCMTD:initializers.obj
 0002:00000410       __xp_a                     0000000140041410     LIBCMTD:initializers.obj
 0002:00000418       __acrt_locale_terminator   0000000140041418     libucrtd:locale_initializer.obj
 0002:00000420       __dcrt_console_output_terminator 0000000140041420     libucrtd:console_output_initializer.obj
 0002:00000428       __acrt_stdio_terminator    0000000140041428     libucrtd:stdio_initializer.obj
 0002:00000430       __xp_z                     0000000140041430     LIBCMTD:initializers.obj
 0002:00000438       __xt_a                     0000000140041438     LIBCMTD:initializers.obj
 0002:00000440       __xt_z                     0000000140041440     LIBCMTD:initializers.obj
 0002:000005e0       __real@00000000            00000001400415e0     win32_handmade.obj
 0002:000005e4       __real@3f000000            00000001400415e4     win32_handmade.obj
 0002:000005e8       __real@3f800000            00000001400415e8     win32_handmade.obj
 0002:000005ec       __real@40000000            00000001400415ec     win32_handmade.obj
 0002:000005f0       __real@40400000            00000001400415f0     win32_handmade.obj
 0002:000005f4       __real@447a0000            00000001400415f4     win32_handmade.obj
 0002:000005f8       __real@46fffe00            00000001400415f8     win32_handmade.obj
 0002:000005fc       __real@47000000            00000001400415fc     win32_handmade.obj
 0002:00000600       __real@bf800000            0000000140041600     win32_handmade.obj
 0002:00000610       __xmm@80000000800000008000000080000000 0000000140041610     win32_handmade.obj
 0002:00000630       _pDestructExceptionObject  0000000140041630     libvcruntimed:ehhelpers.obj
 0002:00000640       ??_C@_0EK@HNOIOKGA@D?3?2a?2_work?21?2s?2src?2vctools?2crt?2@ 0000000140041640     libvcruntimed:per_thread_data.obj
 0002:00000da0       ??_C@_08EHJDFFNH@__based?$CI@ 0000000140041da0     libvcruntimed:undname.obj
 0002:00000db0       ??_C@_07KOLFKCDI@__cdecl@  0000000140041db0     libvcruntimed:undname.obj
 0002:00000db8       ??_C@_08GHMPAG@__pascal@   0000000140041db8     libvcruntimed:undname.obj
 0002:00000dc8       ??_C@_09IFJBGAPI@__stdcall@ 0000000140041dc8     libvcruntimed:undname.obj
 0002:00000dd8       ??_C@_0L@NPHFGOKO@__thiscall@ 0000000140041dd8     libvcruntimed:undname.obj
 0002:00000de8       ??_C@_0L@JMKHOMEK@__fastcall@ 0000000140041de8     libvcruntimed:undname.obj
 0002:00000df8       ??_C@_0N@BCKKPABJ@__vectorcall@ 0000000140041df8     libvcruntimed:undname.obj
 0002:00000e08       ??_C@_09HIJEGCPM@__clrcall@ 0000000140041e08     libvcruntimed:undname.obj
 0002:00000e14       ??_C@_06GHPCKEAG@__eabi@   0000000140041e14     libvcruntimed:undname.obj
 0002:00000e20       ??_C@_09IOPIDJLG@__swift_1@ 0000000140041e20     libvcruntimed:undname.obj
 0002:00000e30       ??_C@_09KFNFGKHF@__swift_2@ 0000000140041e30     libvcruntimed:undname.obj
 0002:00000e40       ??_C@_09LMMOFLDE@__swift_3@ 0000000140041e40     libvcruntimed:undname.obj
 0002:00000e50       ??_C@_07JOMMBBKO@__ptr64@  0000000140041e50     libvcruntimed:undname.obj
 0002:00000e58       ??_C@_0L@PILCLIHE@__restrict@ 0000000140041e58     libvcruntimed:undname.obj
 0002:00000e68       ??_C@_0M@GFIIJFMG@__unaligned@ 0000000140041e68     libvcruntimed:undname.obj
 0002:00000e78       ??_C@_09DHDLOLLB@restrict?$CI@ 0000000140041e78     libvcruntimed:undname.obj
 0002:00000e82       ??_C@_00CNPNBAHC@@         0000000140041e82     libvcruntimed:undname.obj
 0002:00000e84       ??_C@_04NIHEBCM@?5new@     0000000140041e84     libvcruntimed:undname.obj
 0002:00000e90       ??_C@_07FPCDHGMM@?5delete@ 0000000140041e90     libvcruntimed:undname.obj
 0002:00000e98       ??_C@_01NEMOKFLO@?$DN@     0000000140041e98     libvcruntimed:undname.obj
 0002:00000e9c       ??_C@_02GPIOPFAK@?$DO?$DO@ 0000000140041e9c     libvcruntimed:undname.obj
 0002:00000ea0       ??_C@_02FODMEDOG@?$DM?$DM@ 0000000140041ea0     libvcruntimed:undname.obj
 0002:00000ea4       ??_C@_01DCLJPIOD@?$CB@     0000000140041ea4     libvcruntimed:undname.obj
 0002:00000ea8       ??_C@_02EGOFBIJA@?$DN?$DN@ 0000000140041ea8     libvcruntimed:undname.obj
 0002:00000eac       ??_C@_02FDNJECIE@?$CB?$DN@ 0000000140041eac     libvcruntimed:undname.obj
 0002:00000eb0       ??_C@_02GPECMEKF@?$FL?$FN@ 0000000140041eb0     libvcruntimed:undname.obj
 0002:00000eb8       ??_C@_08LHJFAFGD@operator@ 0000000140041eb8     libvcruntimed:undname.obj
 0002:00000ec4       ??_C@_02HBOOOICD@?9?$DO@   0000000140041ec4     libvcruntimed:undname.obj
 0002:00000ec8       ??_C@_01NBENCBCI@?$CK@     0000000140041ec8     libvcruntimed:undname.obj
 0002:00000ecc       ??_C@_02ECNGHCIF@?$CL?$CL@ 0000000140041ecc     libvcruntimed:undname.obj
 0002:00000ed0       ??_C@_02BAABKJLB@?9?9@     0000000140041ed0     libvcruntimed:undname.obj
 0002:00000ed4       ??_C@_01JOAMLHOP@?9@       0000000140041ed4     libvcruntimed:undname.obj
 0002:00000ed8       ??_C@_01MIFGBAGJ@?$CL@     0000000140041ed8     libvcruntimed:undname.obj
 0002:00000edc       ??_C@_01HNPIGOCE@?$CG@     0000000140041edc     libvcruntimed:undname.obj
 0002:00000ee0       ??_C@_03MNHNFDLC@?9?$DO?$CK@ 0000000140041ee0     libvcruntimed:undname.obj
 0002:00000ee4       ??_C@_01KMDKNFGN@?1@       0000000140041ee4     libvcruntimed:undname.obj
 0002:00000ee8       ??_C@_01FGNFDNOH@?$CF@     0000000140041ee8     libvcruntimed:undname.obj
 0002:00000eec       ??_C@_01MNNFJEPP@?$DM@     0000000140041eec     libvcruntimed:undname.obj
 0002:00000ef0       ??_C@_02EHCHHCKH@?$DM?$DN@ 0000000140041ef0     libvcruntimed:undname.obj
 0002:00000ef4       ??_C@_01PPODPGHN@?$DO@     0000000140041ef4     libvcruntimed:undname.obj
 0002:00000ef8       ??_C@_02EEKDKGMJ@?$DO?$DN@ 0000000140041ef8     libvcruntimed:undname.obj
 0002:00000efc       ??_C@_01IHBHIGKO@?0@       0000000140041efc     libvcruntimed:undname.obj
 0002:00000f00       ??_C@_02HCKGKOFO@?$CI?$CJ@ 0000000140041f00     libvcruntimed:undname.obj
 0002:00000f04       ??_C@_01PJKLJHI@?$HO@      0000000140041f04     libvcruntimed:undname.obj
 0002:00000f08       ??_C@_01JKBOJNNK@?$FO@     0000000140041f08     libvcruntimed:undname.obj
 0002:00000f0c       ??_C@_01DNKMNLPK@?$HM@     0000000140041f0c     libvcruntimed:undname.obj
 0002:00000f10       ??_C@_02PPKAJPJL@?$CG?$CG@ 0000000140041f10     libvcruntimed:undname.obj
 0002:00000f14       ??_C@_02NONPIBCD@?$HM?$HM@ 0000000140041f14     libvcruntimed:undname.obj
 0002:00000f18       ??_C@_02FPIMKNGF@?$CK?$DN@ 0000000140041f18     libvcruntimed:undname.obj
 0002:00000f1c       ??_C@_02FOEOMHFC@?$CL?$DN@ 0000000140041f1c     libvcruntimed:undname.obj
 0002:00000f20       ??_C@_02FKMDLLOA@?9?$DN@   0000000140041f20     libvcruntimed:undname.obj
 0002:00000f24       ??_C@_02FJEHGPIO@?1?$DN@   0000000140041f24     libvcruntimed:undname.obj
 0002:00000f28       ??_C@_02FENAOKFI@?$CF?$DN@ 0000000140041f28     libvcruntimed:undname.obj
 0002:00000f2c       ??_C@_03IKFCCPFF@?$DO?$DO?$DN@ 0000000140041f2c     libvcruntimed:undname.obj
 0002:00000f30       ??_C@_03CDNPDDLA@?$DM?$DM?$DN@ 0000000140041f30     libvcruntimed:undname.obj
 0002:00000f34       ??_C@_02FGJGFEAB@?$CG?$DN@ 0000000140041f34     libvcruntimed:undname.obj
 0002:00000f38       ??_C@_02DHLNPPGH@?$HM?$DN@ 0000000140041f38     libvcruntimed:undname.obj
 0002:00000f3c       ??_C@_02MHEGNOJ@?$FO?$DN@  0000000140041f3c     libvcruntimed:undname.obj
 0002:00000f40       ??_C@_09IFPLHPGF@?$GAvftable?8@ 0000000140041f40     libvcruntimed:undname.obj
 0002:00000f50       ??_C@_09BLBHBJP@?$GAvbtable?8@ 0000000140041f50     libvcruntimed:undname.obj
 0002:00000f60       ??_C@_07FEEIOKP@?$GAvcall?8@ 0000000140041f60     libvcruntimed:undname.obj
 0002:00000f68       ??_C@_08LLFFHHDJ@?$GAtypeof?8@ 0000000140041f68     libvcruntimed:undname.obj
 0002:00000f78       ??_C@_0BF@KDPPACIK@?$GAlocal?5static?5guard?8@ 0000000140041f78     libvcruntimed:undname.obj
 0002:00000f90       ??_C@_08OBABFOLI@?$GAstring?8@ 0000000140041f90     libvcruntimed:undname.obj
 0002:00000fa0       ??_C@_0BD@JDLKDPAB@?$GAvbase?5destructor?8@ 0000000140041fa0     libvcruntimed:undname.obj
 0002:00000fb8       ??_C@_0BN@DEGPLNFK@?$GAvector?5deleting?5destructor?8@ 0000000140041fb8     libvcruntimed:undname.obj
 0002:00000fd8       ??_C@_0BO@OBMKPJIG@?$GAdefault?5constructor?5closure?8@ 0000000140041fd8     libvcruntimed:undname.obj
 0002:00000ff8       ??_C@_0BN@IMDCHIKM@?$GAscalar?5deleting?5destructor?8@ 0000000140041ff8     libvcruntimed:undname.obj
 0002:00001018       ??_C@_0BO@PFGOCPJJ@?$GAvector?5constructor?5iterator?8@ 0000000140042018     libvcruntimed:undname.obj
 0002:00001038       ??_C@_0BN@LFPFMEDL@?$GAvector?5destructor?5iterator?8@ 0000000140042038     libvcruntimed:undname.obj
 0002:00001058       ??_C@_0CE@IKBNEHA@?$GAvector?5vbase?5constructor?5itera@ 0000000140042058     libvcruntimed:undname.obj
 0002:00001080       ??_C@_0BL@NILFHHPC@?$GAvirtual?5displacement?5map?8@ 0000000140042080     libvcruntimed:undname.obj
 0002:000010a0       ??_C@_0CB@JONCMFFK@?$GAeh?5vector?5constructor?5iterator@ 00000001400420a0     libvcruntimed:undname.obj
 0002:000010c8       ??_C@_0CA@GCEOPDGL@?$GAeh?5vector?5destructor?5iterator?8@ 00000001400420c8     libvcruntimed:undname.obj
 0002:000010e8       ??_C@_0CH@OOJPLCPH@?$GAeh?5vector?5vbase?5constructor?5it@ 00000001400420e8     libvcruntimed:undname.obj
 0002:00001110       ??_C@_0BL@LLKPOHJI@?$GAcopy?5constructor?5closure?8@ 0000000140042110     libvcruntimed:undname.obj
 0002:00001130       ??_C@_0BA@KBCDOMBN@?$GAudt?5returning?8@ 0000000140042130     libvcruntimed:undname.obj
 0002:00001140       ??_C@_03KLGMFNMG@?$GAEH@   0000000140042140     libvcruntimed:undname.obj
 0002:00001144       ??_C@_05KHLCHHI@?$GARTTI@  0000000140042144     libvcruntimed:undname.obj
 0002:00001150       ??_C@_0BA@KKLDJDLB@?$GAlocal?5vftable?8@ 0000000140042150     libvcruntimed:undname.obj
 0002:00001160       ??_C@_0CE@IIHCMGGL@?$GAlocal?5vftable?5constructor?5clos@ 0000000140042160     libvcruntimed:undname.obj
 0002:00001184       ??_C@_06FHBGPFGH@?5new?$FL?$FN@ 0000000140042184     libvcruntimed:undname.obj
 0002:00001190       ??_C@_09LBNFPBCA@?5delete?$FL?$FN@ 0000000140042190     libvcruntimed:undname.obj
 0002:000011a0       ??_C@_0P@HJKNJFNN@?$GAomni?5callsig?8@ 00000001400421a0     libvcruntimed:undname.obj
 0002:000011b0       ??_C@_0BL@CNOONJFP@?$GAplacement?5delete?5closure?8@ 00000001400421b0     libvcruntimed:undname.obj
 0002:000011d0       ??_C@_0BN@CKNJLHMB@?$GAplacement?5delete?$FL?$FN?5closure?8@ 00000001400421d0     libvcruntimed:undname.obj
 0002:000011f0       ??_C@_0CG@CFDHKGGD@?$GAmanaged?5vector?5constructor?5ite@ 00000001400421f0     libvcruntimed:undname.obj
 0002:00001218       ??_C@_0CF@IMGKMJNO@?$GAmanaged?5vector?5destructor?5iter@ 0000000140042218     libvcruntimed:undname.obj
 0002:00001240       ??_C@_0CG@HLDDJMAG@?$GAeh?5vector?5copy?5constructor?5ite@ 0000000140042240     libvcruntimed:undname.obj
 0002:00001268       ??_C@_0CM@FCBBDIGB@?$GAeh?5vector?5vbase?5copy?5construct@ 0000000140042268     libvcruntimed:undname.obj
 0002:00001298       ??_C@_0BL@CLIPGLGB@?$GAdynamic?5initializer?5for?5?8@ 0000000140042298     libvcruntimed:undname.obj
 0002:000012b8       ??_C@_0CB@PDBIFEP@?$GAdynamic?5atexit?5destructor?5for?5@ 00000001400422b8     libvcruntimed:undname.obj
 0002:000012e0       ??_C@_0CD@CGAJBKEJ@?$GAvector?5copy?5constructor?5iterat@ 00000001400422e0     libvcruntimed:undname.obj
 0002:00001308       ??_C@_0CJ@GJELGAMM@?$GAvector?5vbase?5copy?5constructor?5@ 0000000140042308     libvcruntimed:undname.obj
 0002:00001338       ??_C@_0CL@FGIJHLCE@?$GAmanaged?5vector?5copy?5constructo@ 0000000140042338     libvcruntimed:undname.obj
 0002:00001368       ??_C@_0BM@PMGGMLDN@?$GAlocal?5static?5thread?5guard?8@ 0000000140042368     libvcruntimed:undname.obj
 0002:00001388       ??_C@_0N@BDNMDMOL@operator?5?$CC?$CC?5@ 0000000140042388     libvcruntimed:undname.obj
 0002:00001398       ??_C@_0BC@GGEBGALA@operator?5co_await@ 0000000140042398     libvcruntimed:undname.obj
 0002:000013b0       ??_C@_0M@GAAIMMOH@operator?$DM?$DN?$DO@ 00000001400423b0     libvcruntimed:undname.obj
 0002:000013c0       ??_C@_0BC@DAFEJGAK@?5Type?5Descriptor?8@ 00000001400423c0     libvcruntimed:undname.obj
 0002:000013d8       ??_C@_0BM@LDKODKLH@?5Base?5Class?5Descriptor?5at?5?$CI@ 00000001400423d8     libvcruntimed:undname.obj
 0002:000013f8       ??_C@_0BD@LGICGFMM@?5Base?5Class?5Array?8@ 00000001400423f8     libvcruntimed:undname.obj
 0002:00001410       ??_C@_0BN@MECKDCOJ@?5Class?5Hierarchy?5Descriptor?8@ 0000000140042410     libvcruntimed:undname.obj
 0002:00001430       ??_C@_0BK@CFCOFLF@?5Complete?5Object?5Locator?8@ 0000000140042430     libvcruntimed:undname.obj
 0002:00001450       ??_C@_0BG@JNJLAMPM@?$GAanonymous?5namespace?8@ 0000000140042450     libvcruntimed:undname.obj
 0002:00001468       ??_C@_02DKCKIIND@?$CFs@    0000000140042468     libvcruntimed:undname.obj
 0002:0000146c       ??_C@_11LOCGONAA@@         000000014004246c     libvcruntimed:undname.obj
 0002:00001488       ??_C@_1DM@KHCHBNEB@?$AAa?$AAp?$AAi?$AA?9?$AAm?$AAs?$AA?9?$AAw?$AAi?$AAn?$AA?9?$AAc?$AAo?$AAr?$AAe@ 0000000140042488     libvcruntimed:winapi_downlevel.obj
 0002:000014c8       ??_C@_1DK@LPPGFMPP@?$AAa?$AAp?$AAi?$AA?9?$AAm?$AAs?$AA?9?$AAw?$AAi?$AAn?$AA?9?$AAc?$AAo?$AAr?$AAe@ 00000001400424c8     libvcruntimed:winapi_downlevel.obj
 0002:00001508       ??_C@_1BC@GDMECMAK@?$AAk?$AAe?$AAr?$AAn?$AAe?$AAl?$AA3?$AA2@ 0000000140042508     libvcruntimed:winapi_downlevel.obj
 0002:00001520       ??_C@_17CNPHIMPH@?$AA?$CF?$AAl?$AAs@ 0000000140042520     libvcruntimed:winapi_downlevel.obj
 0002:00001528       ??_C@_1BA@PFFKHIOG@?$AAa?$AAp?$AAi?$AA?9?$AAm?$AAs?$AA?9@ 0000000140042528     libvcruntimed:winapi_downlevel.obj
 0002:00001540       ??_C@_1EM@LBIFGLGH@?$AAc?$AAa?$AAc?$AAh?$AAe?$AAd?$AA_?$AAh?$AAa?$AAn?$AAd?$AAl?$AAe?$AA?5?$AA?$DN@ 0000000140042540     libvcruntimed:winapi_downlevel.obj
 0002:00001590       ??_C@_1JG@EAIBPIGC@?$AAD?$AA?3?$AA?2?$AAa?$AA?2?$AA_?$AAw?$AAo?$AAr?$AAk?$AA?2?$AA1?$AA?2?$AAs?$AA?2@ 0000000140042590     libvcruntimed:winapi_downlevel.obj
 0002:00001628       ??_C@_1DI@MAHEDLDB@?$AAc?$AAa?$AAc?$AAh?$AAe?$AAd?$AA_?$AAh?$AAa?$AAn?$AAd?$AAl?$AAe?$AA?5?$AA?$DN@ 0000000140042628     libvcruntimed:winapi_downlevel.obj
 0002:00001660       ??_C@_1FC@IBNCGNKL@?$AAc?$AAa?$AAc?$AAh?$AAe?$AAd?$AA_?$AAf?$AAp?$AA?5?$AA?$DN?$AA?$DN?$AA?5?$AAi?$AAn@ 0000000140042660     libvcruntimed:winapi_downlevel.obj
 0002:000016b8       ??_C@_1CI@GDJBAGLP@?$AAc?$AAa?$AAc?$AAh?$AAe?$AAd?$AA_?$AAf?$AAp?$AA?5?$AA?$DN?$AA?$DN?$AA?5?$AAn?$AAe@ 00000001400426b8     libvcruntimed:winapi_downlevel.obj
 0002:000016e8       ??_C@_08KNHFBNJ@FlsAlloc@  00000001400426e8     libvcruntimed:winapi_downlevel.obj
 0002:00001700       ??_C@_07PEJMOBNF@FlsFree@  0000000140042700     libvcruntimed:winapi_downlevel.obj
 0002:00001710       ??_C@_0M@GDNOONDI@FlsGetValue@ 0000000140042710     libvcruntimed:winapi_downlevel.obj
 0002:00001728       ??_C@_0M@JCPCPOEF@FlsSetValue@ 0000000140042728     libvcruntimed:winapi_downlevel.obj
 0002:00001740       ??_C@_0BM@HCFOFFN@InitializeCriticalSectionEx@ 0000000140042740     libvcruntimed:winapi_downlevel.obj
 0002:00001800       ??_7exception@std@@6B@     0000000140042800     libvcruntimed:frame.obj
 0002:00001810       ??_C@_0BC@EOODALEL@Unknown?5exception@ 0000000140042810     libvcruntimed:frame.obj
 0002:00001830       ??_7bad_exception@std@@6B@ 0000000140042830     libvcruntimed:frame.obj
 0002:00001840       ??_C@_0O@DPKOEFFH@bad?5exception@ 0000000140042840     libvcruntimed:frame.obj
 0002:00001850       ??_C@_1FK@OACNEHHA@?$AAt?$AAo?$AA?9?$AA?$DO?$AA_?$AAW?$AAh?$AAa?$AAt?$AA?5?$AA?$DN?$AA?$DN?$AA?5?$AAn?$AAu@ 0000000140042850     libvcruntimed:std_exception.obj
 0002:000018b0       ??_C@_1IE@BLOAAGCK@?$AAD?$AA?3?$AA?2?$AAa?$AA?2?$AA_?$AAw?$AAo?$AAr?$AAk?$AA?2?$AA1?$AA?2?$AAs?$AA?2@ 00000001400428b0     libvcruntimed:std_exception.obj
 0002:00001940       __acrt_exception_action_table 0000000140042940     libucrtd:exception_filter.obj
 0002:00001a00       __acrt_signal_action_table_count 0000000140042a00     libucrtd:exception_filter.obj
 0002:00001a08       __acrt_signal_action_first_fpe_index 0000000140042a08     libucrtd:exception_filter.obj
 0002:00001a10       __acrt_signal_action_fpe_count 0000000140042a10     libucrtd:exception_filter.obj
 0002:00001a20       ??_C@_1IC@DCNEKBE@?$AAm?$AAi?$AAn?$AAk?$AAe?$AAr?$AAn?$AAe?$AAl?$AA?2?$AAc?$AAr?$AAt?$AAs?$AA?2@ 0000000140042a20     libucrtd:report_runtime_error.obj
 0002:00001aa8       ??_C@_1DI@BLFJHKKP@?$AA_?$AA_?$AAa?$AAc?$AAr?$AAt?$AA_?$AAr?$AAe?$AAp?$AAo?$AAr?$AAt?$AA_?$AAr@ 0000000140042aa8     libucrtd:report_runtime_error.obj
 0002:00001ae0       ??_C@_1LE@MHPGJGKE@?$AAw?$AAc?$AAs?$AAc?$AAp?$AAy?$AA_?$AAs?$AA?$CI?$AAo?$AAu?$AAt?$AAm?$AAs?$AAg@ 0000000140042ae0     libucrtd:report_runtime_error.obj
 0002:00001b98       ??_C@_1DE@JNGNBFGO@?$AAR?$AAu?$AAn?$AAt?$AAi?$AAm?$AAe?$AA?5?$AAE?$AAr?$AAr?$AAo?$AAr?$AA?$CB?$AA?6@ 0000000140042b98     libucrtd:report_runtime_error.obj
 0002:00001bd0       ??_C@_1HK@FJJNAABO@?$AAw?$AAc?$AAs?$AAc?$AAp?$AAy?$AA_?$AAs?$AA?$CI?$AAp?$AAr?$AAo?$AAg?$AAn?$AAa@ 0000000140042bd0     libucrtd:report_runtime_error.obj
 0002:00001c50       ??_C@_1CO@EAEJAADC@?$AA?$DM?$AAp?$AAr?$AAo?$AAg?$AAr?$AAa?$AAm?$AA?5?$AAn?$AAa?$AAm?$AAe?$AA?5?$AAu@ 0000000140042c50     libucrtd:report_runtime_error.obj
 0002:00001c80       ??_C@_1HI@FLHKGEBE@?$AAw?$AAc?$AAs?$AAn?$AAc?$AAp?$AAy?$AA_?$AAs?$AA?$CI?$AAp?$AAc?$AAh?$AA?0?$AA?5@ 0000000140042c80     libucrtd:report_runtime_error.obj
 0002:00001cf8       ??_C@_17LGKOMLJ@?$AA?4?$AA?4?$AA?4@ 0000000140042cf8     libucrtd:report_runtime_error.obj
 0002:00001d00       ??_C@_1IG@MNNKBLBI@?$AAw?$AAc?$AAs?$AAc?$AAa?$AAt?$AA_?$AAs?$AA?$CI?$AAo?$AAu?$AAt?$AAm?$AAs?$AAg@ 0000000140042d00     libucrtd:report_runtime_error.obj
 0002:00001d88       ??_C@_15IABLJNFO@?$AA?6?$AA?6@ 0000000140042d88     libucrtd:report_runtime_error.obj
 0002:00001d90       ??_C@_1IG@DFBBBDAN@?$AAw?$AAc?$AAs?$AAc?$AAa?$AAt?$AA_?$AAs?$AA?$CI?$AAo?$AAu?$AAt?$AAm?$AAs?$AAg@ 0000000140042d90     libucrtd:report_runtime_error.obj
 0002:00001e20       ??_C@_1EK@MBDPDCGA@?$AAM?$AAi?$AAc?$AAr?$AAo?$AAs?$AAo?$AAf?$AAt?$AA?5?$AAV?$AAi?$AAs?$AAu?$AAa@ 0000000140042e20     libucrtd:report_runtime_error.obj
 0002:00001e98       ??_C@_0DI@KNDIGDEP@minkernel?2crts?2ucrt?2src?2appcrt?2@ 0000000140042e98     libucrtd:argv_parsing.obj
 0002:00001ed0       ??_C@_1JO@PGBIJBAM@?$AAm?$AAo?$AAd?$AAe?$AA?5?$AA?$DN?$AA?$DN?$AA?5?$AA_?$AAc?$AAr?$AAt?$AA_?$AAa?$AAr@ 0000000140042ed0     libucrtd:argv_parsing.obj
 0002:00001f70       ??_C@_1HA@JMLCANEE@?$AAm?$AAi?$AAn?$AAk?$AAe?$AAr?$AAn?$AAe?$AAl?$AA?2?$AAc?$AAr?$AAt?$AAs?$AA?2@ 0000000140042f70     libucrtd:argv_parsing.obj
 0002:00001fe0       ??_C@_1CM@LHOJELIC@?$AAc?$AAo?$AAm?$AAm?$AAo?$AAn?$AA_?$AAc?$AAo?$AAn?$AAf?$AAi?$AAg?$AAu?$AAr@ 0000000140042fe0     libucrtd:argv_parsing.obj
 0002:00002060       ??_C@_0EG@LEHKHOEH@minkernel?2crts?2ucrt?2src?2desktop@ 0000000140043060     libucrtd:environment_initialization.obj
 0002:000020b0       ??_C@_1IM@IMOFFPLG@?$AAm?$AAi?$AAn?$AAk?$AAe?$AAr?$AAn?$AAe?$AAl?$AA?2?$AAc?$AAr?$AAt?$AAs?$AA?2@ 00000001400430b0     libucrtd:environment_initialization.obj
 0002:00002140       ??_C@_1CG@MNNNBNAK@?$AAc?$AAr?$AAe?$AAa?$AAt?$AAe?$AA_?$AAe?$AAn?$AAv?$AAi?$AAr?$AAo?$AAn?$AAm@ 0000000140043140     libucrtd:environment_initialization.obj
 0002:00002170       ??_C@_1HI@OOPIFFGA@?$AAt?$AAr?$AAa?$AAi?$AAt?$AAs?$AA?3?$AA?3?$AAt?$AAc?$AAs?$AAc?$AAp?$AAy?$AA_@ 0000000140043170     libucrtd:environment_initialization.obj
 0002:00002260       ??_C@_1BI@BGOHAHKC@?$AAm?$AAs?$AAc?$AAo?$AAr?$AAe?$AAe?$AA?4?$AAd?$AAl?$AAl@ 0000000140043260     libucrtd:exit.obj
 0002:00002278       ??_C@_0P@MIGLKIOC@CorExitProcess@ 0000000140043278     libucrtd:exit.obj
 0002:00002290       ??_C@_1GC@CIJNGKLD@?$AAm?$AAi?$AAn?$AAk?$AAe?$AAr?$AAn?$AAe?$AAl?$AA?2?$AAc?$AAr?$AAt?$AAs?$AA?2@ 0000000140043290     libucrtd:setmode.obj
 0002:00002300       ??_C@_1FO@LPCLHKGE@?$AA?$CI?$AAf?$AAh?$AA?5?$AA?$DO?$AA?$DN?$AA?5?$AA0?$AA?5?$AA?$CG?$AA?$CG?$AA?5?$AA?$CI?$AAu?$AAn@ 0000000140043300     libucrtd:setmode.obj
 0002:00002360       ??_C@_1CM@OKGMMMDH@?$AA?$CI?$AA_?$AAo?$AAs?$AAf?$AAi?$AAl?$AAe?$AA?$CI?$AAf?$AAh?$AA?$CJ?$AA?5?$AA?$CG?$AA?5@ 0000000140043360     libucrtd:setmode.obj
 0002:00002390       ??_C@_1JE@ECKHFIFP@?$AA?$CI?$AA?$CC?$AAI?$AAn?$AAv?$AAa?$AAl?$AAi?$AAd?$AA?5?$AAf?$AAi?$AAl?$AAe?$AA?5@ 0000000140043390     libucrtd:setmode.obj
 0002:00002430       ??_C@_1HC@GNDCDMJL@?$AAm?$AAo?$AAd?$AAe?$AA?5?$AA?$DN?$AA?$DN?$AA?5?$AA_?$AAO?$AA_?$AAT?$AAE?$AAX?$AAT@ 0000000140043430     libucrtd:setmode.obj
 0002:000024a8       ??_C@_1BG@IEEHLOCL@?$AA_?$AAs?$AAe?$AAt?$AA_?$AAf?$AAm?$AAo?$AAd?$AAe@ 00000001400434a8     libucrtd:setmode.obj
 0002:00002510       ??_C@_1GA@LDEGDKD@?$AA?$CI?$AA?$CC?$AAI?$AAn?$AAv?$AAa?$AAl?$AAi?$AAd?$AA?5?$AAp?$AAa?$AAr?$AAa?$AAm@ 0000000140043510     libucrtd:wsetlocale.obj
 0002:00002570       ??_C@_1GK@DPKNLBIE@?$AAm?$AAi?$AAn?$AAk?$AAe?$AAr?$AAn?$AAe?$AAl?$AA?2?$AAc?$AAr?$AAt?$AAs?$AA?2@ 0000000140043570     libucrtd:wsetlocale.obj
 0002:000025e0       ??_C@_1CI@FGIONOJM@?$AA_?$AAc?$AAo?$AAn?$AAf?$AAi?$AAg?$AAt?$AAh?$AAr?$AAe?$AAa?$AAd?$AAl?$AAo@ 00000001400435e0     libucrtd:wsetlocale.obj
 0002:00002608       ??_C@_1CO@JKFLNGDK@?$AAm?$AAo?$AAd?$AAe?$AA?5?$AA?$DN?$AA?$DN?$AA?5?$AA0?$AA?5?$AA?$HM?$AA?$HM?$AA?5?$AAm?$AAo@ 0000000140043608     libucrtd:new_mode.obj
 0002:00002640       ??_C@_1GC@PJMKBHEK@?$AAm?$AAi?$AAn?$AAk?$AAe?$AAr?$AAn?$AAe?$AAl?$AA?2?$AAc?$AAr?$AAt?$AAs?$AA?2@ 0000000140043640     libucrtd:new_mode.obj
 0002:000026a8       ??_C@_1BM@PDPAKJNF@?$AA_?$AAs?$AAe?$AAt?$AA_?$AAn?$AAe?$AAw?$AA_?$AAm?$AAo?$AAd?$AAe@ 00000001400436a8     libucrtd:new_mode.obj
 0002:00002740       ??_C@_0DC@NBHMIIKL@minkernel?2crts?2ucrt?2src?2appcrt?2@ 0000000140043740     libucrtd:onexit.obj
 0002:000028d0       ??_C@_04HJMOFLDF@Free@     00000001400438d0     libucrtd:debug_heap.obj
 0002:000028d8       ??_C@_06EFAGIKOH@Normal@   00000001400438d8     libucrtd:debug_heap.obj
 0002:000028e0       ??_C@_03OGPFLFLO@CRT@      00000001400438e0     libucrtd:debug_heap.obj
 0002:000028e4       ??_C@_06KMEJCCGM@Ignore@   00000001400438e4     libucrtd:debug_heap.obj
 0002:000028ec       ??_C@_06PJIGMIJB@Client@   00000001400438ec     libucrtd:debug_heap.obj
 0002:00002970       ??_C@_1CE@LJFEPPMP@?$AA_?$AAC?$AAr?$AAt?$AAC?$AAh?$AAe?$AAc?$AAk?$AAM?$AAe?$AAm?$AAo?$AAr?$AAy@ 0000000140043970     libucrtd:debug_heap.obj
 0002:000029a0       ??_C@_1GG@OCLHPJPK@?$AAm?$AAi?$AAn?$AAk?$AAe?$AAr?$AAn?$AAe?$AAl?$AA?2?$AAc?$AAr?$AAt?$AAs?$AA?2@ 00000001400439a0     libucrtd:debug_heap.obj
 0002:00002a08       ??_C@_0DF@BBEGIFEK@Client?5hook?5allocation?5failure?5@ 0000000140043a08     libucrtd:debug_heap.obj
 0002:00002a40       ??_C@_0CB@CCLOLAHO@Client?5hook?5allocation?5failure?4@ 0000000140043a40     libucrtd:debug_heap.obj
 0002:00002a68       ??_C@_0DC@JEMAGEKG@Error?3?5memory?5allocation?3?5bad?5m@ 0000000140043a68     libucrtd:debug_heap.obj
 0002:00002aa0       ??_C@_0DI@KKJPDPGM@Client?5hook?5re?9allocation?5failu@ 0000000140043aa0     libucrtd:debug_heap.obj
 0002:00002ad8       ??_C@_0CE@DOFMDOL@Client?5hook?5re?9allocation?5failu@ 0000000140043ad8     libucrtd:debug_heap.obj
 0002:00002b00       ??_C@_0FA@EFEIGJKG@Error?3?5memory?5allocation?3?5bad?5m@ 0000000140043b00     libucrtd:debug_heap.obj
 0002:00002b50       ??_C@_0EM@LGFLMAGJ@The?5Block?5at?50x?$CFp?5was?5allocated@ 0000000140043b50     libucrtd:debug_heap.obj
 0002:00002ba0       ??_C@_1DM@DEDLGNML@?$AA_?$AAC?$AAr?$AAt?$AAI?$AAs?$AAV?$AAa?$AAl?$AAi?$AAd?$AAH?$AAe?$AAa?$AAp@ 0000000140043ba0     libucrtd:debug_heap.obj
 0002:00002be0       ??_C@_1PC@MCGKJLN@?$AAo?$AAl?$AAd?$AA_?$AAh?$AAe?$AAa?$AAd?$AA?9?$AA?$DO?$AA_?$AAl?$AAi?$AAn?$AAe@ 0000000140043be0     libucrtd:debug_heap.obj
 0002:00002cd8       ??_C@_0DA@HFBKENN@Error?3?5possible?5heap?5corruption@ 0000000140043cd8     libucrtd:debug_heap.obj
 0002:00002d10       ??_C@_1JM@MCMEPJEP@?$AAr?$AAe?$AAa?$AAl?$AAl?$AAo?$AAc?$AAa?$AAt?$AAi?$AAo?$AAn?$AA_?$AAi?$AAs@ 0000000140043d10     libucrtd:debug_heap.obj
 0002:00002db0       ??_C@_1DM@LNOPKAIJ@?$AA_?$AA_?$AAa?$AAc?$AAr?$AAt?$AA_?$AAl?$AAa?$AAs?$AAt?$AA_?$AAb?$AAl?$AAo@ 0000000140043db0     libucrtd:debug_heap.obj
 0002:00002df0       ??_C@_1DO@HABCJBHO@?$AA_?$AA_?$AAa?$AAc?$AAr?$AAt?$AA_?$AAf?$AAi?$AAr?$AAs?$AAt?$AA_?$AAb?$AAl@ 0000000140043df0     libucrtd:debug_heap.obj
 0002:00002e30       ??_C@_1CC@CKEAHJPH@?$AAb?$AAl?$AAo?$AAc?$AAk?$AA?5?$AA?$CB?$AA?$DN?$AA?5?$AAn?$AAu?$AAl?$AAl?$AAp?$AAt@ 0000000140043e30     libucrtd:debug_heap.obj
 0002:00002e60       ??_C@_0EJ@HEIBCIMJ@The?5Block?5at?50x?$CFp?5was?5allocated@ 0000000140043e60     libucrtd:debug_heap.obj
 0002:00002eb0       ??_C@_0BL@KEIPLFAC@Client?5hook?5free?5failure?4?6@ 0000000140043eb0     libucrtd:debug_heap.obj
 0002:00002ed0       ??_C@_1FA@KDNEBILF@?$AAi?$AAs?$AA_?$AAb?$AAl?$AAo?$AAc?$AAk?$AA_?$AAt?$AAy?$AAp?$AAe?$AA_?$AAv@ 0000000140043ed0     libucrtd:debug_heap.obj
 0002:00002f20       ??_C@_0KI@JGFOHMEB@HEAP?5CORRUPTION?5DETECTED?3?5befor@ 0000000140043f20     libucrtd:debug_heap.obj
 0002:00002fd0       ??_C@_0IK@PJCGLBOB@HEAP?5CORRUPTION?5DETECTED?3?5befor@ 0000000140043fd0     libucrtd:debug_heap.obj
 0002:00003060       ??_C@_0KE@MBMNHHHN@HEAP?5CORRUPTION?5DETECTED?3?5after@ 0000000140044060     libucrtd:debug_heap.obj
 0002:00003110       ??_C@_0IG@LEMBDCJK@HEAP?5CORRUPTION?5DETECTED?3?5after@ 0000000140044110     libucrtd:debug_heap.obj
 0002:000031a0       ??_C@_1OK@GFEOEJAF@?$AAh?$AAe?$AAa?$AAd?$AAe?$AAr?$AA?9?$AA?$DO?$AA_?$AAl?$AAi?$AAn?$AAe?$AA_?$AAn@ 00000001400441a0     libucrtd:debug_heap.obj
 0002:00003290       ??_C@_1ME@GFALMLNA@?$AAh?$AAe?$AAa?$AAd?$AAe?$AAr?$AA?9?$AA?$DO?$AA_?$AAb?$AAl?$AAo?$AAc?$AAk?$AA_@ 0000000140044290     libucrtd:debug_heap.obj
 0002:00003358       ??_C@_1DI@ILNOPEPI@?$AA_?$AA_?$AAa?$AAc?$AAr?$AAt?$AA_?$AAl?$AAa?$AAs?$AAt?$AA_?$AAb?$AAl?$AAo@ 0000000140044358     libucrtd:debug_heap.obj
 0002:00003390       ??_C@_1DK@KEHFGDIJ@?$AA_?$AA_?$AAa?$AAc?$AAr?$AAt?$AA_?$AAf?$AAi?$AAr?$AAs?$AAt?$AA_?$AAb?$AAl@ 0000000140044390     libucrtd:debug_heap.obj
 0002:000033d0       ??_C@_1BG@MBKOGDLD@?$AA_?$AAm?$AAs?$AAi?$AAz?$AAe?$AA_?$AAd?$AAb?$AAg@ 00000001400443d0     libucrtd:debug_heap.obj
 0002:000033e8       ??_C@_07OHKEFPKJ@DAMAGED@  00000001400443e8     libucrtd:debug_heap.obj
 0002:000033f0       ??_C@_0KA@IHNJJKPL@HEAP?5CORRUPTION?5DETECTED?3?5on?5to@ 00000001400443f0     libucrtd:debug_heap.obj
 0002:00003490       ??_C@_0IC@BBJIOOJH@HEAP?5CORRUPTION?5DETECTED?3?5on?5to@ 0000000140044490     libucrtd:debug_heap.obj
 0002:00003520       ??_C@_0EG@DGJMPDBH@?$CFhs?5located?5at?50x?$CFp?5is?5?$CFIu?5byte@ 0000000140044520     libucrtd:debug_heap.obj
 0002:00003568       ??_C@_0CI@JMLBEDHJ@?$CFhs?5located?5at?50x?$CFp?5is?5?$CFIu?5byte@ 0000000140044568     libucrtd:debug_heap.obj
 0002:00003590       ??_C@_0EG@GPFHANHO@Cycle?5in?5block?5list?5detected?5wh@ 0000000140044590     libucrtd:debug_heap.obj
 0002:000035d8       ??_C@_0BJ@ELMAOCAJ@Heap?5validation?5failed?4?6@ 00000001400445d8     libucrtd:debug_heap.obj
 0002:00003600       ??_C@_1IE@BBIFDGEB@?$AAn?$AAe?$AAw?$AA_?$AAb?$AAi?$AAt?$AAs?$AA?5?$AA?$DN?$AA?$DN?$AA?5?$AA_?$AAC?$AAR@ 0000000140044600     libucrtd:debug_heap.obj
 0002:00003688       ??_C@_1BO@GJFDNMNF@?$AA_?$AAC?$AAr?$AAt?$AAS?$AAe?$AAt?$AAD?$AAb?$AAg?$AAF?$AAl?$AAa?$AAg@ 0000000140044688     libucrtd:debug_heap.obj
 0002:000036a8       ??_C@_1CC@BBKMONGA@?$AAs?$AAt?$AAa?$AAt?$AAe?$AA?5?$AA?$CB?$AA?$DN?$AA?5?$AAn?$AAu?$AAl?$AAl?$AAp?$AAt@ 00000001400446a8     libucrtd:debug_heap.obj
 0002:000036d0       ??_C@_1CE@NJJKELF@?$AA_?$AAC?$AAr?$AAt?$AAM?$AAe?$AAm?$AAC?$AAh?$AAe?$AAc?$AAk?$AAp?$AAo?$AAi@ 00000001400446d0     libucrtd:debug_heap.obj
 0002:000036f8       ??_C@_0DP@LEFMFBOD@Bad?5memory?5block?5found?5at?50x?$CFp?4@ 00000001400446f8     libucrtd:debug_heap.obj
 0002:00003738       ??_C@_0CB@EAAIGELO@Bad?5memory?5block?5found?5at?50x?$CFp?4@ 0000000140044738     libucrtd:debug_heap.obj
 0002:0000375c       ??_C@_05MKKEDADM@?$CF?42X?5@ 000000014004475c     libucrtd:debug_heap.obj
 0002:00003768       ??_C@_1CC@DIJAHFFJ@?$AAp?$AAr?$AAi?$AAn?$AAt?$AA_?$AAb?$AAl?$AAo?$AAc?$AAk?$AA_?$AAd?$AAa?$AAt@ 0000000140044768     libucrtd:debug_heap.obj
 0002:00003790       ??_C@_1BI@KALLJECN@?$AA?$CI?$AA?$CK?$AA_?$AAe?$AAr?$AAr?$AAn?$AAo?$AA?$CI?$AA?$CJ?$AA?$CJ@ 0000000140044790     libucrtd:debug_heap.obj
 0002:000037a8       ??_C@_0BA@HJBKCELP@?5Data?3?5?$DM?$CFs?$DO?5?$CFs?6@ 00000001400447a8     libucrtd:debug_heap.obj
 0002:000037b8       ??_C@_0BE@KCIPKCIA@Dumping?5objects?5?9?$DO?6@ 00000001400447b8     libucrtd:debug_heap.obj
 0002:000037d0       ??_C@_0BE@OIEFNFL@?$CDFile?5Error?$CD?$CI?$CFd?$CJ?5?3?5@ 00000001400447d0     libucrtd:debug_heap.obj
 0002:000037e8       ??_C@_0L@JMEFFCCJ@?$CFhs?$CI?$CFd?$CJ?5?3?5@ 00000001400447e8     libucrtd:debug_heap.obj
 0002:000037f4       ??_C@_06PKLGBFGM@?$HL?$CFld?$HN?5@ 00000001400447f4     libucrtd:debug_heap.obj
 0002:00003800       ??_C@_0DD@GHNAAKBB@client?5block?5at?50x?$CFp?0?5subtype?5?$CF@ 0000000140044800     libucrtd:debug_heap.obj
 0002:00003838       ??_C@_0CH@FAGDDGPN@normal?5block?5at?50x?$CFp?0?5?$CFIu?5bytes@ 0000000140044838     libucrtd:debug_heap.obj
 0002:00003860       ??_C@_0DA@MDLBNIBM@crt?5block?5at?50x?$CFp?0?5subtype?5?$CFx?0?5@ 0000000140044860     libucrtd:debug_heap.obj
 0002:00003890       ??_C@_0BH@GFGKJDCO@Object?5dump?5complete?4?6@ 0000000140044890     libucrtd:debug_heap.obj
 0002:000038a8       ??_C@_0BI@JBFPOEJA@Detected?5memory?5leaks?$CB?6@ 00000001400448a8     libucrtd:debug_heap.obj
 0002:000038c0       ??_C@_1GI@BBAEIKL@?$AA?$CI?$AA?$CI?$AAd?$AAe?$AAs?$AAt?$AAi?$AAn?$AAa?$AAt?$AAi?$AAo?$AAn?$AA?$CJ?$AA?$CJ@ 00000001400448c0     libucrtd:strcpy_s.obj
 0002:00003930       ??_C@_1HI@PBJPCEBC@?$AAm?$AAi?$AAn?$AAk?$AAe?$AAr?$AAn?$AAe?$AAl?$AA?2?$AAc?$AAr?$AAt?$AAs?$AA?2@ 0000000140044930     libucrtd:strcpy_s.obj
 0002:000039a8       ??_C@_1CA@FHIAGDFH@?$AAc?$AAo?$AAm?$AAm?$AAo?$AAn?$AA_?$AAt?$AAc?$AAs?$AAc?$AAp?$AAy?$AA_?$AAs@ 00000001400449a8     libucrtd:strcpy_s.obj
 0002:000039c8       ??_C@_1CK@EIOKGPJL@?$AA?$CI?$AA?$CI?$AA?$CI?$AAs?$AAo?$AAu?$AAr?$AAc?$AAe?$AA?$CJ?$AA?$CJ?$AA?$CJ?$AA?5?$AA?$CB?$AA?$DN@ 00000001400449c8     libucrtd:strcpy_s.obj
 0002:000039f8       ??_C@_1CI@HCPHDDLE@?$AAB?$AAu?$AAf?$AAf?$AAe?$AAr?$AA?5?$AAi?$AAs?$AA?5?$AAt?$AAo?$AAo?$AA?5?$AAs@ 00000001400449f8     libucrtd:strcpy_s.obj
 0002:00003a20       ??_C@_1DM@MADKGDLO@?$AA?$CI?$AAL?$AA?$CC?$AAB?$AAu?$AAf?$AAf?$AAe?$AAr?$AA?5?$AAi?$AAs?$AA?5?$AAt?$AAo@ 0000000140044a20     libucrtd:strcpy_s.obj
 0002:00003a60       ??_C@_1DA@LLLMNMKI@?$AAa?$AAb?$AAo?$AAr?$AAt?$AA?$CI?$AA?$CJ?$AA?5?$AAh?$AAa?$AAs?$AA?5?$AAb?$AAe?$AAe@ 0000000140044a60     libucrtd:abort.obj
 0002:00003a90       ?format_validation_lookup_table_spectre@__crt_stdio_output@@3V?$spectre_mitigated_lookup_table@Ustate_transition_pair@__crt_stdio_output@@$0IA@@1@B 0000000140044a90     libucrtd:output.obj
 0002:00003c30       ??_C@_1GE@DPGDJKLM@?$AAm?$AAi?$AAn?$AAk?$AAe?$AAr?$AAn?$AAe?$AAl?$AA?2?$AAc?$AAr?$AAt?$AAs?$AA?2@ 0000000140044c30     libucrtd:output.obj
 0002:00003ca0       ??_C@_1GA@MOBAPGIO@?$AAm?$AAi?$AAn?$AAk?$AAe?$AAr?$AAn?$AAe?$AAl?$AA?2?$AAc?$AAr?$AAt?$AAs?$AA?2@ 0000000140044ca0     libucrtd:output.obj
 0002:00003d00       ??_C@_1CE@EAKLPBKK@?$AAf?$AAo?$AAr?$AAm?$AAa?$AAt?$AA?5?$AA?$CB?$AA?$DN?$AA?5?$AAn?$AAu?$AAl?$AAl?$AAp@ 0000000140044d00     libucrtd:output.obj
 0002:00003d28       ??_C@_1CA@PIMGHCEK@?$AAc?$AAo?$AAm?$AAm?$AAo?$AAn?$AA_?$AAv?$AAs?$AAp?$AAr?$AAi?$AAn?$AAt?$AAf@ 0000000140044d28     libucrtd:output.obj
 0002:00003d50       ??_C@_1EO@EGEEFEFM@?$AAb?$AAu?$AAf?$AAf?$AAe?$AAr?$AA_?$AAc?$AAo?$AAu?$AAn?$AAt?$AA?5?$AA?$DN?$AA?$DN@ 0000000140044d50     libucrtd:output.obj
 0002:00003da0       ??_C@_1CE@JEILLNB@?$AAc?$AAo?$AAm?$AAm?$AAo?$AAn?$AA_?$AAv?$AAs?$AAp?$AAr?$AAi?$AAn?$AAt?$AAf@ 0000000140044da0     libucrtd:output.obj
 0002:00003dd0       ??_C@_1EM@OAFHAOLH@?$AAb?$AAu?$AAf?$AAf?$AAe?$AAr?$AA?5?$AA?$CB?$AA?$DN?$AA?5?$AAn?$AAu?$AAl?$AAl?$AAp@ 0000000140044dd0     libucrtd:output.obj
 0002:00003e20       ??_C@_1DA@HPBFKMEB@?$AA?$CI?$AA?$CC?$AAB?$AAu?$AAf?$AAf?$AAe?$AAr?$AA?5?$AAt?$AAo?$AAo?$AA?5?$AAs?$AAm@ 0000000140044e20     libucrtd:output.obj
 0002:00003e50       ??_C@_1CG@LHFJHFBB@?$AAc?$AAo?$AAm?$AAm?$AAo?$AAn?$AA_?$AAv?$AAs?$AAn?$AAp?$AAr?$AAi?$AAn?$AAt@ 0000000140044e50     libucrtd:output.obj
 0002:00003e78       ??_C@_1CM@JOIJBMEM@?$AA_?$AAf?$AAo?$AAr?$AAm?$AAa?$AAt?$AA_?$AAi?$AAt?$AA?5?$AA?$CB?$AA?$DN?$AA?5?$AAn@ 0000000140044e78     libucrtd:output.obj
 0002:00003eb0       ??_C@_1HA@DMAAKIJP@?$AAm?$AAi?$AAn?$AAk?$AAe?$AAr?$AAn?$AAe?$AAl?$AA?2?$AAc?$AAr?$AAt?$AAs?$AA?2@ 0000000140044eb0     libucrtd:output.obj
 0002:00003f20       ??_C@_1EE@DMAIGNBG@?$AA?$CI?$AA?$CC?$AAI?$AAn?$AAc?$AAo?$AAr?$AAr?$AAe?$AAc?$AAt?$AA?5?$AAf?$AAo?$AAr@ 0000000140044f20     libucrtd:output.obj
 0002:00003f70       ??_C@_1FG@OBJBDPAC@?$AA?$CI?$AA?$CC?$AAN?$AA?5?$AAl?$AAe?$AAn?$AAg?$AAt?$AAh?$AA?5?$AAm?$AAo?$AAd?$AAi@ 0000000140044f70     libucrtd:output.obj
 0002:00003fd0       ??_C@_1EC@GJPNJDCN@?$AA_?$AAl?$AAe?$AAn?$AAg?$AAt?$AAh?$AA?5?$AA?$DN?$AA?$DN?$AA?5?$AAl?$AAe?$AAn?$AAg@ 0000000140044fd0     libucrtd:output.obj
 0002:00004018       ??_C@_1DG@CEJKFDMO@?$AAs?$AAt?$AAa?$AAt?$AAe?$AA_?$AAc?$AAa?$AAs?$AAe?$AA_?$AAn?$AAo?$AAr?$AAm@ 0000000140045018     libucrtd:output.obj
 0002:00004050       ??_C@_1CI@DDKMNCPP@?$AA_?$AAc?$AAo?$AAn?$AAt?$AAe?$AAx?$AAt?$AA?5?$AA?$CB?$AA?$DN?$AA?5?$AAn?$AAu?$AAl@ 0000000140045050     libucrtd:output.obj
 0002:00004080       ??_C@_1HK@IIPGOADH@?$AA_?$AA_?$AAc?$AAr?$AAt?$AA_?$AAs?$AAt?$AAd?$AAi?$AAo?$AA_?$AAo?$AAu?$AAt@ 0000000140045080     libucrtd:output.obj
 0002:00004100       ??_C@_1HE@IACOMEJF@?$AA_?$AA_?$AAc?$AAr?$AAt?$AA_?$AAs?$AAt?$AAd?$AAi?$AAo?$AA_?$AAo?$AAu?$AAt@ 0000000140045100     libucrtd:output.obj
 0002:00004180       ??_C@_1GC@BNMHNGKM@?$AA_?$AAs?$AAt?$AAa?$AAt?$AAe?$AA?5?$AA?$DN?$AA?$DN?$AA?5?$AAs?$AAt?$AAa?$AAt?$AAe@ 0000000140045180     libucrtd:output.obj
 0002:000041f0       ??_C@_1EK@PNGFDECN@?$AA?$CI?$AA?$CC?$AA?8?$AAn?$AA?8?$AA?5?$AAf?$AAo?$AAr?$AAm?$AAa?$AAt?$AA?5?$AAs?$AAp@ 00000001400451f0     libucrtd:output.obj
 0002:00004240       ??_C@_1EO@GHKFGFKL@?$AA?$CI?$AA?$CC?$AAI?$AAn?$AAv?$AAa?$AAl?$AAi?$AAd?$AA?5?$AAi?$AAn?$AAt?$AAe?$AAg@ 0000000140045240     libucrtd:output.obj
 0002:00004290       ??_C@_1BEC@NDOOKIMC@?$AA_?$AA_?$AAc?$AAr?$AAt?$AA_?$AAs?$AAt?$AAd?$AAi?$AAo?$AA_?$AAo?$AAu?$AAt@ 0000000140045290     libucrtd:output.obj
 0002:000043e0       ??_C@_1BDG@KOLEFKPF@?$AA_?$AA_?$AAc?$AAr?$AAt?$AA_?$AAs?$AAt?$AAd?$AAi?$AAo?$AA_?$AAo?$AAu?$AAt@ 00000001400453e0     libucrtd:output.obj
 0002:00004518       ??_C@_1O@CEDCILHN@?$AA?$CI?$AAn?$AAu?$AAl?$AAl?$AA?$CJ@ 0000000140045518     libucrtd:output.obj
 0002:00004528       ??_C@_06OJHGLDPL@?$CInull?$CJ@ 0000000140045528     libucrtd:output.obj
 0002:00004530       ??_C@_1CK@LGDCECDH@?$AA_?$AAf?$AAo?$AAr?$AAm?$AAa?$AAt?$AA_?$AAc?$AAh?$AAa?$AAr?$AA?5?$AA?$CB?$AA?$DN@ 0000000140045530     libucrtd:output.obj
 0002:00004560       ??_C@_0DI@KIFBHMNO@minkernel?2crts?2ucrt?2inc?2corecrt@ 0000000140045560     libucrtd:output.obj
 0002:000045a0       ??_C@_1BMK@JGIBNIA@?$AA_?$AA_?$AAc?$AAr?$AAt?$AA_?$AAs?$AAt?$AAd?$AAi?$AAo?$AA_?$AAo?$AAu?$AAt@ 00000001400455a0     libucrtd:output.obj
 0002:00004770       ??_C@_1BLC@INKIGOCN@?$AA_?$AA_?$AAc?$AAr?$AAt?$AA_?$AAs?$AAt?$AAd?$AAi?$AAo?$AA_?$AAo?$AAu?$AAt@ 0000000140045770     libucrtd:output.obj
 0002:00004930       ??_C@_1BNK@KHNJGCCP@?$AA_?$AA_?$AAc?$AAr?$AAt?$AA_?$AAs?$AAt?$AAd?$AAi?$AAo?$AA_?$AAo?$AAu?$AAt@ 0000000140045930     libucrtd:output.obj
 0002:00004b10       ??_C@_1BNO@OHFFMOOJ@?$AA_?$AA_?$AAc?$AAr?$AAt?$AA_?$AAs?$AAt?$AAd?$AAi?$AAo?$AA_?$AAo?$AAu?$AAt@ 0000000140045b10     libucrtd:output.obj
 0002:00004cf0       ??_C@_1BMC@FAGJFBLI@?$AA_?$AA_?$AAc?$AAr?$AAt?$AA_?$AAs?$AAt?$AAd?$AAi?$AAo?$AA_?$AAo?$AAu?$AAt@ 0000000140045cf0     libucrtd:output.obj
 0002:00004ec0       ??_C@_1BMG@CGPDIFDK@?$AA_?$AA_?$AAc?$AAr?$AAt?$AA_?$AAs?$AAt?$AAd?$AAi?$AAo?$AA_?$AAo?$AAu?$AAt@ 0000000140045ec0     libucrtd:output.obj
 0002:00005090       ??_C@_1BNC@OHPDPPJK@?$AA_?$AA_?$AAc?$AAr?$AAt?$AA_?$AAs?$AAt?$AAd?$AAi?$AAo?$AA_?$AAo?$AAu?$AAt@ 0000000140046090     libucrtd:output.obj
 0002:00005270       ??_C@_1BLK@FOLFMPJH@?$AA_?$AA_?$AAc?$AAr?$AAt?$AA_?$AAs?$AAt?$AAd?$AAi?$AAo?$AA_?$AAo?$AAu?$AAt@ 0000000140046270     libucrtd:output.obj
 0002:00005430       ??_C@_1BNC@JPKLPOHO@?$AA_?$AA_?$AAc?$AAr?$AAt?$AA_?$AAs?$AAt?$AAd?$AAi?$AAo?$AA_?$AAo?$AAu?$AAt@ 0000000140046430     libucrtd:output.obj
 0002:00005610       ??_C@_1EO@MLJCKPIB@?$AAb?$AAa?$AAs?$AAe?$AA?5?$AA?$DN?$AA?$DN?$AA?5?$AA0?$AA?5?$AA?$HM?$AA?$HM?$AA?5?$AA?$CI?$AA2@ 0000000140046610     libucrtd:output.obj
 0002:00005660       ??_C@_1DI@BANODKFL@?$AA_?$AA_?$AAc?$AAr?$AAt?$AA_?$AAs?$AAt?$AAr?$AAt?$AAo?$AAx?$AA?3?$AA?3?$AAp@ 0000000140046660     libucrtd:output.obj
 0002:000056a0       ??_C@_1BNO@NAODCKFA@?$AA_?$AA_?$AAc?$AAr?$AAt?$AA_?$AAs?$AAt?$AAd?$AAi?$AAo?$AA_?$AAo?$AAu?$AAt@ 00000001400466a0     libucrtd:output.obj
 0002:00005880       ??_C@_1BMG@BBEFGBID@?$AA_?$AA_?$AAc?$AAr?$AAt?$AA_?$AAs?$AAt?$AAd?$AAi?$AAo?$AA_?$AAo?$AAu?$AAt@ 0000000140046880     libucrtd:output.obj
 0002:00005a48       ??_C@_1CM@GJENOOEJ@?$AAc?$AA?5?$AA?$DN?$AA?$DN?$AA?5?$AA?8?$AA?2?$AA0?$AA?8?$AA?5?$AA?$HM?$AA?$HM?$AA?5?$AA?$CK?$AA_@ 0000000140046a48     libucrtd:output.obj
 0002:00005a80       ??_C@_1GK@MNHIDABG@?$AA_?$AA_?$AAc?$AAr?$AAt?$AA_?$AAs?$AAt?$AAr?$AAt?$AAo?$AAx?$AA?3?$AA?3?$AAc@ 0000000140046a80     libucrtd:output.obj
 0002:00005af0       ??_C@_1BM@PNEBBBDO@?$AA_?$AAp?$AA?5?$AA?$CB?$AA?$DN?$AA?5?$AAn?$AAu?$AAl?$AAl?$AAp?$AAt?$AAr@ 0000000140046af0     libucrtd:output.obj
 0002:00005b10       ??_C@_1HA@MKKIHBHP@?$AA_?$AA_?$AAc?$AAr?$AAt?$AA_?$AAs?$AAt?$AAr?$AAt?$AAo?$AAx?$AA?3?$AA?3?$AAc@ 0000000140046b10     libucrtd:output.obj
 0002:00005b80       ??_C@_1HA@CONLANFI@?$AA_?$AA_?$AAc?$AAr?$AAt?$AA_?$AAs?$AAt?$AAr?$AAt?$AAo?$AAx?$AA?3?$AA?3?$AAc@ 0000000140046b80     libucrtd:output.obj
 0002:00005bf0       ??_C@_1HG@FCDBLOEG@?$AA_?$AA_?$AAc?$AAr?$AAt?$AA_?$AAs?$AAt?$AAr?$AAt?$AAo?$AAx?$AA?3?$AA?3?$AAc@ 0000000140046bf0     libucrtd:output.obj
 0002:00005c80       ??_C@_1BA@GLMCNLEM@?$AAW?$AAa?$AAr?$AAn?$AAi?$AAn?$AAg@ 0000000140046c80     libucrtd:dbgrpt.obj
 0002:00005c90       ??_C@_1M@ILHOPKA@?$AAE?$AAr?$AAr?$AAo?$AAr@ 0000000140046c90     libucrtd:dbgrpt.obj
 0002:00005ca0       ??_C@_1CC@CGHMNGDG@?$AAA?$AAs?$AAs?$AAe?$AAr?$AAt?$AAi?$AAo?$AAn?$AA?5?$AAF?$AAa?$AAi?$AAl?$AAe@ 0000000140046ca0     libucrtd:dbgrpt.obj
 0002:00005cd0       ??_C@_1OG@PMPPFHAF@?$AA?6?$AA?6?$AAF?$AAo?$AAr?$AA?5?$AAi?$AAn?$AAf?$AAo?$AAr?$AAm?$AAa?$AAt?$AAi@ 0000000140046cd0     libucrtd:dbgrpt.obj
 0002:00005dc0       ??_C@_1MG@LJLILFFD@?$AAD?$AAe?$AAb?$AAu?$AAg?$AA?5?$AA?$CF?$AAl?$AAs?$AA?$CB?$AA?6?$AA?6?$AAP?$AAr?$AAo@ 0000000140046dc0     libucrtd:dbgrpt.obj
 0002:00005e90       ??_C@_1MG@OODCADGL@?$AAD?$AAe?$AAb?$AAu?$AAg?$AA?5?$AA?$CF?$AAl?$AAs?$AA?$CB?$AA?6?$AA?6?$AAP?$AAr?$AAo@ 0000000140046e90     libucrtd:dbgrpt.obj
 0002:00005f58       ??_C@_0BH@DNAGHKFM@?$DMprogram?5name?5unknown?$DO@ 0000000140046f58     libucrtd:dbgrpt.obj
 0002:00005f70       ??_C@_1FO@GMJDLAJD@?$AAm?$AAi?$AAn?$AAk?$AAe?$AAr?$AAn?$AAe?$AAl?$AA?2?$AAc?$AAr?$AAt?$AAs?$AA?2@ 0000000140046f70     libucrtd:dbgrpt.obj
 0002:00005fd0       ??_C@_1CM@EHMOGBJJ@?$AAc?$AAo?$AAm?$AAm?$AAo?$AAn?$AA_?$AAm?$AAe?$AAs?$AAs?$AAa?$AAg?$AAe?$AA_@ 0000000140046fd0     libucrtd:dbgrpt.obj
 0002:00006000       ??_C@_1PE@ECNALGCA@?$AAt?$AAr?$AAa?$AAi?$AAt?$AAs?$AA?3?$AA?3?$AAt?$AAc?$AAs?$AAc?$AAp?$AAy?$AA_@ 0000000140047000     libucrtd:dbgrpt.obj
 0002:000060f8       ??_C@_1BK@PEDCIPMA@?$AAE?$AAx?$AAp?$AAr?$AAe?$AAs?$AAs?$AAi?$AAo?$AAn?$AA?3?$AA?5@ 00000001400470f8     libucrtd:dbgrpt.obj
 0002:00006118       ??_C@_1BA@GLLGCPCK@?$AA?6?$AAL?$AAi?$AAn?$AAe?$AA?3?$AA?5@ 0000000140047118     libucrtd:dbgrpt.obj
 0002:00006128       ??_C@_1BA@LNHECFIM@?$AA?6?$AAF?$AAi?$AAl?$AAe?$AA?3?$AA?5@ 0000000140047128     libucrtd:dbgrpt.obj
 0002:00006138       ??_C@_1BE@CGCJKGHI@?$AA?6?$AAM?$AAo?$AAd?$AAu?$AAl?$AAe?$AA?3?$AA?5@ 0000000140047138     libucrtd:dbgrpt.obj
 0002:00006150       ??_C@_1JM@IBOIJEOO@?$AAw?$AAc?$AAs?$AAc?$AAp?$AAy?$AA_?$AAs?$AA?$CI?$AAm?$AAe?$AAs?$AAs?$AAa?$AAg@ 0000000140047150     libucrtd:dbgrpt.obj
 0002:000061f0       ??_C@_1FG@BBOLDHGF@?$AA_?$AAC?$AAr?$AAt?$AAD?$AAb?$AAg?$AAR?$AAe?$AAp?$AAo?$AAr?$AAt?$AA?3?$AA?5@ 00000001400471f0     libucrtd:dbgrpt.obj
 0002:00006340       ??_C@_0DM@DKIFNNOL@minkernel?2crts?2ucrt?2src?2appcrt?2@ 0000000140047340     libucrtd:per_thread_data.obj
 0002:00006380       ??_C@_1DE@BCNCAIK@?$AA?$CI?$AA?$CC?$AAI?$AAn?$AAv?$AAa?$AAl?$AAi?$AAd?$AA?5?$AAe?$AAr?$AAr?$AAo?$AAr@ 0000000140047380     libucrtd:set_error_mode.obj
 0002:000063c0       ??_C@_1GO@EBFPMMIJ@?$AAm?$AAi?$AAn?$AAk?$AAe?$AAr?$AAn?$AAe?$AAl?$AA?2?$AAc?$AAr?$AAt?$AAs?$AA?2@ 00000001400473c0     libucrtd:set_error_mode.obj
 0002:00006430       ??_C@_1CA@LFDHAMEM@?$AA_?$AAs?$AAe?$AAt?$AA_?$AAe?$AAr?$AAr?$AAo?$AAr?$AA_?$AAm?$AAo?$AAd?$AAe@ 0000000140047430     libucrtd:set_error_mode.obj
 0002:00006450       ??_C@_1CA@EOJJMFA@?$AAc?$AAo?$AAm?$AAm?$AAo?$AAn?$AA_?$AAt?$AAc?$AAs?$AAc?$AAa?$AAt?$AA_?$AAs@ 0000000140047450     libucrtd:wcscat_s.obj
 0002:00006470       ??_C@_1DM@FHLMIEG@?$AAS?$AAt?$AAr?$AAi?$AAn?$AAg?$AA?5?$AAi?$AAs?$AA?5?$AAn?$AAo?$AAt?$AA?5?$AAn@ 0000000140047470     libucrtd:wcscat_s.obj
 0002:000064b0       ??_C@_1FA@MJKDNFFB@?$AA?$CI?$AAL?$AA?$CC?$AAS?$AAt?$AAr?$AAi?$AAn?$AAg?$AA?5?$AAi?$AAs?$AA?5?$AAn?$AAo@ 00000001400474b0     libucrtd:wcscat_s.obj
 0002:00006500       ??_C@_1CC@CHNFGJIC@?$AAc?$AAo?$AAm?$AAm?$AAo?$AAn?$AA_?$AAt?$AAc?$AAs?$AAn?$AAc?$AAp?$AAy?$AA_@ 0000000140047500     libucrtd:wcsncpy_s.obj
 0002:00006698       ??_C@_1CE@JMFACANE@?$AAr?$AAe?$AAs?$AAu?$AAl?$AAt?$AA?5?$AA?$CB?$AA?$DN?$AA?5?$AAn?$AAu?$AAl?$AAl?$AAp@ 0000000140047698     libucrtd:errno.obj
 0002:00006738       ??_C@_0DI@DNFGFCIK@minkernel?2crts?2ucrt?2inc?2corecrt@ 0000000140047738     libucrtd:argv_wildcards.obj
 0002:00006770       ??_C@_1HE@CEMHPOHH@?$AAm?$AAi?$AAn?$AAk?$AAe?$AAr?$AAn?$AAe?$AAl?$AA?2?$AAc?$AAr?$AAt?$AAs?$AA?2@ 0000000140047770     libucrtd:argv_wildcards.obj
 0002:000067e8       ??_C@_1DK@IBFFOJGB@?$AAc?$AAo?$AAm?$AAm?$AAo?$AAn?$AA_?$AAe?$AAx?$AAp?$AAa?$AAn?$AAd?$AA_?$AAa@ 00000001400477e8     libucrtd:argv_wildcards.obj
 0002:00006830       ??_C@_1MC@FLPKOFON@?$AAt?$AAr?$AAa?$AAi?$AAt?$AAs?$AA?3?$AA?3?$AAt?$AAc?$AAs?$AAn?$AAc?$AAp?$AAy@ 0000000140047830     libucrtd:argv_wildcards.obj
 0002:000068f8       ??_C@_0DK@FPFMIIJB@minkernel?2crts?2ucrt?2src?2appcrt?2@ 00000001400478f8     libucrtd:argv_wildcards.obj
 0002:00006940       ??_C@_1EA@KOCCBLAD@?$AAc?$AAo?$AAp?$AAy?$AA_?$AAa?$AAn?$AAd?$AA_?$AAa?$AAd?$AAd?$AA_?$AAa?$AAr@ 0000000140047940     libucrtd:argv_wildcards.obj
 0002:00006980       ??_C@_1KM@GDJIGAGL@?$AAt?$AAr?$AAa?$AAi?$AAt?$AAs?$AA?3?$AA?3?$AAt?$AAc?$AAs?$AAn?$AAc?$AAp?$AAy@ 0000000140047980     libucrtd:argv_wildcards.obj
 0002:00006a30       ??_C@_1PI@FGFLAGCC@?$AAt?$AAr?$AAa?$AAi?$AAt?$AAs?$AA?3?$AA?3?$AAt?$AAc?$AAs?$AAn?$AAc?$AAp?$AAy@ 0000000140047a30     libucrtd:argv_wildcards.obj
 0002:00006b70       ??_C@_1M@HPNHIDJI@?$AAj?$AAa?$AA?9?$AAJ?$AAP@ 0000000140047b70     libucrtd:mbctype.obj
 0002:00006b80       ??_C@_1M@BIBDDEMK@?$AAz?$AAh?$AA?9?$AAC?$AAN@ 0000000140047b80     libucrtd:mbctype.obj
 0002:00006b90       ??_C@_1M@JLOOOEGK@?$AAk?$AAo?$AA?9?$AAK?$AAR@ 0000000140047b90     libucrtd:mbctype.obj
 0002:00006ba0       ??_C@_1M@CLNBBOPM@?$AAz?$AAh?$AA?9?$AAT?$AAW@ 0000000140047ba0     libucrtd:mbctype.obj
 0002:00006c00       ??_C@_0DE@HGDKNBFD@minkernel?2crts?2ucrt?2src?2appcrt?2@ 0000000140047c00     libucrtd:mbctype.obj
 0002:00006c40       ??_C@_0ED@BLPEHJAI@minkernel?2crts?2ucrt?2src?2desktop@ 0000000140047c40     libucrtd:get_environment_from_os.obj
 0002:00006c90       ??_C@_1FO@NMANMHOD@?$AAc?$AAa?$AAc?$AAh?$AAe?$AAd?$AA_?$AAs?$AAt?$AAa?$AAt?$AAe?$AA?5?$AA?$DN?$AA?$DN@ 0000000140047c90     libucrtd:win_policies.obj
 0002:00006cf0       ??_C@_1HC@GHLNKBJK@?$AAm?$AAi?$AAn?$AAk?$AAe?$AAr?$AAn?$AAe?$AAl?$AA?2?$AAc?$AAr?$AAt?$AAs?$AA?2@ 0000000140047cf0     libucrtd:win_policies.obj
 0002:00006d68       ??_C@_0DB@JFFPGLDM@minkernel?2crts?2ucrt?2src?2appcrt?2@ 0000000140047d68     libucrtd:osfinfo.obj
 0002:00006da0       ??_C@_1EM@BPODPNEJ@?$AAs?$AAt?$AAa?$AAt?$AAi?$AAc?$AA_?$AAc?$AAa?$AAs?$AAt?$AA?$DM?$AAu?$AAn?$AAs@ 0000000140047da0     libucrtd:osfinfo.obj
 0002:00006df0       ??_C@_1GC@LDGKBAFM@?$AAm?$AAi?$AAn?$AAk?$AAe?$AAr?$AAn?$AAe?$AAl?$AA?2?$AAc?$AAr?$AAt?$AAs?$AA?2@ 0000000140047df0     libucrtd:osfinfo.obj
 0002:00006e58       ??_C@_1DM@JELNOMLN@?$AA_?$AA_?$AAa?$AAc?$AAr?$AAt?$AA_?$AAl?$AAo?$AAw?$AAi?$AAo?$AA_?$AAe?$AAn@ 0000000140047e58     libucrtd:osfinfo.obj
 0002:00006ea0       ??_C@_1FK@MGHFJLAL@?$AAf?$AAh?$AA?5?$AA?$DO?$AA?$DN?$AA?5?$AA0?$AA?5?$AA?$CG?$AA?$CG?$AA?5?$AA?$CI?$AAu?$AAn?$AAs@ 0000000140047ea0     libucrtd:osfinfo.obj
 0002:00006f00       ??_C@_1BO@EMBOBGKE@?$AA_?$AAg?$AAe?$AAt?$AA_?$AAo?$AAs?$AAf?$AAh?$AAa?$AAn?$AAd?$AAl?$AAe@ 0000000140047f00     libucrtd:osfinfo.obj
 0002:00006f20       ??_C@_1CI@ILOIOBLM@?$AA_?$AAo?$AAs?$AAf?$AAi?$AAl?$AAe?$AA?$CI?$AAf?$AAh?$AA?$CJ?$AA?5?$AA?$CG?$AA?5?$AAF@ 0000000140047f20     libucrtd:osfinfo.obj
 0002:00006f50       __lc_time_c                0000000140047f50     libucrtd:nlsdata.obj
 0002:00007210       ??_C@_03KOEHGMDN@Sun@      0000000140048210     libucrtd:nlsdata.obj
 0002:00007214       ??_C@_03PDAGKDH@Mon@       0000000140048214     libucrtd:nlsdata.obj
 0002:00007218       ??_C@_03NAGEINEP@Tue@      0000000140048218     libucrtd:nlsdata.obj
 0002:0000721c       ??_C@_03MHOMLAJA@Wed@      000000014004821c     libucrtd:nlsdata.obj
 0002:00007220       ??_C@_03IOFIKPDN@Thu@      0000000140048220     libucrtd:nlsdata.obj
 0002:00007224       ??_C@_03IDIOELNC@Fri@      0000000140048224     libucrtd:nlsdata.obj
 0002:00007228       ??_C@_03FEFJNEK@Sat@       0000000140048228     libucrtd:nlsdata.obj
 0002:0000722c       ??_C@_06OOPIFAJ@Sunday@    000000014004822c     libucrtd:nlsdata.obj
 0002:00007234       ??_C@_06JLEDEDGH@Monday@   0000000140048234     libucrtd:nlsdata.obj
 0002:00007240       ??_C@_07BAAGCFCM@Tuesday@  0000000140048240     libucrtd:nlsdata.obj
 0002:00007248       ??_C@_09DLIGFAKA@Wednesday@ 0000000140048248     libucrtd:nlsdata.obj
 0002:00007258       ??_C@_08HACCIKIA@Thursday@ 0000000140048258     libucrtd:nlsdata.obj
 0002:00007264       ??_C@_06JECMNKMI@Friday@   0000000140048264     libucrtd:nlsdata.obj
 0002:00007270       ??_C@_08INBOOONO@Saturday@ 0000000140048270     libucrtd:nlsdata.obj
 0002:0000727c       ??_C@_03JIHJHPIE@Jan@      000000014004827c     libucrtd:nlsdata.obj
 0002:00007280       ??_C@_03HJBDCHOM@Feb@      0000000140048280     libucrtd:nlsdata.obj
 0002:00007284       ??_C@_03ODNJBKGA@Mar@      0000000140048284     libucrtd:nlsdata.obj
 0002:00007288       ??_C@_03LEOLGMJP@Apr@      0000000140048288     libucrtd:nlsdata.obj
 0002:0000728c       ??_C@_03CNMDKL@May@        000000014004828c     libucrtd:nlsdata.obj
 0002:00007290       ??_C@_03IDFGHECI@Jun@      0000000140048290     libucrtd:nlsdata.obj
 0002:00007294       ??_C@_03LBGABGKK@Jul@      0000000140048294     libucrtd:nlsdata.obj
 0002:00007298       ??_C@_03IFJFEIGA@Aug@      0000000140048298     libucrtd:nlsdata.obj
 0002:0000729c       ??_C@_03GGCAPAJC@Sep@      000000014004829c     libucrtd:nlsdata.obj
 0002:000072a0       ??_C@_03BMAOKBAD@Oct@      00000001400482a0     libucrtd:nlsdata.obj
 0002:000072a4       ??_C@_03JPJOFNIA@Nov@      00000001400482a4     libucrtd:nlsdata.obj
 0002:000072a8       ??_C@_03MKABNOCG@Dec@      00000001400482a8     libucrtd:nlsdata.obj
 0002:000072b0       ??_C@_07CGJPFGJA@January@  00000001400482b0     libucrtd:nlsdata.obj
 0002:000072b8       ??_C@_08GNJGEPFN@February@ 00000001400482b8     libucrtd:nlsdata.obj
 0002:000072c4       ??_C@_05HPCKOFNC@March@    00000001400482c4     libucrtd:nlsdata.obj
 0002:000072cc       ??_C@_05DMJDNLEJ@April@    00000001400482cc     libucrtd:nlsdata.obj
 0002:000072d4       ??_C@_04CNLMGBGM@June@     00000001400482d4     libucrtd:nlsdata.obj
 0002:000072dc       ??_C@_04MIEPOIFP@July@     00000001400482dc     libucrtd:nlsdata.obj
 0002:000072e4       ??_C@_06LBBHFDDG@August@   00000001400482e4     libucrtd:nlsdata.obj
 0002:000072f0       ??_C@_09BHHEALKD@September@ 00000001400482f0     libucrtd:nlsdata.obj
 0002:00007300       ??_C@_07JJNFCEND@October@  0000000140048300     libucrtd:nlsdata.obj
 0002:00007308       ??_C@_08HCHEGEOA@November@ 0000000140048308     libucrtd:nlsdata.obj
 0002:00007318       ??_C@_08EDHMEBNP@December@ 0000000140048318     libucrtd:nlsdata.obj
 0002:00007324       ??_C@_02DEDBPAFC@AM@       0000000140048324     libucrtd:nlsdata.obj
 0002:00007328       ??_C@_02CJNFDJBF@PM@       0000000140048328     libucrtd:nlsdata.obj
 0002:00007330       ??_C@_08BPBNCDIB@MM?1dd?1yy@ 0000000140048330     libucrtd:nlsdata.obj
 0002:00007340       ??_C@_0BE@CKGJFCPC@dddd?0?5MMMM?5dd?0?5yyyy@ 0000000140048340     libucrtd:nlsdata.obj
 0002:00007358       ??_C@_08JCCMCCIL@HH?3mm?3ss@ 0000000140048358     libucrtd:nlsdata.obj
 0002:00007368       ??_C@_17MBGCMIPB@?$AAS?$AAu?$AAn@ 0000000140048368     libucrtd:nlsdata.obj
 0002:00007370       ??_C@_17KBOMKBF@?$AAM?$AAo?$AAn@ 0000000140048370     libucrtd:nlsdata.obj
 0002:00007378       ??_C@_17BMKGEGOJ@?$AAT?$AAu?$AAe@ 0000000140048378     libucrtd:nlsdata.obj
 0002:00007380       ??_C@_17CJEDCEPE@?$AAW?$AAe?$AAd@ 0000000140048380     libucrtd:nlsdata.obj
 0002:00007388       ??_C@_17PDPHAADD@?$AAT?$AAh?$AAu@ 0000000140048388     libucrtd:nlsdata.obj
 0002:00007390       ??_C@_17HFOLPPLP@?$AAF?$AAr?$AAi@ 0000000140048390     libucrtd:nlsdata.obj
 0002:00007398       ??_C@_17GGIBDPIH@?$AAS?$AAa?$AAt@ 0000000140048398     libucrtd:nlsdata.obj
 0002:000073a0       ??_C@_1O@IHNHDHPB@?$AAS?$AAu?$AAn?$AAd?$AAa?$AAy@ 00000001400483a0     libucrtd:nlsdata.obj
 0002:000073b0       ??_C@_1O@MMNBFLIA@?$AAM?$AAo?$AAn?$AAd?$AAa?$AAy@ 00000001400483b0     libucrtd:nlsdata.obj
 0002:000073c0       ??_C@_1BA@ENFBFFEK@?$AAT?$AAu?$AAe?$AAs?$AAd?$AAa?$AAy@ 00000001400483c0     libucrtd:nlsdata.obj
 0002:000073d0       ??_C@_1BE@EBOGMDOH@?$AAW?$AAe?$AAd?$AAn?$AAe?$AAs?$AAd?$AAa?$AAy@ 00000001400483d0     libucrtd:nlsdata.obj
 0002:000073e8       ??_C@_1BC@HHMNLIHE@?$AAT?$AAh?$AAu?$AAr?$AAs?$AAd?$AAa?$AAy@ 00000001400483e8     libucrtd:nlsdata.obj
 0002:00007400       ??_C@_1O@PDICJHAG@?$AAF?$AAr?$AAi?$AAd?$AAa?$AAy@ 0000000140048400     libucrtd:nlsdata.obj
 0002:00007410       ??_C@_1BC@ENMNNPAJ@?$AAS?$AAa?$AAt?$AAu?$AAr?$AAd?$AAa?$AAy@ 0000000140048410     libucrtd:nlsdata.obj
 0002:00007428       ??_C@_17DKNBKCHM@?$AAJ?$AAa?$AAn@ 0000000140048428     libucrtd:nlsdata.obj
 0002:00007430       ??_C@_17LMDJEKJN@?$AAF?$AAe?$AAb@ 0000000140048430     libucrtd:nlsdata.obj
 0002:00007438       ??_C@_17CKNLEDEC@?$AAM?$AAa?$AAr@ 0000000140048438     libucrtd:nlsdata.obj
 0002:00007440       ??_C@_17LFPOIHDD@?$AAA?$AAp?$AAr@ 0000000140048440     libucrtd:nlsdata.obj
 0002:00007448       ??_C@_17PNNKMEED@?$AAM?$AAa?$AAy@ 0000000140048448     libucrtd:nlsdata.obj
 0002:00007450       ??_C@_17KCJGOCPB@?$AAJ?$AAu?$AAn@ 0000000140048450     libucrtd:nlsdata.obj
 0002:00007458       ??_C@_17IJPCKHK@?$AAJ?$AAu?$AAl@ 0000000140048458     libucrtd:nlsdata.obj
 0002:00007460       ??_C@_17ICPELBCN@?$AAA?$AAu?$AAg@ 0000000140048460     libucrtd:nlsdata.obj
 0002:00007468       ??_C@_17HCHCOKMG@?$AAS?$AAe?$AAp@ 0000000140048468     libucrtd:nlsdata.obj
 0002:00007470       ??_C@_17FNLKOI@?$AAO?$AAc?$AAt@ 0000000140048470     libucrtd:nlsdata.obj
 0002:00007478       ??_C@_17BBDMLCIG@?$AAN?$AAo?$AAv@ 0000000140048478     libucrtd:nlsdata.obj
 0002:00007480       ??_C@_17EGKACKIF@?$AAD?$AAe?$AAc@ 0000000140048480     libucrtd:nlsdata.obj
 0002:00007488       ??_C@_1BA@EFMEIEBA@?$AAJ?$AAa?$AAn?$AAu?$AAa?$AAr?$AAy@ 0000000140048488     libucrtd:nlsdata.obj
 0002:00007498       ??_C@_1BC@JGDDFFAM@?$AAF?$AAe?$AAb?$AAr?$AAu?$AAa?$AAr?$AAy@ 0000000140048498     libucrtd:nlsdata.obj
 0002:000074b0       ??_C@_1M@IKEENEDF@?$AAM?$AAa?$AAr?$AAc?$AAh@ 00000001400484b0     libucrtd:nlsdata.obj
 0002:000074c0       ??_C@_1M@GJNLMHFD@?$AAA?$AAp?$AAr?$AAi?$AAl@ 00000001400484c0     libucrtd:nlsdata.obj
 0002:000074d0       ??_C@_19EPFLPGAP@?$AAJ?$AAu?$AAn?$AAe@ 00000001400484d0     libucrtd:nlsdata.obj
 0002:000074e0       ??_C@_19BIFMLPCD@?$AAJ?$AAu?$AAl?$AAy@ 00000001400484e0     libucrtd:nlsdata.obj
 0002:000074f0       ??_C@_1O@PAHLKOAC@?$AAA?$AAu?$AAg?$AAu?$AAs?$AAt@ 00000001400484f0     libucrtd:nlsdata.obj
 0002:00007500       ??_C@_1BE@DKAAMBJL@?$AAS?$AAe?$AAp?$AAt?$AAe?$AAm?$AAb?$AAe?$AAr@ 0000000140048500     libucrtd:nlsdata.obj
 0002:00007518       ??_C@_1BA@EPANDLNG@?$AAO?$AAc?$AAt?$AAo?$AAb?$AAe?$AAr@ 0000000140048518     libucrtd:nlsdata.obj
 0002:00007528       ??_C@_1BC@BGLIFPF@?$AAN?$AAo?$AAv?$AAe?$AAm?$AAb?$AAe?$AAr@ 0000000140048528     libucrtd:nlsdata.obj
 0002:00007540       ??_C@_1BC@FEMKIFH@?$AAD?$AAe?$AAc?$AAe?$AAm?$AAb?$AAe?$AAr@ 0000000140048540     libucrtd:nlsdata.obj
 0002:00007554       ??_C@_15ODEHAHHF@?$AAA?$AAM@ 0000000140048554     libucrtd:nlsdata.obj
 0002:0000755c       ??_C@_15CLMNNGEL@?$AAP?$AAM@ 000000014004855c     libucrtd:nlsdata.obj
 0002:00007568       ??_C@_1BC@IEBCMHCM@?$AAM?$AAM?$AA?1?$AAd?$AAd?$AA?1?$AAy?$AAy@ 0000000140048568     libucrtd:nlsdata.obj
 0002:00007580       ??_C@_1CI@KNAKOEBC@?$AAd?$AAd?$AAd?$AAd?$AA?0?$AA?5?$AAM?$AAM?$AAM?$AAM?$AA?5?$AAd?$AAd?$AA?0?$AA?5@ 0000000140048580     libucrtd:nlsdata.obj
 0002:000075a8       ??_C@_1BC@GDGBMEMK@?$AAH?$AAH?$AA?3?$AAm?$AAm?$AA?3?$AAs?$AAs@ 00000001400485a8     libucrtd:nlsdata.obj
 0002:000075c0       ??_C@_1M@BMHNFIME@?$AAe?$AAn?$AA?9?$AAU?$AAS@ 00000001400485c0     libucrtd:nlsdata.obj
 0002:000075d0       __newctype                 00000001400485d0     libucrtd:ctype.obj
 0002:000078d0       __newclmap                 00000001400488d0     libucrtd:ctype.obj
 0002:00007a50       __newcumap                 0000000140048a50     libucrtd:ctype.obj
 0002:00007bd0       ??_C@_1CI@JELMFMDH@?$AAc?$AA?5?$AA?$DO?$AA?$DN?$AA?5?$AA?9?$AA1?$AA?5?$AA?$CG?$AA?$CG?$AA?5?$AAc?$AA?5?$AA?$DM?$AA?$DN@ 0000000140048bd0     libucrtd:isctype.obj
 0002:00007c00       ??_C@_1GG@KPBGDFHJ@?$AAm?$AAi?$AAn?$AAk?$AAe?$AAr?$AAn?$AAe?$AAl?$AA?2?$AAc?$AAr?$AAt?$AAs?$AA?2@ 0000000140048c00     libucrtd:isctype.obj
 0002:00007c70       ??_C@_1FE@KNPCCODH@?$AA?$CI?$AA?$CC?$AAC?$AAo?$AAr?$AAr?$AAu?$AAp?$AAt?$AAe?$AAd?$AA?5?$AAp?$AAo?$AAi@ 0000000140048c70     libucrtd:getstringtypea.obj
 0002:00007cd0       ??_C@_1EM@GPJLADAA@?$AAV?$AAC?$AAC?$AAR?$AAT?$AA?2?$AAv?$AAc?$AAr?$AAu?$AAn?$AAt?$AAi?$AAm?$AAe@ 0000000140048cd0     libucrtd:getstringtypea.obj
 0002:00007d20       ??_C@_0DJ@HCPJODDK@minkernel?2crts?2ucrt?2src?2appcrt?2@ 0000000140048d20     libucrtd:getstringtypea.obj
 0002:00007d60       ??_C@_1BKC@NBNHJIDM@?$AA?$CI?$AAp?$AAt?$AAl?$AAo?$AAc?$AAi?$AA?9?$AA?$DO?$AAl?$AAc?$AA_?$AAc?$AAa?$AAt@ 0000000140048d60     libucrtd:locale_refcounting.obj
 0002:00007f10       ??_C@_1HK@HCNMEOLA@?$AAm?$AAi?$AAn?$AAk?$AAe?$AAr?$AAn?$AAe?$AAl?$AA?2?$AAc?$AAr?$AAt?$AAs?$AA?2@ 0000000140048f10     libucrtd:locale_refcounting.obj
 0002:00007f8c       ??_C@_15PJPFLCCM@?$AAu?$AAk@ 0000000140048f8c     libucrtd:get_qualified_locale.obj
 0002:00008050       ??_C@_1EA@JGEFHKEI@?$AAa?$AAp?$AAi?$AA?9?$AAm?$AAs?$AA?9?$AAw?$AAi?$AAn?$AA?9?$AAc?$AAo?$AAr?$AAe@ 0000000140049050     libucrtd:winapi_thunks.obj
 0002:00008090       ??_C@_1DI@KMEPCBPN@?$AAa?$AAp?$AAi?$AA?9?$AAm?$AAs?$AA?9?$AAw?$AAi?$AAn?$AA?9?$AAc?$AAo?$AAr?$AAe@ 0000000140049090     libucrtd:winapi_thunks.obj
 0002:000080c8       ??_C@_1DI@IJCEHOCB@?$AAa?$AAp?$AAi?$AA?9?$AAm?$AAs?$AA?9?$AAw?$AAi?$AAn?$AA?9?$AAc?$AAo?$AAr?$AAe@ 00000001400490c8     libucrtd:winapi_thunks.obj
 0002:00008100       ??_C@_1EI@MPIAOHOC@?$AAa?$AAp?$AAi?$AA?9?$AAm?$AAs?$AA?9?$AAw?$AAi?$AAn?$AA?9?$AAc?$AAo?$AAr?$AAe@ 0000000140049100     libucrtd:winapi_thunks.obj
 0002:00008150       ??_C@_1FK@FPHCKFIE@?$AAa?$AAp?$AAi?$AA?9?$AAm?$AAs?$AA?9?$AAw?$AAi?$AAn?$AA?9?$AAc?$AAo?$AAr?$AAe@ 0000000140049150     libucrtd:winapi_thunks.obj
 0002:000081b0       ??_C@_1EM@DILCGIIO@?$AAa?$AAp?$AAi?$AA?9?$AAm?$AAs?$AA?9?$AAw?$AAi?$AAn?$AA?9?$AAc?$AAo?$AAr?$AAe@ 00000001400491b0     libucrtd:winapi_thunks.obj
 0002:00008200       ??_C@_1DM@LNCGDDPN@?$AAa?$AAp?$AAi?$AA?9?$AAm?$AAs?$AA?9?$AAw?$AAi?$AAn?$AA?9?$AAc?$AAo?$AAr?$AAe@ 0000000140049200     libucrtd:winapi_thunks.obj
 0002:00008240       ??_C@_1DO@FPAPJEMD@?$AAa?$AAp?$AAi?$AA?9?$AAm?$AAs?$AA?9?$AAw?$AAi?$AAn?$AA?9?$AAc?$AAo?$AAr?$AAe@ 0000000140049240     libucrtd:winapi_thunks.obj
 0002:00008280       ??_C@_1DK@NDHNAHIO@?$AAa?$AAp?$AAi?$AA?9?$AAm?$AAs?$AA?9?$AAw?$AAi?$AAn?$AA?9?$AAc?$AAo?$AAr?$AAe@ 0000000140049280     libucrtd:winapi_thunks.obj
 0002:000082c0       ??_C@_1DM@KGHDGBCM@?$AAa?$AAp?$AAi?$AA?9?$AAm?$AAs?$AA?9?$AAw?$AAi?$AAn?$AA?9?$AAc?$AAo?$AAr?$AAe@ 00000001400492c0     libucrtd:winapi_thunks.obj
 0002:00008300       ??_C@_1EO@IJIOEFOH@?$AAa?$AAp?$AAi?$AA?9?$AAm?$AAs?$AA?9?$AAw?$AAi?$AAn?$AA?9?$AAr?$AAt?$AAc?$AAo@ 0000000140049300     libucrtd:winapi_thunks.obj
 0002:00008350       ??_C@_1FG@HHGEKANL@?$AAa?$AAp?$AAi?$AA?9?$AAm?$AAs?$AA?9?$AAw?$AAi?$AAn?$AA?9?$AAs?$AAe?$AAc?$AAu@ 0000000140049350     libucrtd:winapi_thunks.obj
 0002:000083b0       ??_C@_1EG@DBIOJECG@?$AAe?$AAx?$AAt?$AA?9?$AAm?$AAs?$AA?9?$AAw?$AAi?$AAn?$AA?9?$AAn?$AAt?$AAu?$AAs@ 00000001400493b0     libucrtd:winapi_thunks.obj
 0002:00008400       ??_C@_1EO@FIHMJCLF@?$AAe?$AAx?$AAt?$AA?9?$AAm?$AAs?$AA?9?$AAw?$AAi?$AAn?$AA?9?$AAn?$AAt?$AAu?$AAs@ 0000000140049400     libucrtd:winapi_thunks.obj
 0002:00008450       ??_C@_1BC@DNHGCMLG@?$AAa?$AAd?$AAv?$AAa?$AAp?$AAi?$AA3?$AA2@ 0000000140049450     libucrtd:winapi_thunks.obj
 0002:00008468       ??_C@_1BG@CJPGBMEF@?$AAk?$AAe?$AAr?$AAn?$AAe?$AAl?$AAb?$AAa?$AAs?$AAe@ 0000000140049468     libucrtd:winapi_thunks.obj
 0002:00008480       ??_C@_1M@OAIMIKLP@?$AAn?$AAt?$AAd?$AAl?$AAl@ 0000000140049480     libucrtd:winapi_thunks.obj
 0002:00008490       ??_C@_1EG@DPGNFKGC@?$AAa?$AAp?$AAi?$AA?9?$AAm?$AAs?$AA?9?$AAw?$AAi?$AAn?$AA?9?$AAa?$AAp?$AAp?$AAm@ 0000000140049490     libucrtd:winapi_thunks.obj
 0002:000084d8       ??_C@_1O@BCCLBEOE@?$AAu?$AAs?$AAe?$AAr?$AA3?$AA2@ 00000001400494d8     libucrtd:winapi_thunks.obj
 0002:000084e8       ??_C@_1BA@IAIFMGEF@?$AAe?$AAx?$AAt?$AA?9?$AAm?$AAs?$AA?9@ 00000001400494e8     libucrtd:winapi_thunks.obj
 0002:00008500       ??_C@_1HE@OILMBOBA@?$AAm?$AAi?$AAn?$AAk?$AAe?$AAr?$AAn?$AAe?$AAl?$AA?2?$AAc?$AAr?$AAt?$AAs?$AA?2@ 0000000140049500     libucrtd:winapi_thunks.obj
 0002:00008578       ??_C@_0BA@FHFNEAED@AreFileApisANSI@ 0000000140049578     libucrtd:winapi_thunks.obj
 0002:00008590       ??_C@_0BA@HNOPNCHB@GetActiveWindow@ 0000000140049590     libucrtd:winapi_thunks.obj
 0002:000085a8       ??_C@_0BD@HHGDFDBJ@GetLastActivePopup@ 00000001400495a8     libucrtd:winapi_thunks.obj
 0002:000085c8       ??_C@_0BI@DFKBFLJE@GetProcessWindowStation@ 00000001400495c8     libucrtd:winapi_thunks.obj
 0002:000085e8       ??_C@_0BK@DEKFELLI@GetUserObjectInformationW@ 00000001400495e8     libucrtd:winapi_thunks.obj
 0002:00008618       ??_C@_0O@KKBNKAPF@LCMapStringEx@ 0000000140049618     libucrtd:winapi_thunks.obj
 0002:00008630       ??_C@_0BB@HBDEELFH@LocaleNameToLCID@ 0000000140049630     libucrtd:winapi_thunks.obj
 0002:00008650       ??_C@_0M@CHKKJDAI@MessageBoxA@ 0000000140049650     libucrtd:winapi_thunks.obj
 0002:00008668       ??_C@_0M@DLDCCGNP@MessageBoxW@ 0000000140049668     libucrtd:winapi_thunks.obj
 0002:00008678       ??_C@_0CF@OJOFEIGO@AppPolicyGetProcessTerminationM@ 0000000140049678     libucrtd:winapi_thunks.obj
 0002:000086a8       ??_C@_0CE@OICFMIKE@AppPolicyGetShowDeveloperDiagno@ 00000001400496a8     libucrtd:winapi_thunks.obj
 0002:000086d0       ??_C@_0BL@ODDJNEDA@AppPolicyGetWindowingModel@ 00000001400496d0     libucrtd:winapi_thunks.obj
 0002:00008718       ??_C@_1DA@NBILLKNO@?$AAl?$AAo?$AAc?$AAa?$AAl?$AA_?$AAa?$AAc?$AAt?$AAi?$AAo?$AAn?$AA?5?$AA?$CB?$AA?$DN@ 0000000140049718     libucrtd:signal.obj
 0002:00008750       ??_C@_1FO@CCGDPEKE@?$AAm?$AAi?$AAn?$AAk?$AAe?$AAr?$AAn?$AAe?$AAl?$AA?2?$AAc?$AAr?$AAt?$AAs?$AA?2@ 0000000140049750     libucrtd:signal.obj
 0002:000087b0       ??_C@_1M@DMJEIKHL@?$AAr?$AAa?$AAi?$AAs?$AAe@ 00000001400497b0     libucrtd:signal.obj
 0002:000087c0       ??_C@_1DO@MLNEDKGB@?$AA?$CI?$AA?$CC?$AAI?$AAn?$AAv?$AAa?$AAl?$AAi?$AAd?$AA?5?$AAs?$AAi?$AAg?$AAn?$AAa@ 00000001400497c0     libucrtd:signal.obj
 0002:00008800       ??_C@_1DC@OGOLMDEL@?$AAp?$AAu?$AAb?$AAl?$AAi?$AAc?$AA_?$AAs?$AAt?$AAr?$AAe?$AAa?$AAm?$AA?5?$AA?$CB@ 0000000140049800     libucrtd:_sftbuf.obj
 0002:00008840       ??_C@_1FO@GEKPJHID@?$AAm?$AAi?$AAn?$AAk?$AAe?$AAr?$AAn?$AAe?$AAl?$AA?2?$AAc?$AAr?$AAt?$AAs?$AA?2@ 0000000140049840     libucrtd:expand.obj
 0002:000088a0       ??_C@_1BK@JMCGJOCC@?$AA_?$AAe?$AAx?$AAp?$AAa?$AAn?$AAd?$AA_?$AAb?$AAa?$AAs?$AAe@ 00000001400498a0     libucrtd:expand.obj
 0002:00008940       ??_C@_03OEIAHPBN@INF@      0000000140049940     libucrtd:cvt.obj
 0002:00008944       ??_C@_03OJHLLCGB@inf@      0000000140049944     libucrtd:cvt.obj
 0002:00008948       ??_C@_03LKNCIKJB@NAN@      0000000140049948     libucrtd:cvt.obj
 0002:0000894c       ??_C@_03LHCJEHON@nan@      000000014004994c     libucrtd:cvt.obj
 0002:00008950       ??_C@_09OFJJIMPC@NAN?$CISNAN?$CJ@ 0000000140049950     libucrtd:cvt.obj
 0002:00008960       ??_C@_09IPFBKMDL@nan?$CIsnan?$CJ@ 0000000140049960     libucrtd:cvt.obj
 0002:00008970       ??_C@_08IKHNHAJ@NAN?$CIIND?$CJ@ 0000000140049970     libucrtd:cvt.obj
 0002:00008980       ??_C@_08OFCDMILK@nan?$CIind?$CJ@ 0000000140049980     libucrtd:cvt.obj
 0002:00008990       ??_C@_1FO@GKAKAPLI@?$AAm?$AAi?$AAn?$AAk?$AAe?$AAr?$AAn?$AAe?$AAl?$AA?2?$AAc?$AAr?$AAt?$AAs?$AA?2@ 0000000140049990     libucrtd:cvt.obj
 0002:000089f0       ??_C@_1DE@EHGIGIDK@?$AAf?$AAp?$AA_?$AAf?$AAo?$AAr?$AAm?$AAa?$AAt?$AA_?$AAn?$AAa?$AAn?$AA_?$AAo@ 00000001400499f0     libucrtd:cvt.obj
 0002:00008a30       ??_C@_1LI@PCMLJPCO@?$AAs?$AAt?$AAr?$AAc?$AAp?$AAy?$AA_?$AAs?$AA?$CI?$AA?5?$AAr?$AAe?$AAs?$AAu?$AAl@ 0000000140049a30     libucrtd:cvt.obj
 0002:00008af0       ??_C@_1KO@LJHOFBCD@?$AAr?$AAe?$AAs?$AAu?$AAl?$AAt?$AA_?$AAb?$AAu?$AAf?$AAf?$AAe?$AAr?$AA_?$AAc@ 0000000140049af0     libucrtd:cvt.obj
 0002:00008ba0       ??_C@_1CK@BOLHOMFO@?$AAf?$AAp?$AA_?$AAf?$AAo?$AAr?$AAm?$AAa?$AAt?$AA_?$AAe?$AA_?$AAi?$AAn?$AAt@ 0000000140049ba0     libucrtd:cvt.obj
 0002:00008bd0       ??_C@_1BBE@LHDOMEDC@?$AAs?$AAt?$AAr?$AAc?$AAp?$AAy?$AA_?$AAs?$AA?$CI?$AA?5?$AAp?$AA?0?$AA?5?$AAr?$AAe@ 0000000140049bd0     libucrtd:cvt.obj
 0002:00008ce4       ??_C@_05KLBDPFGC@e?$CL000@ 0000000140049ce4     libucrtd:cvt.obj
 0002:00008cf0       ??_C@_1IC@FILKPBAB@?$AAr?$AAe?$AAs?$AAu?$AAl?$AAt?$AA_?$AAb?$AAu?$AAf?$AAf?$AAe?$AAr?$AA_?$AAc@ 0000000140049cf0     libucrtd:cvt.obj
 0002:00008d78       ??_C@_1BI@PNBDLNBB@?$AAf?$AAp?$AA_?$AAf?$AAo?$AAr?$AAm?$AAa?$AAt?$AA_?$AAa@ 0000000140049d78     libucrtd:cvt.obj
 0002:00008d90       ??_C@_1DC@MGKAFPFD@?$AAr?$AAe?$AAs?$AAu?$AAl?$AAt?$AA_?$AAb?$AAu?$AAf?$AAf?$AAe?$AAr?$AA?5?$AA?$CB@ 0000000140049d90     libucrtd:cvt.obj
 0002:00008dc8       ??_C@_1CC@LDAHJAKK@?$AA_?$AA_?$AAa?$AAc?$AAr?$AAt?$AA_?$AAf?$AAp?$AA_?$AAf?$AAo?$AAr?$AAm?$AAa@ 0000000140049dc8     libucrtd:cvt.obj
 0002:00008df0       ??_C@_1DA@NMLJJOCO@?$AAr?$AAe?$AAs?$AAu?$AAl?$AAt?$AA_?$AAb?$AAu?$AAf?$AAf?$AAe?$AAr?$AA_?$AAc@ 0000000140049df0     libucrtd:cvt.obj
 0002:00008e20       ??_C@_1DE@MNOPBCOK@?$AAs?$AAc?$AAr?$AAa?$AAt?$AAc?$AAh?$AA_?$AAb?$AAu?$AAf?$AAf?$AAe?$AAr?$AA?5@ 0000000140049e20     libucrtd:cvt.obj
 0002:00008e58       ??_C@_1DC@CKBKNFKH@?$AAs?$AAc?$AAr?$AAa?$AAt?$AAc?$AAh?$AA_?$AAb?$AAu?$AAf?$AAf?$AAe?$AAr?$AA_@ 0000000140049e58     libucrtd:cvt.obj
 0002:00008e90       ??_C@_1EI@JAHBOGIM@?$AA?$CI?$AA?$CC?$AAU?$AAn?$AAs?$AAu?$AAp?$AAp?$AAo?$AAr?$AAt?$AAe?$AAd?$AA?5?$AAf@ 0000000140049e90     libucrtd:cvt.obj
 0002:00008ed8       ??_C@_1DK@NBNOAGKB@?$AAd?$AAe?$AAs?$AAt?$AAi?$AAn?$AAa?$AAt?$AAi?$AAo?$AAn?$AA_?$AAc?$AAo?$AAu@ 0000000140049ed8     libucrtd:wctomb.obj
 0002:00008f20       ??_C@_1GE@FCCEPHFG@?$AAm?$AAi?$AAn?$AAk?$AAe?$AAr?$AAn?$AAe?$AAl?$AA?2?$AAc?$AAr?$AAt?$AAs?$AA?2@ 0000000140049f20     libucrtd:wctomb.obj
 0002:00008f88       ??_C@_1CC@DNLKBKLK@?$AA_?$AAw?$AAc?$AAt?$AAo?$AAm?$AAb?$AA_?$AAi?$AAn?$AAt?$AAe?$AAr?$AAn?$AAa@ 0000000140049f88     libucrtd:wctomb.obj
 0002:00008fb0       ??_C@_1CM@ENFEGCNE@?$AAd?$AAe?$AAs?$AAt?$AAi?$AAn?$AAa?$AAt?$AAi?$AAo?$AAn?$AA_?$AAc?$AAo?$AAu@ 0000000140049fb0     libucrtd:wctomb.obj
 0002:00008fe0       ??_C@_1MK@HFAFPEDL@?$AAl?$AAo?$AAc?$AAa?$AAl?$AAe?$AA?9?$AA?$DO?$AAl?$AAo?$AAc?$AAi?$AAn?$AAf?$AAo@ 0000000140049fe0     libucrtd:mbtowc.obj
 0002:000090b0       ??_C@_1GE@CGIHMDEJ@?$AAm?$AAi?$AAn?$AAk?$AAe?$AAr?$AAn?$AAe?$AAl?$AA?2?$AAc?$AAr?$AAt?$AAs?$AA?2@ 000000014004a0b0     libucrtd:mbtowc.obj
 0002:00009120       ??_C@_1HA@KNBGJAIN@?$AAU?$AAT?$AAF?$AA?9?$AA8?$AA?5?$AAi?$AAs?$AAn?$AA?8?$AAt?$AA?5?$AAs?$AAu?$AAp@ 000000014004a120     libucrtd:mbtowc.obj
 0002:00009190       ??_C@_1OM@FCINAOPP@?$AAl?$AAo?$AAc?$AAa?$AAl?$AAe?$AA?9?$AA?$DO?$AAl?$AAo?$AAc?$AAi?$AAn?$AAf?$AAo@ 000000014004a190     libucrtd:mbtowc.obj
 0002:00009280       ??_C@_1GA@CPNOFAH@?$AAl?$AAo?$AAc?$AAa?$AAl?$AAe?$AA?9?$AA?$DO?$AAl?$AAo?$AAc?$AAi?$AAn?$AAf?$AAo@ 000000014004a280     libucrtd:mbtowc.obj
 0002:000092e0       ??_C@_1BO@MHPFFFJJ@?$AAs?$AAt?$AAr?$AAe?$AAa?$AAm?$AA?4?$AAv?$AAa?$AAl?$AAi?$AAd?$AA?$CI?$AA?$CJ@ 000000014004a2e0     libucrtd:fileno.obj
 0002:00009300       ??_C@_1GA@KCAHHNGP@?$AAm?$AAi?$AAn?$AAk?$AAe?$AAr?$AAn?$AAe?$AAl?$AA?2?$AAc?$AAr?$AAt?$AAs?$AA?2@ 000000014004a300     libucrtd:fileno.obj
 0002:00009360       ??_C@_1BA@JGHIEKKM@?$AA_?$AAf?$AAi?$AAl?$AAe?$AAn?$AAo@ 000000014004a360     libucrtd:fileno.obj
 0002:00009370       ??_C@_0CP@GDJHIDC@minkernel?2crts?2ucrt?2src?2appcrt?2@ 000000014004a370     libucrtd:_file.obj
 0002:000093a0       ??_C@_1GA@LFAOKOOP@?$AAm?$AAi?$AAn?$AAk?$AAe?$AAr?$AAn?$AAe?$AAl?$AA?2?$AAc?$AAr?$AAt?$AAs?$AA?2@ 000000014004a3a0     libucrtd:dbgrptt.obj
 0002:00009400       ??_C@_1CA@KHJHLKA@?$AA_?$AAV?$AAC?$AAr?$AAt?$AAD?$AAb?$AAg?$AAR?$AAe?$AAp?$AAo?$AAr?$AAt?$AAA@ 000000014004a400     libucrtd:dbgrptt.obj
 0002:00009420       ??_C@_1FA@JPHJBHEM@?$AA_?$AAi?$AAt?$AAo?$AAa?$AA_?$AAs?$AA?$CI?$AAn?$AAL?$AAi?$AAn?$AAe?$AA?0?$AA?5@ 000000014004a420     libucrtd:dbgrptt.obj
 0002:00009470       ??_C@_0CG@BNGLOCEO@Second?5Chance?5Assertion?5Failed?3@ 000000014004a470     libucrtd:dbgrptt.obj
 0002:00009498       ??_C@_0P@DFJNDPOP@?$DMfile?5unknown?$DO@ 000000014004a498     libucrtd:dbgrptt.obj
 0002:000094a8       ??_C@_07BHGABMGB@?0?5Line?5@ 000000014004a4a8     libucrtd:dbgrptt.obj
 0002:000094b0       ??_C@_01EEMJAFIK@?6@       000000014004a4b0     libucrtd:dbgrptt.obj
 0002:000094c0       ??_C@_1JI@GAALPGBM@?$AAs?$AAt?$AAr?$AAc?$AAp?$AAy?$AA_?$AAs?$AA?$CI?$AAs?$AAz?$AAU?$AAs?$AAe?$AAr@ 000000014004a4c0     libucrtd:dbgrptt.obj
 0002:00009558       ??_C@_0CL@EACFGMNB@_CrtDbgReport?3?5String?5too?5long?5@ 000000014004a558     libucrtd:dbgrptt.obj
 0002:00009590       ??_C@_1KK@GIGAEDMO@?$AAs?$AAt?$AAr?$AAc?$AAp?$AAy?$AA_?$AAs?$AA?$CI?$AAs?$AAz?$AAL?$AAi?$AAn?$AAe@ 000000014004a590     libucrtd:dbgrptt.obj
 0002:00009640       ??_C@_0BD@CAENFOHP@Assertion?5failed?3?5@ 000000014004a640     libucrtd:dbgrptt.obj
 0002:00009658       ??_C@_0BC@LAIDCHCH@Assertion?5failed?$CB@ 000000014004a658     libucrtd:dbgrptt.obj
 0002:00009670       ??_C@_1FK@NPGBPOFO@?$AAs?$AAt?$AAr?$AAc?$AAa?$AAt?$AA_?$AAs?$AA?$CI?$AAs?$AAz?$AAL?$AAi?$AAn?$AAe@ 000000014004a670     libucrtd:dbgrptt.obj
 0002:000096d0       ??_C@_1EI@CACDLAFK@?$AAs?$AAt?$AAr?$AAc?$AAa?$AAt?$AA_?$AAs?$AA?$CI?$AAs?$AAz?$AAL?$AAi?$AAn?$AAe@ 000000014004a6d0     libucrtd:dbgrptt.obj
 0002:00009718       ??_C@_01LIIJDEN@?$AN@      000000014004a718     libucrtd:dbgrptt.obj
 0002:00009720       ??_C@_1EI@LDHJEDO@?$AAs?$AAt?$AAr?$AAc?$AAa?$AAt?$AA_?$AAs?$AA?$CI?$AAs?$AAz?$AAL?$AAi?$AAn?$AAe@ 000000014004a720     libucrtd:dbgrptt.obj
 0002:00009768       ??_C@_0M@IPILFDFN@?$CFs?$CI?$CFd?$CJ?5?3?5?$CFs@ 000000014004a768     libucrtd:dbgrptt.obj
 0002:00009780       ??_C@_1JG@CPKCIOEE@?$AAs?$AAt?$AAr?$AAc?$AAp?$AAy?$AA_?$AAs?$AA?$CI?$AAs?$AAz?$AAO?$AAu?$AAt?$AAM@ 000000014004a780     libucrtd:dbgrptt.obj
 0002:00009820       ??_C@_1FI@IBIOIHEG@?$AAs?$AAt?$AAr?$AAc?$AAp?$AAy?$AA_?$AAs?$AA?$CI?$AAs?$AAz?$AAO?$AAu?$AAt?$AAM@ 000000014004a820     libucrtd:dbgrptt.obj
 0002:00009880       ??_C@_1IM@OOKIFKOH@?$AAe?$AA?5?$AA?$DN?$AA?5?$AAm?$AAb?$AAs?$AAt?$AAo?$AAw?$AAc?$AAs?$AA_?$AAs?$AA?$CI@ 000000014004a880     libucrtd:dbgrptt.obj
 0002:00009910       ??_C@_1MC@IGEECMDB@?$AAw?$AAc?$AAs?$AAc?$AAp?$AAy?$AA_?$AAs?$AA?$CI?$AAs?$AAz?$AAO?$AAu?$AAt?$AAM@ 000000014004a910     libucrtd:dbgrptt.obj
 0002:000099e0       ??_C@_1HO@PJOFIKFE@?$AA_?$AAC?$AAr?$AAt?$AAD?$AAb?$AAg?$AAR?$AAe?$AAp?$AAo?$AAr?$AAt?$AA?3?$AA?5@ 000000014004a9e0     libucrtd:dbgrptt.obj
 0002:00009a60       ??_C@_1CA@HPALHDOD@?$AA_?$AAV?$AAC?$AAr?$AAt?$AAD?$AAb?$AAg?$AAR?$AAe?$AAp?$AAo?$AAr?$AAt?$AAW@ 000000014004aa60     libucrtd:dbgrptt.obj
 0002:00009a80       ??_C@_1FA@CNLLOMHI@?$AA_?$AAi?$AAt?$AAo?$AAw?$AA_?$AAs?$AA?$CI?$AAn?$AAL?$AAi?$AAn?$AAe?$AA?0?$AA?5@ 000000014004aa80     libucrtd:dbgrptt.obj
 0002:00009ad0       ??_C@_1EM@MJFLEDMB@?$AAS?$AAe?$AAc?$AAo?$AAn?$AAd?$AA?5?$AAC?$AAh?$AAa?$AAn?$AAc?$AAe?$AA?5?$AAA@ 000000014004aad0     libucrtd:dbgrptt.obj
 0002:00009b20       ??_C@_1BO@OCHMLCAG@?$AA?$DM?$AAf?$AAi?$AAl?$AAe?$AA?5?$AAu?$AAn?$AAk?$AAn?$AAo?$AAw?$AAn?$AA?$DO@ 000000014004ab20     libucrtd:dbgrptt.obj
 0002:00009b40       ??_C@_1BA@ELMMDCFC@?$AA?0?$AA?5?$AAL?$AAi?$AAn?$AAe?$AA?5@ 000000014004ab40     libucrtd:dbgrptt.obj
 0002:00009b50       ??_C@_13LBAGMAIH@?$AA?6@   000000014004ab50     libucrtd:dbgrptt.obj
 0002:00009b60       ??_C@_1JK@KHFABAEO@?$AAw?$AAc?$AAs?$AAc?$AAp?$AAy?$AA_?$AAs?$AA?$CI?$AAs?$AAz?$AAU?$AAs?$AAe?$AAr@ 000000014004ab60     libucrtd:dbgrptt.obj
 0002:00009c00       ??_C@_1KO@DGAHENCH@?$AAw?$AAc?$AAs?$AAc?$AAp?$AAy?$AA_?$AAs?$AA?$CI?$AAs?$AAz?$AAL?$AAi?$AAn?$AAe@ 000000014004ac00     libucrtd:dbgrptt.obj
 0002:00009cb0       ??_C@_1CG@FFFGGODN@?$AAA?$AAs?$AAs?$AAe?$AAr?$AAt?$AAi?$AAo?$AAn?$AA?5?$AAf?$AAa?$AAi?$AAl?$AAe@ 000000014004acb0     libucrtd:dbgrptt.obj
 0002:00009cd8       ??_C@_1CE@OJBNHDMO@?$AAA?$AAs?$AAs?$AAe?$AAr?$AAt?$AAi?$AAo?$AAn?$AA?5?$AAf?$AAa?$AAi?$AAl?$AAe@ 000000014004acd8     libucrtd:dbgrptt.obj
 0002:00009d00       ??_C@_1FK@HPADHBBD@?$AAw?$AAc?$AAs?$AAc?$AAa?$AAt?$AA_?$AAs?$AA?$CI?$AAs?$AAz?$AAL?$AAi?$AAn?$AAe@ 000000014004ad00     libucrtd:dbgrptt.obj
 0002:00009d60       ??_C@_1EK@NMDFGHMF@?$AAw?$AAc?$AAs?$AAc?$AAa?$AAt?$AA_?$AAs?$AA?$CI?$AAs?$AAz?$AAL?$AAi?$AAn?$AAe@ 000000014004ad60     libucrtd:dbgrptt.obj
 0002:00009dac       ??_C@_13CMNBPIDO@?$AA?$AN@ 000000014004adac     libucrtd:dbgrptt.obj
 0002:00009db0       ??_C@_1EK@PHCBEDKB@?$AAw?$AAc?$AAs?$AAc?$AAa?$AAt?$AA_?$AAs?$AA?$CI?$AAs?$AAz?$AAL?$AAi?$AAn?$AAe@ 000000014004adb0     libucrtd:dbgrptt.obj
 0002:00009e00       ??_C@_1BM@GIBPMLNL@?$AA?$CF?$AAl?$AAs?$AA?$CI?$AA?$CF?$AAd?$AA?$CJ?$AA?5?$AA?3?$AA?5?$AA?$CF?$AAl?$AAs@ 000000014004ae00     libucrtd:dbgrptt.obj
 0002:00009e20       ??_C@_1JI@EACPGHID@?$AAw?$AAc?$AAs?$AAc?$AAp?$AAy?$AA_?$AAs?$AA?$CI?$AAs?$AAz?$AAO?$AAu?$AAt?$AAM@ 000000014004ae20     libucrtd:dbgrptt.obj
 0002:00009ec0       ??_C@_1FI@DBAIJPJE@?$AAw?$AAc?$AAs?$AAc?$AAp?$AAy?$AA_?$AAs?$AA?$CI?$AAs?$AAz?$AAO?$AAu?$AAt?$AAM@ 000000014004aec0     libucrtd:dbgrptt.obj
 0002:00009f20       ??_C@_1IK@LEBMBAP@?$AAw?$AAc?$AAs?$AAt?$AAo?$AAm?$AAb?$AAs?$AA_?$AAs?$AA?$CI?$AAn?$AAu?$AAl?$AAl@ 000000014004af20     libucrtd:dbgrptt.obj
 0002:00009fb0       ??_C@_1MA@LBAMNNOB@?$AAs?$AAt?$AAr?$AAc?$AAp?$AAy?$AA_?$AAs?$AA?$CI?$AAs?$AAz?$AAO?$AAu?$AAt?$AAM@ 000000014004afb0     libucrtd:dbgrptt.obj
 0002:0000a070       ??_C@_0DP@GNPEPHJD@_CrtDbgReport?3?5String?5too?5long?5@ 000000014004b070     libucrtd:dbgrptt.obj
 0002:0000a0b0       ??_C@_1IE@CPGKIAGP@?$AAw?$AAc?$AAs?$AAt?$AAo?$AAm?$AAb?$AAs?$AA_?$AAs?$AA?$CI?$AA?$CG?$AAr?$AAe?$AAt@ 000000014004b0b0     libucrtd:dbgrptt.obj
 0002:0000a160       ??_C@_1DI@OOEEHOBJ@?$AAb?$AAa?$AAs?$AAe?$AA?5?$AA?$CB?$AA?$DN?$AA?5?$AAn?$AAu?$AAl?$AAl?$AAp?$AAt?$AAr@ 000000014004b160     libucrtd:qsort.obj
 0002:0000a1a0       ??_C@_1GA@KPPCKKGE@?$AAm?$AAi?$AAn?$AAk?$AAe?$AAr?$AAn?$AAe?$AAl?$AA?2?$AAc?$AAr?$AAt?$AAs?$AA?2@ 000000014004b1a0     libucrtd:qsort.obj
 0002:0000a200       ??_C@_1M@INMHODIG@?$AAq?$AAs?$AAo?$AAr?$AAt@ 000000014004b200     libucrtd:qsort.obj
 0002:0000a210       ??_C@_1BE@NJBEBBME@?$AAw?$AAi?$AAd?$AAt?$AAh?$AA?5?$AA?$DO?$AA?5?$AA0@ 000000014004b210     libucrtd:qsort.obj
 0002:0000a228       ??_C@_1CA@LIDFOMIN@?$AAc?$AAo?$AAm?$AAp?$AA?5?$AA?$CB?$AA?$DN?$AA?5?$AAn?$AAu?$AAl?$AAl?$AAp?$AAt?$AAr@ 000000014004b228     libucrtd:qsort.obj
 0002:0000a248       ??_C@_1CE@BLLJFLOH@?$AAs?$AAt?$AAr?$AAi?$AAn?$AAg?$AA?5?$AA?$CB?$AA?$DN?$AA?5?$AAn?$AAu?$AAl?$AAl?$AAp@ 000000014004b248     libucrtd:mbsdec.obj
 0002:0000a270       ??_C@_1GO@DDOMFNGF@?$AAm?$AAi?$AAn?$AAk?$AAe?$AAr?$AAn?$AAe?$AAl?$AA?2?$AAc?$AAr?$AAt?$AAs?$AA?2@ 000000014004b270     libucrtd:mbsdec.obj
 0002:0000a2e0       ??_C@_1BE@KLNCOLCD@?$AA_?$AAm?$AAb?$AAs?$AAd?$AAe?$AAc?$AA_?$AAl@ 000000014004b2e0     libucrtd:mbsdec.obj
 0002:0000a2f8       ??_C@_1CG@CMGPGAOD@?$AAc?$AAu?$AAr?$AAr?$AAe?$AAn?$AAt?$AA?5?$AA?$CB?$AA?$DN?$AA?5?$AAn?$AAu?$AAl?$AAl@ 000000014004b2f8     libucrtd:mbsdec.obj
 0002:0000a320       ??_C@_0DH@IKPCBLP@minkernel?2crts?2ucrt?2src?2appcrt?2@ 000000014004b320     libucrtd:lcmapstringa.obj
 0002:0000a358       ??_C@_1CE@MCCHPLBM@?$AAb?$AAu?$AAf?$AAf?$AAe?$AAr?$AA?5?$AA?$CB?$AA?$DN?$AA?5?$AAn?$AAu?$AAl?$AAl?$AAp@ 000000014004b358     libucrtd:xtoa.obj
 0002:0000a380       ??_C@_1GA@HBEFGMHK@?$AAm?$AAi?$AAn?$AAk?$AAe?$AAr?$AAn?$AAe?$AAl?$AA?2?$AAc?$AAr?$AAt?$AAs?$AA?2@ 000000014004b380     libucrtd:xtoa.obj
 0002:0000a3e0       ??_C@_1BM@HMPEMLNP@?$AAc?$AAo?$AAm?$AAm?$AAo?$AAn?$AA_?$AAx?$AAt?$AAo?$AAx?$AA_?$AAs@ 000000014004b3e0     libucrtd:xtoa.obj
 0002:0000a400       ??_C@_1CC@ONIJBMJF@?$AAb?$AAu?$AAf?$AAf?$AAe?$AAr?$AA_?$AAc?$AAo?$AAu?$AAn?$AAt?$AA?5?$AA?$DO?$AA?5@ 000000014004b400     libucrtd:xtoa.obj
 0002:0000a430       ??_C@_1HA@JFIOFNKD@?$AAb?$AAu?$AAf?$AAf?$AAe?$AAr?$AA_?$AAc?$AAo?$AAu?$AAn?$AAt?$AA?5?$AA?$DO?$AA?5@ 000000014004b430     libucrtd:xtoa.obj
 0002:0000a4a0       ??_C@_1DE@PCJGDBBD@?$AA2?$AA?5?$AA?$DM?$AA?$DN?$AA?5?$AAr?$AAa?$AAd?$AAi?$AAx?$AA?5?$AA?$CG?$AA?$CG?$AA?5?$AAr@ 000000014004b4a0     libucrtd:xtoa.obj
 0002:0000a4d8       ??_C@_1CM@LONILNIJ@?$AAl?$AAe?$AAn?$AAg?$AAt?$AAh?$AA?5?$AA?$DM?$AA?5?$AAb?$AAu?$AAf?$AAf?$AAe?$AAr@ 000000014004b4d8     libucrtd:xtoa.obj
 0002:0000a508       ??_C@_1BI@OLPLFKOE@?$AAc?$AAo?$AAm?$AAm?$AAo?$AAn?$AA_?$AAx?$AAt?$AAo?$AAx@ 000000014004b508     libucrtd:xtoa.obj
 0002:0000b360       ??_C@_15EMKDOKLE@?$AAa?$AAr@ 000000014004c360     libucrtd:lcidtoname_downlevel.obj
 0002:0000b368       ??_C@_15KNPADPLH@?$AAb?$AAg@ 000000014004c368     libucrtd:lcidtoname_downlevel.obj
 0002:0000b370       ??_C@_15EDMHLDMO@?$AAc?$AAa@ 000000014004c370     libucrtd:lcidtoname_downlevel.obj
 0002:0000b378       ??_C@_1O@BPEAJADD@?$AAz?$AAh?$AA?9?$AAC?$AAH?$AAS@ 000000014004c378     libucrtd:lcidtoname_downlevel.obj
 0002:0000b388       ??_C@_15LJNHCMNK@?$AAc?$AAs@ 000000014004c388     libucrtd:lcidtoname_downlevel.obj
 0002:0000b390       ??_C@_15FOMCIDHG@?$AAd?$AAa@ 000000014004c390     libucrtd:lcidtoname_downlevel.obj
 0002:0000b398       ??_C@_15NBKABECB@?$AAd?$AAe@ 000000014004c398     libucrtd:lcidtoname_downlevel.obj
 0002:0000b3a0       ??_C@_15GHPEIIAO@?$AAe?$AAl@ 000000014004c3a0     libucrtd:lcidtoname_downlevel.obj
 0002:0000b3a8       ??_C@_15MNPNEAIF@?$AAe?$AAn@ 000000014004c3a8     libucrtd:lcidtoname_downlevel.obj
 0002:0000b3b0       ??_C@_15GPIOMPMH@?$AAe?$AAs@ 000000014004c3b0     libucrtd:lcidtoname_downlevel.obj
 0002:0000b3b8       ??_C@_15NGLOAKJC@?$AAf?$AAi@ 000000014004c3b8     libucrtd:lcidtoname_downlevel.obj
 0002:0000b3c0       ??_C@_15FBKGNKAM@?$AAf?$AAr@ 000000014004c3c0     libucrtd:lcidtoname_downlevel.obj
 0002:0000b3c8       ??_C@_15KGGCNEFK@?$AAh?$AAe@ 000000014004c3c8     libucrtd:lcidtoname_downlevel.obj
 0002:0000b3d0       ??_C@_15PGHLIDMF@?$AAh?$AAu@ 000000014004c3d0     libucrtd:lcidtoname_downlevel.obj
 0002:0000b3d8       ??_C@_15BIEMAPLM@?$AAi?$AAs@ 000000014004c3d8     libucrtd:lcidtoname_downlevel.obj
 0002:0000b3e0       ??_C@_15IFJLDHAF@?$AAi?$AAt@ 000000014004c3e0     libucrtd:lcidtoname_downlevel.obj
 0002:0000b3e8       ??_C@_15GEMIOCAG@?$AAj?$AAa@ 000000014004c3e8     libucrtd:lcidtoname_downlevel.obj
 0002:0000b3f0       ??_C@_15EPELEGJA@?$AAk?$AAo@ 000000014004c3f0     libucrtd:lcidtoname_downlevel.obj
 0002:0000b3f8       ??_C@_15NDDHIMN@?$AAn?$AAl@ 000000014004c3f8     libucrtd:lcidtoname_downlevel.obj
 0002:0000b400       ??_C@_15BPIGNHCD@?$AAn?$AAo@ 000000014004c400     libucrtd:lcidtoname_downlevel.obj
 0002:0000b408       ??_C@_15DEOPBLCG@?$AAp?$AAl@ 000000014004c408     libucrtd:lcidtoname_downlevel.obj
 0002:0000b410       ??_C@_15KBECGEFG@?$AAp?$AAt@ 000000014004c410     libucrtd:lcidtoname_downlevel.obj
 0002:0000b418       ??_C@_15GLJCBFMD@?$AAr?$AAo@ 000000014004c418     libucrtd:lcidtoname_downlevel.obj
 0002:0000b420       ??_C@_15FEDGKCDI@?$AAr?$AAu@ 000000014004c420     libucrtd:lcidtoname_downlevel.obj
 0002:0000b428       ??_C@_15GLKMLLHM@?$AAh?$AAr@ 000000014004c428     libucrtd:lcidtoname_downlevel.obj
 0002:0000b430       ??_C@_15CPKMFBDB@?$AAs?$AAk@ 000000014004c430     libucrtd:lcidtoname_downlevel.obj
 0002:0000b438       ??_C@_15BAAIOGMK@?$AAs?$AAq@ 000000014004c438     libucrtd:lcidtoname_downlevel.obj
 0002:0000b440       ??_C@_15INNPNOHD@?$AAs?$AAv@ 000000014004c440     libucrtd:lcidtoname_downlevel.obj
 0002:0000b448       ??_C@_15CABMMOGH@?$AAt?$AAh@ 000000014004c448     libucrtd:lcidtoname_downlevel.obj
 0002:0000b450       ??_C@_15BPLIHJJM@?$AAt?$AAr@ 000000014004c450     libucrtd:lcidtoname_downlevel.obj
 0002:0000b458       ??_C@_15NEOEKKDJ@?$AAu?$AAr@ 000000014004c458     libucrtd:lcidtoname_downlevel.obj
 0002:0000b460       ??_C@_15NFICGAJK@?$AAi?$AAd@ 000000014004c460     libucrtd:lcidtoname_downlevel.obj
 0002:0000b468       ??_C@_15HPJPHDM@?$AAb?$AAe@ 000000014004c468     libucrtd:lcidtoname_downlevel.obj
 0002:0000b470       ??_C@_15LCHLGJII@?$AAs?$AAl@ 000000014004c470     libucrtd:lcidtoname_downlevel.obj
 0002:0000b478       ??_C@_15PCFJPHHO@?$AAe?$AAt@ 000000014004c478     libucrtd:lcidtoname_downlevel.obj
 0002:0000b480       ??_C@_15HPFPGODN@?$AAl?$AAv@ 000000014004c480     libucrtd:lcidtoname_downlevel.obj
 0002:0000b488       ??_C@_15NFFGKGLG@?$AAl?$AAt@ 000000014004c488     libucrtd:lcidtoname_downlevel.obj
 0002:0000b490       ??_C@_15BDAKCCHN@?$AAf?$AAa@ 000000014004c490     libucrtd:lcidtoname_downlevel.obj
 0002:0000b498       ??_C@_15NFGIAIAJ@?$AAv?$AAi@ 000000014004c498     libucrtd:lcidtoname_downlevel.obj
 0002:0000b4a0       ??_C@_15LMKNDMHN@?$AAh?$AAy@ 000000014004c4a0     libucrtd:lcidtoname_downlevel.obj
 0002:0000b4a8       ??_C@_15IJBHMCFL@?$AAa?$AAz@ 000000014004c4a8     libucrtd:lcidtoname_downlevel.obj
 0002:0000b4b0       ??_C@_15EKOFJABL@?$AAe?$AAu@ 000000014004c4b0     libucrtd:lcidtoname_downlevel.obj
 0002:0000b4b8       ??_C@_15BGHADCNK@?$AAm?$AAk@ 000000014004c4b8     libucrtd:lcidtoname_downlevel.obj
 0002:0000b4c0       ??_C@_15JDNICKHM@?$AAa?$AAf@ 000000014004c4c0     libucrtd:lcidtoname_downlevel.obj
 0002:0000b4c8       ??_C@_15KPJEDBKD@?$AAk?$AAa@ 000000014004c4c8     libucrtd:lcidtoname_downlevel.obj
 0002:0000b4d0       ??_C@_15PDNFFFEO@?$AAf?$AAo@ 000000014004c4d0     libucrtd:lcidtoname_downlevel.obj
 0002:0000b4d8       ??_C@_15OMLEGLOC@?$AAh?$AAi@ 000000014004c4d8     libucrtd:lcidtoname_downlevel.obj
 0002:0000b4e0       ??_C@_15IDNNENKK@?$AAm?$AAs@ 000000014004c4e0     libucrtd:lcidtoname_downlevel.obj
 0002:0000b4e8       ??_C@_15MACJNBMH@?$AAk?$AAk@ 000000014004c4e8     libucrtd:lcidtoname_downlevel.obj
 0002:0000b4f0       ??_C@_15DKDJEOND@?$AAk?$AAy@ 000000014004c4f0     libucrtd:lcidtoname_downlevel.obj
 0002:0000b4f8       ??_C@_15DFGDLJBG@?$AAs?$AAw@ 000000014004c4f8     libucrtd:lcidtoname_downlevel.obj
 0002:0000b500       ??_C@_15BBFAICNG@?$AAu?$AAz@ 000000014004c500     libucrtd:lcidtoname_downlevel.obj
 0002:0000b508       ??_C@_15DKNDCGEA@?$AAt?$AAt@ 000000014004c508     libucrtd:lcidtoname_downlevel.obj
 0002:0000b510       ??_C@_15MGIFMDPL@?$AAp?$AAa@ 000000014004c510     libucrtd:lcidtoname_downlevel.obj
 0002:0000b518       ??_C@_15HCNDBBA@?$AAg?$AAu@ 000000014004c518     libucrtd:lcidtoname_downlevel.obj
 0002:0000b520       ??_C@_15FNBEIBON@?$AAt?$AAa@ 000000014004c520     libucrtd:lcidtoname_downlevel.obj
 0002:0000b528       ??_C@_15NCHGBGLK@?$AAt?$AAe@ 000000014004c528     libucrtd:lcidtoname_downlevel.obj
 0002:0000b530       ??_C@_15PHPHCBPF@?$AAk?$AAn@ 000000014004c530     libucrtd:lcidtoname_downlevel.obj
 0002:0000b538       ??_C@_15DLGBCKMP@?$AAm?$AAr@ 000000014004c538     libucrtd:lcidtoname_downlevel.obj
 0002:0000b540       ??_C@_15EABBLBFF@?$AAs?$AAa@ 000000014004c540     libucrtd:lcidtoname_downlevel.obj
 0002:0000b548       ??_C@_15CBKOMCOI@?$AAm?$AAn@ 000000014004c548     libucrtd:lcidtoname_downlevel.obj
 0002:0000b550       ??_C@_15CKDMCJAF@?$AAg?$AAl@ 000000014004c550     libucrtd:lcidtoname_downlevel.obj
 0002:0000b558       ??_C@_17CNJFBPG@?$AAk?$AAo?$AAk@ 000000014004c558     libucrtd:lcidtoname_downlevel.obj
 0002:0000b560       ??_C@_17FFBJICPL@?$AAs?$AAy?$AAr@ 000000014004c560     libucrtd:lcidtoname_downlevel.obj
 0002:0000b568       ??_C@_17KPNDCPAF@?$AAd?$AAi?$AAv@ 000000014004c568     libucrtd:lcidtoname_downlevel.obj
 0002:0000b570       ??_C@_1M@OKAHONE@?$AAa?$AAr?$AA?9?$AAS?$AAA@ 000000014004c570     libucrtd:lcidtoname_downlevel.obj
 0002:0000b580       ??_C@_1M@FFFIGIGK@?$AAb?$AAg?$AA?9?$AAB?$AAG@ 000000014004c580     libucrtd:lcidtoname_downlevel.obj
 0002:0000b590       ??_C@_1M@BJNKEDC@?$AAc?$AAa?$AA?9?$AAE?$AAS@ 000000014004c590     libucrtd:lcidtoname_downlevel.obj
 0002:0000b5a0       ??_C@_1M@IJJHFJHA@?$AAc?$AAs?$AA?9?$AAC?$AAZ@ 000000014004c5a0     libucrtd:lcidtoname_downlevel.obj
 0002:0000b5b0       ??_C@_1M@CLPEOBGI@?$AAd?$AAa?$AA?9?$AAD?$AAK@ 000000014004c5b0     libucrtd:lcidtoname_downlevel.obj
 0002:0000b5c0       ??_C@_1M@MCMADGCB@?$AAd?$AAe?$AA?9?$AAD?$AAE@ 000000014004c5c0     libucrtd:lcidtoname_downlevel.obj
 0002:0000b5d0       ??_C@_1M@OOCKEMAM@?$AAe?$AAl?$AA?9?$AAG?$AAR@ 000000014004c5d0     libucrtd:lcidtoname_downlevel.obj
 0002:0000b5e0       ??_C@_1M@DDNJFGID@?$AAf?$AAi?$AA?9?$AAF?$AAI@ 000000014004c5e0     libucrtd:lcidtoname_downlevel.obj
 0002:0000b5f0       ??_C@_1M@GLIPPMAC@?$AAf?$AAr?$AA?9?$AAF?$AAR@ 000000014004c5f0     libucrtd:lcidtoname_downlevel.obj
 0002:0000b600       ??_C@_1M@GFMCHPE@?$AAh?$AAe?$AA?9?$AAI?$AAL@ 000000014004c600     libucrtd:lcidtoname_downlevel.obj
 0002:0000b610       ??_C@_1M@MHLPGNKM@?$AAh?$AAu?$AA?9?$AAH?$AAU@ 000000014004c610     libucrtd:lcidtoname_downlevel.obj
 0002:0000b620       ??_C@_1M@LPDDNNPN@?$AAi?$AAs?$AA?9?$AAI?$AAS@ 000000014004c620     libucrtd:lcidtoname_downlevel.obj
 0002:0000b630       ??_C@_1M@MADIPODN@?$AAi?$AAt?$AA?9?$AAI?$AAT@ 000000014004c630     libucrtd:lcidtoname_downlevel.obj
 0002:0000b640       ??_C@_1M@IHBJJGG@?$AAn?$AAl?$AA?9?$AAN?$AAL@ 000000014004c640     libucrtd:lcidtoname_downlevel.obj
 0002:0000b650       ??_C@_1M@EANAGDL@?$AAn?$AAb?$AA?9?$AAN?$AAO@ 000000014004c650     libucrtd:lcidtoname_downlevel.obj
 0002:0000b660       ??_C@_1M@NEIEMEGP@?$AAp?$AAl?$AA?9?$AAP?$AAL@ 000000014004c660     libucrtd:lcidtoname_downlevel.obj
 0002:0000b670       ??_C@_1M@BOCFIGEP@?$AAp?$AAt?$AA?9?$AAB?$AAR@ 000000014004c670     libucrtd:lcidtoname_downlevel.obj
 0002:0000b680       ??_C@_1M@IMPFOPBG@?$AAr?$AAo?$AA?9?$AAR?$AAO@ 000000014004c680     libucrtd:lcidtoname_downlevel.obj
 0002:0000b690       ??_C@_1M@IDNNEJMM@?$AAr?$AAu?$AA?9?$AAR?$AAU@ 000000014004c690     libucrtd:lcidtoname_downlevel.obj
 0002:0000b6a0       ??_C@_1M@LILEEOGM@?$AAh?$AAr?$AA?9?$AAH?$AAR@ 000000014004c6a0     libucrtd:lcidtoname_downlevel.obj
 0002:0000b6b0       ??_C@_1M@FKIFEHPB@?$AAs?$AAk?$AA?9?$AAS?$AAK@ 000000014004c6b0     libucrtd:lcidtoname_downlevel.obj
 0002:0000b6c0       ??_C@_1M@LJMAMNPJ@?$AAs?$AAq?$AA?9?$AAA?$AAL@ 000000014004c6c0     libucrtd:lcidtoname_downlevel.obj
 0002:0000b6d0       ??_C@_1M@GIAKDKJK@?$AAs?$AAv?$AA?9?$AAS?$AAE@ 000000014004c6d0     libucrtd:lcidtoname_downlevel.obj
 0002:0000b6e0       ??_C@_1M@MKJKIKCL@?$AAt?$AAh?$AA?9?$AAT?$AAH@ 000000014004c6e0     libucrtd:lcidtoname_downlevel.obj
 0002:0000b6f0       ??_C@_1M@MFLCCMPB@?$AAt?$AAr?$AA?9?$AAT?$AAR@ 000000014004c6f0     libucrtd:lcidtoname_downlevel.obj
 0002:0000b700       ??_C@_1M@OIJHDKJN@?$AAu?$AAr?$AA?9?$AAP?$AAK@ 000000014004c700     libucrtd:lcidtoname_downlevel.obj
 0002:0000b710       ??_C@_1M@LHIPCIEK@?$AAi?$AAd?$AA?9?$AAI?$AAD@ 000000014004c710     libucrtd:lcidtoname_downlevel.obj
 0002:0000b720       ??_C@_1M@MFMOBGI@?$AAu?$AAk?$AA?9?$AAU?$AAA@ 000000014004c720     libucrtd:lcidtoname_downlevel.obj
 0002:0000b730       ??_C@_1M@OBGLJIPL@?$AAb?$AAe?$AA?9?$AAB?$AAY@ 000000014004c730     libucrtd:lcidtoname_downlevel.obj
 0002:0000b740       ??_C@_1M@BCFAJEAD@?$AAs?$AAl?$AA?9?$AAS?$AAI@ 000000014004c740     libucrtd:lcidtoname_downlevel.obj
 0002:0000b750       ??_C@_1M@FKFFEDDN@?$AAe?$AAt?$AA?9?$AAE?$AAE@ 000000014004c750     libucrtd:lcidtoname_downlevel.obj
 0002:0000b760       ??_C@_1M@KGKKAACI@?$AAl?$AAv?$AA?9?$AAL?$AAV@ 000000014004c760     libucrtd:lcidtoname_downlevel.obj
 0002:0000b770       ??_C@_1M@IFGBIJO@?$AAl?$AAt?$AA?9?$AAL?$AAT@ 000000014004c770     libucrtd:lcidtoname_downlevel.obj
 0002:0000b780       ??_C@_1M@FGEAHEDM@?$AAf?$AAa?$AA?9?$AAI?$AAR@ 000000014004c780     libucrtd:lcidtoname_downlevel.obj
 0002:0000b790       ??_C@_1M@KBMAIBFN@?$AAv?$AAi?$AA?9?$AAV?$AAN@ 000000014004c790     libucrtd:lcidtoname_downlevel.obj
 0002:0000b7a0       ??_C@_1M@GPCBKDJK@?$AAh?$AAy?$AA?9?$AAA?$AAM@ 000000014004c7a0     libucrtd:lcidtoname_downlevel.obj
 0002:0000b7b0       ??_C@_1BG@BECMDDJB@?$AAa?$AAz?$AA?9?$AAA?$AAZ?$AA?9?$AAL?$AAa?$AAt?$AAn@ 000000014004c7b0     libucrtd:lcidtoname_downlevel.obj
 0002:0000b7c8       ??_C@_1M@MAOFCAEA@?$AAe?$AAu?$AA?9?$AAE?$AAS@ 000000014004c7c8     libucrtd:lcidtoname_downlevel.obj
 0002:0000b7d8       ??_C@_1M@IGHABKPI@?$AAm?$AAk?$AA?9?$AAM?$AAK@ 000000014004c7d8     libucrtd:lcidtoname_downlevel.obj
 0002:0000b7e8       ??_C@_1M@IAIGNEJG@?$AAt?$AAn?$AA?9?$AAZ?$AAA@ 000000014004c7e8     libucrtd:lcidtoname_downlevel.obj
 0002:0000b7f8       ??_C@_1M@IIJCOJFA@?$AAx?$AAh?$AA?9?$AAZ?$AAA@ 000000014004c7f8     libucrtd:lcidtoname_downlevel.obj
 0002:0000b808       ??_C@_1M@LGPJHNJH@?$AAz?$AAu?$AA?9?$AAZ?$AAA@ 000000014004c808     libucrtd:lcidtoname_downlevel.obj
 0002:0000b818       ??_C@_1M@HOKAOIO@?$AAa?$AAf?$AA?9?$AAZ?$AAA@ 000000014004c818     libucrtd:lcidtoname_downlevel.obj
 0002:0000b828       ??_C@_1M@DPCLHLIE@?$AAk?$AAa?$AA?9?$AAG?$AAE@ 000000014004c828     libucrtd:lcidtoname_downlevel.obj
 0002:0000b838       ??_C@_1M@BLKMHJBI@?$AAf?$AAo?$AA?9?$AAF?$AAO@ 000000014004c838     libucrtd:lcidtoname_downlevel.obj
 0002:0000b848       ??_C@_1M@LGGJAPPB@?$AAh?$AAi?$AA?9?$AAI?$AAN@ 000000014004c848     libucrtd:lcidtoname_downlevel.obj
 0002:0000b858       ??_C@_1M@FIKPIHFE@?$AAm?$AAt?$AA?9?$AAM?$AAT@ 000000014004c858     libucrtd:lcidtoname_downlevel.obj
 0002:0000b868       ??_C@_1M@HEGGPBFA@?$AAs?$AAe?$AA?9?$AAN?$AAO@ 000000014004c868     libucrtd:lcidtoname_downlevel.obj
 0002:0000b878       ??_C@_1M@EIBJEEPA@?$AAm?$AAs?$AA?9?$AAM?$AAY@ 000000014004c878     libucrtd:lcidtoname_downlevel.obj
 0002:0000b888       ??_C@_1M@FHLBGMPP@?$AAk?$AAk?$AA?9?$AAK?$AAZ@ 000000014004c888     libucrtd:lcidtoname_downlevel.obj
 0002:0000b898       ??_C@_1M@NGJJLCGI@?$AAk?$AAy?$AA?9?$AAK?$AAG@ 000000014004c898     libucrtd:lcidtoname_downlevel.obj
 0002:0000b8a8       ??_C@_1M@GIENNBFC@?$AAs?$AAw?$AA?9?$AAK?$AAE@ 000000014004c8a8     libucrtd:lcidtoname_downlevel.obj
 0002:0000b8b8       ??_C@_1BG@NDGMJIMJ@?$AAu?$AAz?$AA?9?$AAU?$AAZ?$AA?9?$AAL?$AAa?$AAt?$AAn@ 000000014004c8b8     libucrtd:lcidtoname_downlevel.obj
 0002:0000b8d0       ??_C@_1M@IDCCIHBC@?$AAt?$AAt?$AA?9?$AAR?$AAU@ 000000014004c8d0     libucrtd:lcidtoname_downlevel.obj
 0002:0000b8e0       ??_C@_1M@LOICPMOJ@?$AAb?$AAn?$AA?9?$AAI?$AAN@ 000000014004c8e0     libucrtd:lcidtoname_downlevel.obj
 0002:0000b8f0       ??_C@_1M@KPKKNEAH@?$AAp?$AAa?$AA?9?$AAI?$AAN@ 000000014004c8f0     libucrtd:lcidtoname_downlevel.obj
 0002:0000b900       ??_C@_1M@PJGPPBOG@?$AAg?$AAu?$AA?9?$AAI?$AAN@ 000000014004c900     libucrtd:lcidtoname_downlevel.obj
 0002:0000b910       ??_C@_1M@KMKMOPHI@?$AAt?$AAa?$AA?9?$AAI?$AAN@ 000000014004c910     libucrtd:lcidtoname_downlevel.obj
 0002:0000b920       ??_C@_1M@KFEHEPAC@?$AAt?$AAe?$AA?9?$AAI?$AAN@ 000000014004c920     libucrtd:lcidtoname_downlevel.obj
 0002:0000b930       ??_C@_1M@CDCLMGHI@?$AAk?$AAn?$AA?9?$AAI?$AAN@ 000000014004c930     libucrtd:lcidtoname_downlevel.obj
 0002:0000b940       ??_C@_1M@MIODLDKF@?$AAm?$AAl?$AA?9?$AAI?$AAN@ 000000014004c940     libucrtd:lcidtoname_downlevel.obj
 0002:0000b950       ??_C@_1M@PBIEACPO@?$AAm?$AAr?$AA?9?$AAI?$AAN@ 000000014004c950     libucrtd:lcidtoname_downlevel.obj
 0002:0000b960       ??_C@_1M@NIDEAGPH@?$AAs?$AAa?$AA?9?$AAI?$AAN@ 000000014004c960     libucrtd:lcidtoname_downlevel.obj
 0002:0000b970       ??_C@_1M@FHIHCBIO@?$AAm?$AAn?$AA?9?$AAM?$AAN@ 000000014004c970     libucrtd:lcidtoname_downlevel.obj
 0002:0000b980       ??_C@_1M@JAIJPENP@?$AAc?$AAy?$AA?9?$AAG?$AAB@ 000000014004c980     libucrtd:lcidtoname_downlevel.obj
 0002:0000b990       ??_C@_1M@PHGFBEPN@?$AAg?$AAl?$AA?9?$AAE?$AAS@ 000000014004c990     libucrtd:lcidtoname_downlevel.obj
 0002:0000b9a0       ??_C@_1O@KPIPDNCP@?$AAk?$AAo?$AAk?$AA?9?$AAI?$AAN@ 000000014004c9a0     libucrtd:lcidtoname_downlevel.obj
 0002:0000b9b0       ??_C@_1O@KNHJLDJA@?$AAs?$AAy?$AAr?$AA?9?$AAS?$AAY@ 000000014004c9b0     libucrtd:lcidtoname_downlevel.obj
 0002:0000b9c0       ??_C@_1O@MKEKBLAH@?$AAd?$AAi?$AAv?$AA?9?$AAM?$AAV@ 000000014004c9c0     libucrtd:lcidtoname_downlevel.obj
 0002:0000b9d0       ??_C@_1O@OHDCKDDF@?$AAq?$AAu?$AAz?$AA?9?$AAB?$AAO@ 000000014004c9d0     libucrtd:lcidtoname_downlevel.obj
 0002:0000b9e0       ??_C@_1M@LEPJNLFD@?$AAn?$AAs?$AA?9?$AAZ?$AAA@ 000000014004c9e0     libucrtd:lcidtoname_downlevel.obj
 0002:0000b9f0       ??_C@_1M@OMLEIIJB@?$AAm?$AAi?$AA?9?$AAN?$AAZ@ 000000014004c9f0     libucrtd:lcidtoname_downlevel.obj
 0002:0000ba00       ??_C@_1M@PMPEAILG@?$AAa?$AAr?$AA?9?$AAI?$AAQ@ 000000014004ca00     libucrtd:lcidtoname_downlevel.obj
 0002:0000ba10       ??_C@_1M@CNKPNOEE@?$AAd?$AAe?$AA?9?$AAC?$AAH@ 000000014004ca10     libucrtd:lcidtoname_downlevel.obj
 0002:0000ba20       ??_C@_1M@LKMGMLKO@?$AAe?$AAn?$AA?9?$AAG?$AAB@ 000000014004ca20     libucrtd:lcidtoname_downlevel.obj
 0002:0000ba30       ??_C@_1M@PGKJFFGL@?$AAe?$AAs?$AA?9?$AAM?$AAX@ 000000014004ca30     libucrtd:lcidtoname_downlevel.obj
 0002:0000ba40       ??_C@_1M@DNNANBDC@?$AAf?$AAr?$AA?9?$AAB?$AAE@ 000000014004ca40     libucrtd:lcidtoname_downlevel.obj
 0002:0000ba50       ??_C@_1M@HLGMDFHM@?$AAi?$AAt?$AA?9?$AAC?$AAH@ 000000014004ca50     libucrtd:lcidtoname_downlevel.obj
 0002:0000ba60       ??_C@_1M@CLLBGJH@?$AAn?$AAl?$AA?9?$AAB?$AAE@ 000000014004ca60     libucrtd:lcidtoname_downlevel.obj
 0002:0000ba70       ??_C@_1M@BODBOGLF@?$AAn?$AAn?$AA?9?$AAN?$AAO@ 000000014004ca70     libucrtd:lcidtoname_downlevel.obj
 0002:0000ba80       ??_C@_1M@HFFAHKAD@?$AAp?$AAt?$AA?9?$AAP?$AAT@ 000000014004ca80     libucrtd:lcidtoname_downlevel.obj
 0002:0000ba90       ??_C@_1BG@LNOAKHIE@?$AAs?$AAr?$AA?9?$AAS?$AAP?$AA?9?$AAL?$AAa?$AAt?$AAn@ 000000014004ca90     libucrtd:lcidtoname_downlevel.obj
 0002:0000baa8       ??_C@_1M@HBMHBGAK@?$AAs?$AAv?$AA?9?$AAF?$AAI@ 000000014004caa8     libucrtd:lcidtoname_downlevel.obj
 0002:0000bab8       ??_C@_1BG@DGCJGJBE@?$AAa?$AAz?$AA?9?$AAA?$AAZ?$AA?9?$AAC?$AAy?$AAr?$AAl@ 000000014004cab8     libucrtd:lcidtoname_downlevel.obj
 0002:0000bad0       ??_C@_1M@KEJDAAHB@?$AAs?$AAe?$AA?9?$AAS?$AAE@ 000000014004cad0     libucrtd:lcidtoname_downlevel.obj
 0002:0000bae0       ??_C@_1M@HEIBJJAD@?$AAm?$AAs?$AA?9?$AAB?$AAN@ 000000014004cae0     libucrtd:lcidtoname_downlevel.obj
 0002:0000baf0       ??_C@_1BG@PBGJMCEM@?$AAu?$AAz?$AA?9?$AAU?$AAZ?$AA?9?$AAC?$AAy?$AAr?$AAl@ 000000014004caf0     libucrtd:lcidtoname_downlevel.obj
 0002:0000bb08       ??_C@_1O@LAOBCMDF@?$AAq?$AAu?$AAz?$AA?9?$AAE?$AAC@ 000000014004cb08     libucrtd:lcidtoname_downlevel.obj
 0002:0000bb18       ??_C@_1M@POEEMAIO@?$AAa?$AAr?$AA?9?$AAE?$AAG@ 000000014004cb18     libucrtd:lcidtoname_downlevel.obj
 0002:0000bb28       ??_C@_1M@EFAKDEDL@?$AAz?$AAh?$AA?9?$AAH?$AAK@ 000000014004cb28     libucrtd:lcidtoname_downlevel.obj
 0002:0000bb38       ??_C@_1M@HKKIJHGI@?$AAd?$AAe?$AA?9?$AAA?$AAT@ 000000014004cb38     libucrtd:lcidtoname_downlevel.obj
 0002:0000bb48       ??_C@_1M@KBFBEHJF@?$AAe?$AAn?$AA?9?$AAA?$AAU@ 000000014004cb48     libucrtd:lcidtoname_downlevel.obj
 0002:0000bb58       ??_C@_1M@MNPLFAAH@?$AAe?$AAs?$AA?9?$AAE?$AAS@ 000000014004cb58     libucrtd:lcidtoname_downlevel.obj
 0002:0000bb68       ??_C@_1M@HJOOJFMA@?$AAf?$AAr?$AA?9?$AAC?$AAA@ 000000014004cb68     libucrtd:lcidtoname_downlevel.obj
 0002:0000bb78       ??_C@_1BG@JPOFPNAB@?$AAs?$AAr?$AA?9?$AAS?$AAP?$AA?9?$AAC?$AAy?$AAr?$AAl@ 000000014004cb78     libucrtd:lcidtoname_downlevel.obj
 0002:0000bb90       ??_C@_1M@LNFOCMOB@?$AAs?$AAe?$AA?9?$AAF?$AAI@ 000000014004cb90     libucrtd:lcidtoname_downlevel.obj
 0002:0000bba0       ??_C@_1O@MGJBOAMB@?$AAq?$AAu?$AAz?$AA?9?$AAP?$AAE@ 000000014004cba0     libucrtd:lcidtoname_downlevel.obj
 0002:0000bbb0       ??_C@_1M@GJINLBOK@?$AAa?$AAr?$AA?9?$AAL?$AAY@ 000000014004cbb0     libucrtd:lcidtoname_downlevel.obj
 0002:0000bbc0       ??_C@_1M@GGMNHJNL@?$AAz?$AAh?$AA?9?$AAS?$AAG@ 000000014004cbc0     libucrtd:lcidtoname_downlevel.obj
 0002:0000bbd0       ??_C@_1M@HOIKODND@?$AAd?$AAe?$AA?9?$AAL?$AAU@ 000000014004cbd0     libucrtd:lcidtoname_downlevel.obj
 0002:0000bbe0       ??_C@_1M@DDOCCGFG@?$AAe?$AAn?$AA?9?$AAC?$AAA@ 000000014004cbe0     libucrtd:lcidtoname_downlevel.obj
 0002:0000bbf0       ??_C@_1M@BNOEMJLF@?$AAe?$AAs?$AA?9?$AAG?$AAT@ 000000014004cbf0     libucrtd:lcidtoname_downlevel.obj
 0002:0000bc00       ??_C@_1M@EOGNKEK@?$AAf?$AAr?$AA?9?$AAC?$AAH@ 000000014004cc00     libucrtd:lcidtoname_downlevel.obj
 0002:0000bc10       ??_C@_1M@FLIDJFHL@?$AAh?$AAr?$AA?9?$AAB?$AAA@ 000000014004cc10     libucrtd:lcidtoname_downlevel.obj
 0002:0000bc20       ??_C@_1O@FMCELNAJ@?$AAs?$AAm?$AAj?$AA?9?$AAN?$AAO@ 000000014004cc20     libucrtd:lcidtoname_downlevel.obj
 0002:0000bc30       ??_C@_1M@JHGLJMGJ@?$AAa?$AAr?$AA?9?$AAD?$AAZ@ 000000014004cc30     libucrtd:lcidtoname_downlevel.obj
 0002:0000bc40       ??_C@_1M@JKKFDCNP@?$AAz?$AAh?$AA?9?$AAM?$AAO@ 000000014004cc40     libucrtd:lcidtoname_downlevel.obj
 0002:0000bc50       ??_C@_1M@GEEFALPE@?$AAd?$AAe?$AA?9?$AAL?$AAI@ 000000014004cc50     libucrtd:lcidtoname_downlevel.obj
 0002:0000bc60       ??_C@_1M@IGEOFBG@?$AAe?$AAn?$AA?9?$AAN?$AAZ@ 000000014004cc60     libucrtd:lcidtoname_downlevel.obj
 0002:0000bc70       ??_C@_1M@KDBONEHP@?$AAe?$AAs?$AA?9?$AAC?$AAR@ 000000014004cc70     libucrtd:lcidtoname_downlevel.obj
 0002:0000bc80       ??_C@_1M@FHMDOHNN@?$AAf?$AAr?$AA?9?$AAL?$AAU@ 000000014004cc80     libucrtd:lcidtoname_downlevel.obj
 0002:0000bc90       ??_C@_1BG@NFKKMAFG@?$AAb?$AAs?$AA?9?$AAB?$AAA?$AA?9?$AAL?$AAa?$AAt?$AAn@ 000000014004cc90     libucrtd:lcidtoname_downlevel.obj
 0002:0000bca8       ??_C@_1O@IMNBEMCI@?$AAs?$AAm?$AAj?$AA?9?$AAS?$AAE@ 000000014004cca8     libucrtd:lcidtoname_downlevel.obj
 0002:0000bcb8       ??_C@_1M@DHHMBNDP@?$AAa?$AAr?$AA?9?$AAM?$AAA@ 000000014004ccb8     libucrtd:lcidtoname_downlevel.obj
 0002:0000bcc8       ??_C@_1M@BNBLJCGH@?$AAe?$AAn?$AA?9?$AAI?$AAE@ 000000014004ccc8     libucrtd:lcidtoname_downlevel.obj
 0002:0000bcd8       ??_C@_1M@GEPAFMDL@?$AAe?$AAs?$AA?9?$AAP?$AAA@ 000000014004ccd8     libucrtd:lcidtoname_downlevel.obj
 0002:0000bce8       ??_C@_1M@OJONDMDL@?$AAf?$AAr?$AA?9?$AAM?$AAC@ 000000014004cce8     libucrtd:lcidtoname_downlevel.obj
 0002:0000bcf8       ??_C@_1BG@OBCNFJB@?$AAs?$AAr?$AA?9?$AAB?$AAA?$AA?9?$AAL?$AAa?$AAt?$AAn@ 000000014004ccf8     libucrtd:lcidtoname_downlevel.obj
 0002:0000bd10       ??_C@_1O@KEMEEGPO@?$AAs?$AAm?$AAa?$AA?9?$AAN?$AAO@ 000000014004cd10     libucrtd:lcidtoname_downlevel.obj
 0002:0000bd20       ??_C@_1M@ELMGFODK@?$AAa?$AAr?$AA?9?$AAT?$AAN@ 000000014004cd20     libucrtd:lcidtoname_downlevel.obj
 0002:0000bd30       ??_C@_1M@BHDLHFAF@?$AAe?$AAn?$AA?9?$AAZ?$AAA@ 000000014004cd30     libucrtd:lcidtoname_downlevel.obj
 0002:0000bd40       ??_C@_1M@BMGIGLIF@?$AAe?$AAs?$AA?9?$AAD?$AAO@ 000000014004cd40     libucrtd:lcidtoname_downlevel.obj
 0002:0000bd50       ??_C@_1BG@CMBHIPBE@?$AAs?$AAr?$AA?9?$AAB?$AAA?$AA?9?$AAC?$AAy?$AAr?$AAl@ 000000014004cd50     libucrtd:lcidtoname_downlevel.obj
 0002:0000bd68       ??_C@_1O@HEDBLHNP@?$AAs?$AAm?$AAa?$AA?9?$AAS?$AAE@ 000000014004cd68     libucrtd:lcidtoname_downlevel.obj
 0002:0000bd78       ??_C@_1M@DAGCADIM@?$AAa?$AAr?$AA?9?$AAO?$AAM@ 000000014004cd78     libucrtd:lcidtoname_downlevel.obj
 0002:0000bd88       ??_C@_1M@FODLMICG@?$AAe?$AAn?$AA?9?$AAJ?$AAM@ 000000014004cd88     libucrtd:lcidtoname_downlevel.obj
 0002:0000bd98       ??_C@_1M@DNMLCIHB@?$AAe?$AAs?$AA?9?$AAV?$AAE@ 000000014004cd98     libucrtd:lcidtoname_downlevel.obj
 0002:0000bda8       ??_C@_1O@EOKHMKJK@?$AAs?$AAm?$AAs?$AA?9?$AAF?$AAI@ 000000014004cda8     libucrtd:lcidtoname_downlevel.obj
 0002:0000bdb8       ??_C@_1M@CAFJMKOF@?$AAa?$AAr?$AA?9?$AAY?$AAE@ 000000014004cdb8     libucrtd:lcidtoname_downlevel.obj
 0002:0000bdc8       ??_C@_1M@CBFHIJLI@?$AAe?$AAn?$AA?9?$AAC?$AAB@ 000000014004cdc8     libucrtd:lcidtoname_downlevel.obj
 0002:0000bdd8       ??_C@_1M@BGNFLDN@?$AAe?$AAs?$AA?9?$AAC?$AAO@ 000000014004cdd8     libucrtd:lcidtoname_downlevel.obj
 0002:0000bde8       ??_C@_1O@JMPHMAMC@?$AAs?$AAm?$AAn?$AA?9?$AAF?$AAI@ 000000014004cde8     libucrtd:lcidtoname_downlevel.obj
 0002:0000bdf8       ??_C@_1M@JLANABKE@?$AAa?$AAr?$AA?9?$AAS?$AAY@ 000000014004cdf8     libucrtd:lcidtoname_downlevel.obj
 0002:0000be08       ??_C@_1M@HPKGCFGN@?$AAe?$AAn?$AA?9?$AAB?$AAZ@ 000000014004ce08     libucrtd:lcidtoname_downlevel.obj
 0002:0000be18       ??_C@_1M@OLJCMLGM@?$AAe?$AAs?$AA?9?$AAP?$AAE@ 000000014004ce18     libucrtd:lcidtoname_downlevel.obj
 0002:0000be28       ??_C@_1M@MKKGFKLE@?$AAa?$AAr?$AA?9?$AAJ?$AAO@ 000000014004ce28     libucrtd:lcidtoname_downlevel.obj
 0002:0000be38       ??_C@_1M@EKPGLDNI@?$AAe?$AAn?$AA?9?$AAT?$AAT@ 000000014004ce38     libucrtd:lcidtoname_downlevel.obj
 0002:0000be48       ??_C@_1M@OONGHFHE@?$AAe?$AAs?$AA?9?$AAA?$AAR@ 000000014004ce48     libucrtd:lcidtoname_downlevel.obj
 0002:0000be58       ??_C@_1M@OOJFGBHE@?$AAa?$AAr?$AA?9?$AAL?$AAB@ 000000014004ce58     libucrtd:lcidtoname_downlevel.obj
 0002:0000be68       ??_C@_1M@GCEJHNEG@?$AAe?$AAn?$AA?9?$AAZ?$AAW@ 000000014004ce68     libucrtd:lcidtoname_downlevel.obj
 0002:0000be78       ??_C@_1M@JNOCAHJI@?$AAe?$AAs?$AA?9?$AAE?$AAC@ 000000014004ce78     libucrtd:lcidtoname_downlevel.obj
 0002:0000be88       ??_C@_1M@JEFHPGGB@?$AAa?$AAr?$AA?9?$AAK?$AAW@ 000000014004ce88     libucrtd:lcidtoname_downlevel.obj
 0002:0000be98       ??_C@_1M@MLKIBJOJ@?$AAe?$AAn?$AA?9?$AAP?$AAH@ 000000014004ce98     libucrtd:lcidtoname_downlevel.obj
 0002:0000bea8       ??_C@_1M@BDNIPEND@?$AAe?$AAs?$AA?9?$AAC?$AAL@ 000000014004cea8     libucrtd:lcidtoname_downlevel.obj
 0002:0000beb8       ??_C@_1M@MPNMEKBD@?$AAa?$AAr?$AA?9?$AAA?$AAE@ 000000014004ceb8     libucrtd:lcidtoname_downlevel.obj
 0002:0000bec8       ??_C@_1M@KBJALCPI@?$AAe?$AAs?$AA?9?$AAU?$AAY@ 000000014004cec8     libucrtd:lcidtoname_downlevel.obj
 0002:0000bed8       ??_C@_1M@LLCCOAGA@?$AAa?$AAr?$AA?9?$AAB?$AAH@ 000000014004ced8     libucrtd:lcidtoname_downlevel.obj
 0002:0000bee8       ??_C@_1M@PBFNCDEL@?$AAe?$AAs?$AA?9?$AAP?$AAY@ 000000014004cee8     libucrtd:lcidtoname_downlevel.obj
 0002:0000bef8       ??_C@_1M@EDGINPNP@?$AAa?$AAr?$AA?9?$AAQ?$AAA@ 000000014004cef8     libucrtd:lcidtoname_downlevel.obj
 0002:0000bf08       ??_C@_1M@MKDBIIJI@?$AAe?$AAs?$AA?9?$AAB?$AAO@ 000000014004cf08     libucrtd:lcidtoname_downlevel.obj
 0002:0000bf18       ??_C@_1M@CPKKEBLD@?$AAe?$AAs?$AA?9?$AAS?$AAV@ 000000014004cf18     libucrtd:lcidtoname_downlevel.obj
 0002:0000bf28       ??_C@_1M@NDBGMMJL@?$AAe?$AAs?$AA?9?$AAH?$AAN@ 000000014004cf28     libucrtd:lcidtoname_downlevel.obj
 0002:0000bf38       ??_C@_1M@JIJIBHDP@?$AAe?$AAs?$AA?9?$AAN?$AAI@ 000000014004cf38     libucrtd:lcidtoname_downlevel.obj
 0002:0000bf48       ??_C@_1M@CGFMKEEK@?$AAe?$AAs?$AA?9?$AAP?$AAR@ 000000014004cf48     libucrtd:lcidtoname_downlevel.obj
 0002:0000bf58       ??_C@_1O@ICJHKIIK@?$AAz?$AAh?$AA?9?$AAC?$AAH?$AAT@ 000000014004cf58     libucrtd:lcidtoname_downlevel.obj
 0002:0000bf68       ??_C@_15CLNEJCE@?$AAs?$AAr@ 000000014004cf68     libucrtd:lcidtoname_downlevel.obj
 0002:0000cdb0       ??_C@_1M@KAHEKEIG@?$AAa?$AAf?$AA?9?$AAz?$AAa@ 000000014004ddb0     libucrtd:lcidtoname_downlevel.obj
 0002:0000cdc0       ??_C@_1M@GIECOABL@?$AAa?$AAr?$AA?9?$AAa?$AAe@ 000000014004ddc0     libucrtd:lcidtoname_downlevel.obj
 0002:0000cdd0       ??_C@_1M@BMLMEKGI@?$AAa?$AAr?$AA?9?$AAb?$AAh@ 000000014004ddd0     libucrtd:lcidtoname_downlevel.obj
 0002:0000cde0       ??_C@_1M@DAPFDGGB@?$AAa?$AAr?$AA?9?$AAd?$AAz@ 000000014004dde0     libucrtd:lcidtoname_downlevel.obj
 0002:0000cdf0       ??_C@_1M@FJNKGKIG@?$AAa?$AAr?$AA?9?$AAe?$AAg@ 000000014004ddf0     libucrtd:lcidtoname_downlevel.obj
 0002:0000ce00       ??_C@_1M@FLGKKCLO@?$AAa?$AAr?$AA?9?$AAi?$AAq@ 000000014004de00     libucrtd:lcidtoname_downlevel.obj
 0002:0000ce10       ??_C@_1M@GNDIPALM@?$AAa?$AAr?$AA?9?$AAj?$AAo@ 000000014004de10     libucrtd:lcidtoname_downlevel.obj
 0002:0000ce20       ??_C@_1M@DDMJFMGJ@?$AAa?$AAr?$AA?9?$AAk?$AAw@ 000000014004de20     libucrtd:lcidtoname_downlevel.obj
 0002:0000ce30       ??_C@_1M@EJALMLHM@?$AAa?$AAr?$AA?9?$AAl?$AAb@ 000000014004de30     libucrtd:lcidtoname_downlevel.obj
 0002:0000ce40       ??_C@_1M@MOBDBLOC@?$AAa?$AAr?$AA?9?$AAl?$AAy@ 000000014004de40     libucrtd:lcidtoname_downlevel.obj
 0002:0000ce50       ??_C@_1M@JAOCLHDH@?$AAa?$AAr?$AA?9?$AAm?$AAa@ 000000014004de50     libucrtd:lcidtoname_downlevel.obj
 0002:0000ce60       ??_C@_1M@JHPMKJIE@?$AAa?$AAr?$AA?9?$AAo?$AAm@ 000000014004de60     libucrtd:lcidtoname_downlevel.obj
 0002:0000ce70       ??_C@_1M@OEPGHFNH@?$AAa?$AAr?$AA?9?$AAq?$AAa@ 000000014004de70     libucrtd:lcidtoname_downlevel.obj
 0002:0000ce80       ??_C@_1M@KJDONENM@?$AAa?$AAr?$AA?9?$AAs?$AAa@ 000000014004de80     libucrtd:lcidtoname_downlevel.obj
 0002:0000ce90       ??_C@_1M@DMJDKLKM@?$AAa?$AAr?$AA?9?$AAs?$AAy@ 000000014004de90     libucrtd:lcidtoname_downlevel.obj
 0002:0000cea0       ??_C@_1M@OMFIPEDC@?$AAa?$AAr?$AA?9?$AAt?$AAn@ 000000014004dea0     libucrtd:lcidtoname_downlevel.obj
 0002:0000ceb0       ??_C@_1M@IHMHGAON@?$AAa?$AAr?$AA?9?$AAy?$AAe@ 000000014004deb0     libucrtd:lcidtoname_downlevel.obj
 0002:0000cec0       ??_C@_1BG@KDCPGJGB@?$AAa?$AAz?$AA?9?$AAa?$AAz?$AA?9?$AAc?$AAy?$AAr?$AAl@ 000000014004dec0     libucrtd:lcidtoname_downlevel.obj
 0002:0000ced8       ??_C@_1BG@IBCKDDOE@?$AAa?$AAz?$AA?9?$AAa?$AAz?$AA?9?$AAl?$AAa?$AAt?$AAn@ 000000014004ded8     libucrtd:lcidtoname_downlevel.obj
 0002:0000cef0       ??_C@_1M@EGPFDCPD@?$AAb?$AAe?$AA?9?$AAb?$AAy@ 000000014004def0     libucrtd:lcidtoname_downlevel.obj
 0002:0000cf00       ??_C@_1M@PCMGMCGC@?$AAb?$AAg?$AA?9?$AAb?$AAg@ 000000014004df00     libucrtd:lcidtoname_downlevel.obj
 0002:0000cf10       ??_C@_1M@BJBMFGOB@?$AAb?$AAn?$AA?9?$AAi?$AAn@ 000000014004df10     libucrtd:lcidtoname_downlevel.obj
 0002:0000cf20       ??_C@_1BG@EAKMMACD@?$AAb?$AAs?$AA?9?$AAb?$AAa?$AA?9?$AAl?$AAa?$AAt?$AAn@ 000000014004df20     libucrtd:lcidtoname_downlevel.obj
 0002:0000cf38       ??_C@_1M@KGADAODK@?$AAc?$AAa?$AA?9?$AAe?$AAs@ 000000014004df38     libucrtd:lcidtoname_downlevel.obj
 0002:0000cf48       ??_C@_1M@COAJPDHI@?$AAc?$AAs?$AA?9?$AAc?$AAz@ 000000014004df48     libucrtd:lcidtoname_downlevel.obj
 0002:0000cf58       ??_C@_1M@DHBHFONH@?$AAc?$AAy?$AA?9?$AAg?$AAb@ 000000014004df58     libucrtd:lcidtoname_downlevel.obj
 0002:0000cf68       ??_C@_1M@IMGKELGA@?$AAd?$AAa?$AA?9?$AAd?$AAk@ 000000014004df68     libucrtd:lcidtoname_downlevel.obj
 0002:0000cf78       ??_C@_1M@NNDGDNGA@?$AAd?$AAe?$AA?9?$AAa?$AAt@ 000000014004df78     libucrtd:lcidtoname_downlevel.obj
 0002:0000cf88       ??_C@_1M@IKDBHEEM@?$AAd?$AAe?$AA?9?$AAc?$AAh@ 000000014004df88     libucrtd:lcidtoname_downlevel.obj
 0002:0000cf98       ??_C@_1M@GFFOJMCJ@?$AAd?$AAe?$AA?9?$AAd?$AAe@ 000000014004df98     libucrtd:lcidtoname_downlevel.obj
 0002:0000cfa8       ??_C@_1M@MDNLKBPM@?$AAd?$AAe?$AA?9?$AAl?$AAi@ 000000014004dfa8     libucrtd:lcidtoname_downlevel.obj
 0002:0000cfb8       ??_C@_1M@NJBEEJNL@?$AAd?$AAe?$AA?9?$AAl?$AAu@ 000000014004dfb8     libucrtd:lcidtoname_downlevel.obj
 0002:0000cfc8       ??_C@_1O@GNNELBAP@?$AAd?$AAi?$AAv?$AA?9?$AAm?$AAv@ 000000014004dfc8     libucrtd:lcidtoname_downlevel.obj
 0002:0000cfd8       ??_C@_1M@EJLEOGAE@?$AAe?$AAl?$AA?9?$AAg?$AAr@ 000000014004dfd8     libucrtd:lcidtoname_downlevel.obj
 0002:0000cfe8       ??_C@_1M@GMPONJN@?$AAe?$AAn?$AA?9?$AAa?$AAu@ 000000014004dfe8     libucrtd:lcidtoname_downlevel.obj
 0002:0000cff8       ??_C@_1M@NIDIIPGF@?$AAe?$AAn?$AA?9?$AAb?$AAz@ 000000014004dff8     libucrtd:lcidtoname_downlevel.obj
 0002:0000d008       ??_C@_1M@JEHMIMFO@?$AAe?$AAn?$AA?9?$AAc?$AAa@ 000000014004e008     libucrtd:lcidtoname_downlevel.obj
 0002:0000d018       ??_C@_1M@IGMJCDLA@?$AAe?$AAn?$AA?9?$AAc?$AAb@ 000000014004e018     libucrtd:lcidtoname_downlevel.obj
 0002:0000d028       ??_C@_1M@BNFIGBKG@?$AAe?$AAn?$AA?9?$AAg?$AAb@ 000000014004e028     libucrtd:lcidtoname_downlevel.obj
 0002:0000d038       ??_C@_1M@LKIFDIGP@?$AAe?$AAn?$AA?9?$AAi?$AAe@ 000000014004e038     libucrtd:lcidtoname_downlevel.obj
 0002:0000d048       ??_C@_1M@PJKFGCCO@?$AAe?$AAn?$AA?9?$AAj?$AAm@ 000000014004e048     libucrtd:lcidtoname_downlevel.obj
 0002:0000d058       ??_C@_1M@KPPKEPBO@?$AAe?$AAn?$AA?9?$AAn?$AAz@ 000000014004e058     libucrtd:lcidtoname_downlevel.obj
 0002:0000d068       ??_C@_1M@GMDGLDOB@?$AAe?$AAn?$AA?9?$AAp?$AAh@ 000000014004e068     libucrtd:lcidtoname_downlevel.obj
 0002:0000d078       ??_C@_1M@ONGIBJNA@?$AAe?$AAn?$AA?9?$AAt?$AAt@ 000000014004e078     libucrtd:lcidtoname_downlevel.obj
 0002:0000d088       ??_C@_1M@LLODPCMM@?$AAe?$AAn?$AA?9?$AAu?$AAs@ 000000014004e088     libucrtd:lcidtoname_downlevel.obj
 0002:0000d098       ??_C@_1M@LAKFNPAN@?$AAe?$AAn?$AA?9?$AAz?$AAa@ 000000014004e098     libucrtd:lcidtoname_downlevel.obj
 0002:0000d0a8       ??_C@_1M@MFNHNHEO@?$AAe?$AAn?$AA?9?$AAz?$AAw@ 000000014004e0a8     libucrtd:lcidtoname_downlevel.obj
 0002:0000d0b8       ??_C@_1M@EJEINPHM@?$AAe?$AAs?$AA?9?$AAa?$AAr@ 000000014004e0b8     libucrtd:lcidtoname_downlevel.obj
 0002:0000d0c8       ??_C@_1M@GNKPCCJA@?$AAe?$AAs?$AA?9?$AAb?$AAo@ 000000014004e0c8     libucrtd:lcidtoname_downlevel.obj
 0002:0000d0d8       ??_C@_1M@LEEGFONL@?$AAe?$AAs?$AA?9?$AAc?$AAl@ 000000014004e0d8     libucrtd:lcidtoname_downlevel.obj
 0002:0000d0e8       ??_C@_1M@KGPDPBDF@?$AAe?$AAs?$AA?9?$AAc?$AAo@ 000000014004e0e8     libucrtd:lcidtoname_downlevel.obj
 0002:0000d0f8       ??_C@_1M@EIAHOHH@?$AAe?$AAs?$AA?9?$AAc?$AAr@ 000000014004e0f8     libucrtd:lcidtoname_downlevel.obj
 0002:0000d108       ??_C@_1M@LLPGMBIN@?$AAe?$AAs?$AA?9?$AAd?$AAo@ 000000014004e108     libucrtd:lcidtoname_downlevel.obj
 0002:0000d118       ??_C@_1M@DKHMKNJA@?$AAe?$AAs?$AA?9?$AAe?$AAc@ 000000014004e118     libucrtd:lcidtoname_downlevel.obj
 0002:0000d128       ??_C@_1M@GKGFPKAP@?$AAe?$AAs?$AA?9?$AAe?$AAs@ 000000014004e128     libucrtd:lcidtoname_downlevel.obj
 0002:0000d138       ??_C@_1M@LKHKGDLN@?$AAe?$AAs?$AA?9?$AAg?$AAt@ 000000014004e138     libucrtd:lcidtoname_downlevel.obj
 0002:0000d148       ??_C@_1M@HEIIGGJD@?$AAe?$AAs?$AA?9?$AAh?$AAn@ 000000014004e148     libucrtd:lcidtoname_downlevel.obj
 0002:0000d158       ??_C@_1M@FBDHPPGD@?$AAe?$AAs?$AA?9?$AAm?$AAx@ 000000014004e158     libucrtd:lcidtoname_downlevel.obj
 0002:0000d168       ??_C@_1M@DPAGLNDH@?$AAe?$AAs?$AA?9?$AAn?$AAi@ 000000014004e168     libucrtd:lcidtoname_downlevel.obj
 0002:0000d178       ??_C@_1M@MDGOPGDD@?$AAe?$AAs?$AA?9?$AAp?$AAa@ 000000014004e178     libucrtd:lcidtoname_downlevel.obj
 0002:0000d188       ??_C@_1M@EMAMGBGE@?$AAe?$AAs?$AA?9?$AAp?$AAe@ 000000014004e188     libucrtd:lcidtoname_downlevel.obj
 0002:0000d198       ??_C@_1M@IBMCAOEC@?$AAe?$AAs?$AA?9?$AAp?$AAr@ 000000014004e198     libucrtd:lcidtoname_downlevel.obj
 0002:0000d1a8       ??_C@_1M@FGMDIJED@?$AAe?$AAs?$AA?9?$AAp?$AAy@ 000000014004e1a8     libucrtd:lcidtoname_downlevel.obj
 0002:0000d1b8       ??_C@_1M@IIDEOLLL@?$AAe?$AAs?$AA?9?$AAs?$AAv@ 000000014004e1b8     libucrtd:lcidtoname_downlevel.obj
 0002:0000d1c8       ??_C@_1M@GAOBIPA@?$AAe?$AAs?$AA?9?$AAu?$AAy@ 000000014004e1c8     libucrtd:lcidtoname_downlevel.obj
 0002:0000d1d8       ??_C@_1M@JKFFICHJ@?$AAe?$AAs?$AA?9?$AAv?$AAe@ 000000014004e1d8     libucrtd:lcidtoname_downlevel.obj
 0002:0000d1e8       ??_C@_1M@PNMLOJDF@?$AAe?$AAt?$AA?9?$AAe?$AAe@ 000000014004e1e8     libucrtd:lcidtoname_downlevel.obj
 0002:0000d1f8       ??_C@_1M@GHHLIKEI@?$AAe?$AAu?$AA?9?$AAe?$AAs@ 000000014004e1f8     libucrtd:lcidtoname_downlevel.obj
 0002:0000d208       ??_C@_1M@PBNONODE@?$AAf?$AAa?$AA?9?$AAi?$AAr@ 000000014004e208     libucrtd:lcidtoname_downlevel.obj
 0002:0000d218       ??_C@_1M@JEEHPMIL@?$AAf?$AAi?$AA?9?$AAf?$AAi@ 000000014004e218     libucrtd:lcidtoname_downlevel.obj
 0002:0000d228       ??_C@_1M@LMDCNDBA@?$AAf?$AAo?$AA?9?$AAf?$AAo@ 000000014004e228     libucrtd:lcidtoname_downlevel.obj
 0002:0000d238       ??_C@_1M@JKEOHLDK@?$AAf?$AAr?$AA?9?$AAb?$AAe@ 000000014004e238     libucrtd:lcidtoname_downlevel.obj
 0002:0000d248       ??_C@_1M@NOHADPMI@?$AAf?$AAr?$AA?9?$AAc?$AAa@ 000000014004e248     libucrtd:lcidtoname_downlevel.obj
 0002:0000d258       ??_C@_1M@KDHIHAEC@?$AAf?$AAr?$AA?9?$AAc?$AAh@ 000000014004e258     libucrtd:lcidtoname_downlevel.obj
 0002:0000d268       ??_C@_1M@MMBBFGAK@?$AAf?$AAr?$AA?9?$AAf?$AAr@ 000000014004e268     libucrtd:lcidtoname_downlevel.obj
 0002:0000d278       ??_C@_1M@PAFNENNF@?$AAf?$AAr?$AA?9?$AAl?$AAu@ 000000014004e278     libucrtd:lcidtoname_downlevel.obj
 0002:0000d288       ??_C@_1M@EOHDJGDD@?$AAf?$AAr?$AA?9?$AAm?$AAc@ 000000014004e288     libucrtd:lcidtoname_downlevel.obj
 0002:0000d298       ??_C@_1M@FAPLLOPF@?$AAg?$AAl?$AA?9?$AAe?$AAs@ 000000014004e298     libucrtd:lcidtoname_downlevel.obj
 0002:0000d2a8       ??_C@_1M@FOPBFLOO@?$AAg?$AAu?$AA?9?$AAi?$AAn@ 000000014004e2a8     libucrtd:lcidtoname_downlevel.obj
 0002:0000d2b8       ??_C@_1M@KBMCINPM@?$AAh?$AAe?$AA?9?$AAi?$AAl@ 000000014004e2b8     libucrtd:lcidtoname_downlevel.obj
 0002:0000d2c8       ??_C@_1M@BBPHKFPJ@?$AAh?$AAi?$AA?9?$AAi?$AAn@ 000000014004e2c8     libucrtd:lcidtoname_downlevel.obj
 0002:0000d2d8       ??_C@_1M@PMBNDPHD@?$AAh?$AAr?$AA?9?$AAb?$AAa@ 000000014004e2d8     libucrtd:lcidtoname_downlevel.obj
 0002:0000d2e8       ??_C@_1M@BPCKOEGE@?$AAh?$AAr?$AA?9?$AAh?$AAr@ 000000014004e2e8     libucrtd:lcidtoname_downlevel.obj
 0002:0000d2f8       ??_C@_1M@GACBMHKE@?$AAh?$AAu?$AA?9?$AAh?$AAu@ 000000014004e2f8     libucrtd:lcidtoname_downlevel.obj
 0002:0000d308       ??_C@_1M@MILPAJJC@?$AAh?$AAy?$AA?9?$AAa?$AAm@ 000000014004e308     libucrtd:lcidtoname_downlevel.obj
 0002:0000d318       ??_C@_1M@BABBICEC@?$AAi?$AAd?$AA?9?$AAi?$AAd@ 000000014004e318     libucrtd:lcidtoname_downlevel.obj
 0002:0000d328       ??_C@_1M@BIKNHHPF@?$AAi?$AAs?$AA?9?$AAi?$AAs@ 000000014004e328     libucrtd:lcidtoname_downlevel.obj
 0002:0000d338       ??_C@_1M@NMPCJPHE@?$AAi?$AAt?$AA?9?$AAc?$AAh@ 000000014004e338     libucrtd:lcidtoname_downlevel.obj
 0002:0000d348       ??_C@_1M@GHKGFEDF@?$AAi?$AAt?$AA?9?$AAi?$AAt@ 000000014004e348     libucrtd:lcidtoname_downlevel.obj
 0002:0000d358       ??_C@_1M@NIEJCJJA@?$AAj?$AAa?$AA?9?$AAj?$AAp@ 000000014004e358     libucrtd:lcidtoname_downlevel.obj
 0002:0000d368       ??_C@_1M@JILFNBIM@?$AAk?$AAa?$AA?9?$AAg?$AAe@ 000000014004e368     libucrtd:lcidtoname_downlevel.obj
 0002:0000d378       ??_C@_1M@PACPMGPH@?$AAk?$AAk?$AA?9?$AAk?$AAz@ 000000014004e378     libucrtd:lcidtoname_downlevel.obj
 0002:0000d388       ??_C@_1M@IELFGMHA@?$AAk?$AAn?$AA?9?$AAi?$AAn@ 000000014004e388     libucrtd:lcidtoname_downlevel.obj
 0002:0000d398       ??_C@_1O@IBBJHCH@?$AAk?$AAo?$AAk?$AA?9?$AAi?$AAn@ 000000014004e398     libucrtd:lcidtoname_downlevel.obj
 0002:0000d3a8       ??_C@_1M@DMHAEOGC@?$AAk?$AAo?$AA?9?$AAk?$AAr@ 000000014004e3a8     libucrtd:lcidtoname_downlevel.obj
 0002:0000d3b8       ??_C@_1M@HBAHBIGA@?$AAk?$AAy?$AA?9?$AAk?$AAg@ 000000014004e3b8     libucrtd:lcidtoname_downlevel.obj
 0002:0000d3c8       ??_C@_1M@KPMILCJG@?$AAl?$AAt?$AA?9?$AAl?$AAt@ 000000014004e3c8     libucrtd:lcidtoname_downlevel.obj
 0002:0000d3d8       ??_C@_1M@BDEKKCA@?$AAl?$AAv?$AA?9?$AAl?$AAv@ 000000014004e3d8     libucrtd:lcidtoname_downlevel.obj
 0002:0000d3e8       ??_C@_1M@ELCKCCJJ@?$AAm?$AAi?$AA?9?$AAn?$AAz@ 000000014004e3e8     libucrtd:lcidtoname_downlevel.obj
 0002:0000d3f8       ??_C@_1M@CBOOLAPA@?$AAm?$AAk?$AA?9?$AAm?$AAk@ 000000014004e3f8     libucrtd:lcidtoname_downlevel.obj
 0002:0000d408       ??_C@_1M@GPHNBJKN@?$AAm?$AAl?$AA?9?$AAi?$AAn@ 000000014004e408     libucrtd:lcidtoname_downlevel.obj
 0002:0000d418       ??_C@_1M@PABJILIG@?$AAm?$AAn?$AA?9?$AAm?$AAn@ 000000014004e418     libucrtd:lcidtoname_downlevel.obj
 0002:0000d428       ??_C@_1M@FGBKKIPG@?$AAm?$AAr?$AA?9?$AAi?$AAn@ 000000014004e428     libucrtd:lcidtoname_downlevel.obj
 0002:0000d438       ??_C@_1M@NDBPDDAL@?$AAm?$AAs?$AA?9?$AAb?$AAn@ 000000014004e438     libucrtd:lcidtoname_downlevel.obj
 0002:0000d448       ??_C@_1M@OPIHOOPI@?$AAm?$AAs?$AA?9?$AAm?$AAy@ 000000014004e448     libucrtd:lcidtoname_downlevel.obj
 0002:0000d458       ??_C@_1M@PPDBCNFM@?$AAm?$AAt?$AA?9?$AAm?$AAt@ 000000014004e458     libucrtd:lcidtoname_downlevel.obj
 0002:0000d468       ??_C@_1M@KDJDKMDD@?$AAn?$AAb?$AA?9?$AAn?$AAo@ 000000014004e468     libucrtd:lcidtoname_downlevel.obj
 0002:0000d478       ??_C@_1M@KFCFLMJP@?$AAn?$AAl?$AA?9?$AAb?$AAe@ 000000014004e478     libucrtd:lcidtoname_downlevel.obj
 0002:0000d488       ??_C@_1M@KPOPDDGO@?$AAn?$AAl?$AA?9?$AAn?$AAl@ 000000014004e488     libucrtd:lcidtoname_downlevel.obj
 0002:0000d498       ??_C@_1M@LJKPEMLN@?$AAn?$AAn?$AA?9?$AAn?$AAo@ 000000014004e498     libucrtd:lcidtoname_downlevel.obj
 0002:0000d4a8       ??_C@_1M@BDGHHBFL@?$AAn?$AAs?$AA?9?$AAz?$AAa@ 000000014004e4a8     libucrtd:lcidtoname_downlevel.obj
 0002:0000d4b8       ??_C@_1M@IDEHOAP@?$AAp?$AAa?$AA?9?$AAi?$AAn@ 000000014004e4b8     libucrtd:lcidtoname_downlevel.obj
 0002:0000d4c8       ??_C@_1M@HDBKGOGH@?$AAp?$AAl?$AA?9?$AAp?$AAl@ 000000014004e4c8     libucrtd:lcidtoname_downlevel.obj
 0002:0000d4d8       ??_C@_1M@LJLLCMEH@?$AAp?$AAt?$AA?9?$AAb?$AAr@ 000000014004e4d8     libucrtd:lcidtoname_downlevel.obj
 0002:0000d4e8       ??_C@_1M@NCMONAAL@?$AAp?$AAt?$AA?9?$AAp?$AAt@ 000000014004e4e8     libucrtd:lcidtoname_downlevel.obj
 0002:0000d4f8       ??_C@_1O@EAKMAJDN@?$AAq?$AAu?$AAz?$AA?9?$AAb?$AAo@ 000000014004e4f8     libucrtd:lcidtoname_downlevel.obj
 0002:0000d508       ??_C@_1O@BHHPIGDN@?$AAq?$AAu?$AAz?$AA?9?$AAe?$AAc@ 000000014004e508     libucrtd:lcidtoname_downlevel.obj
 0002:0000d518       ??_C@_1O@GBAPEKMJ@?$AAq?$AAu?$AAz?$AA?9?$AAp?$AAe@ 000000014004e518     libucrtd:lcidtoname_downlevel.obj
 0002:0000d528       ??_C@_1M@CLGLEFBO@?$AAr?$AAo?$AA?9?$AAr?$AAo@ 000000014004e528     libucrtd:lcidtoname_downlevel.obj
 0002:0000d538       ??_C@_1M@CEEDODME@?$AAr?$AAu?$AA?9?$AAr?$AAu@ 000000014004e538     libucrtd:lcidtoname_downlevel.obj
 0002:0000d548       ??_C@_1M@HPKKKMPP@?$AAs?$AAa?$AA?9?$AAi?$AAn@ 000000014004e548     libucrtd:lcidtoname_downlevel.obj
 0002:0000d558       ??_C@_1M@BKMAIGOJ@?$AAs?$AAe?$AA?9?$AAf?$AAi@ 000000014004e558     libucrtd:lcidtoname_downlevel.obj
 0002:0000d568       ??_C@_1M@NDPIFLFI@?$AAs?$AAe?$AA?9?$AAn?$AAo@ 000000014004e568     libucrtd:lcidtoname_downlevel.obj
 0002:0000d578       ??_C@_1M@DANKKHJ@?$AAs?$AAe?$AA?9?$AAs?$AAe@ 000000014004e578     libucrtd:lcidtoname_downlevel.obj
 0002:0000d588       ??_C@_1M@PNBLONPJ@?$AAs?$AAk?$AA?9?$AAs?$AAk@ 000000014004e588     libucrtd:lcidtoname_downlevel.obj
 0002:0000d598       ??_C@_1M@LFMODOAL@?$AAs?$AAl?$AA?9?$AAs?$AAi@ 000000014004e598     libucrtd:lcidtoname_downlevel.obj
 0002:0000d5a8       ??_C@_1O@DFKOMPG@?$AAs?$AAm?$AAa?$AA?9?$AAn?$AAo@ 000000014004e5a8     libucrtd:lcidtoname_downlevel.obj
 0002:0000d5b8       ??_C@_1O@NDKPBNNH@?$AAs?$AAm?$AAa?$AA?9?$AAs?$AAe@ 000000014004e5b8     libucrtd:lcidtoname_downlevel.obj
 0002:0000d5c8       ??_C@_1O@PLLKBHAB@?$AAs?$AAm?$AAj?$AA?9?$AAn?$AAo@ 000000014004e5c8     libucrtd:lcidtoname_downlevel.obj
 0002:0000d5d8       ??_C@_1O@CLEPOGCA@?$AAs?$AAm?$AAj?$AA?9?$AAs?$AAe@ 000000014004e5d8     libucrtd:lcidtoname_downlevel.obj
 0002:0000d5e8       ??_C@_1O@DLGJGKMK@?$AAs?$AAm?$AAn?$AA?9?$AAf?$AAi@ 000000014004e5e8     libucrtd:lcidtoname_downlevel.obj
 0002:0000d5f8       ??_C@_1O@OJDJGAJC@?$AAs?$AAm?$AAs?$AA?9?$AAf?$AAi@ 000000014004e5f8     libucrtd:lcidtoname_downlevel.obj
 0002:0000d608       ??_C@_1M@BOFOGHPB@?$AAs?$AAq?$AA?9?$AAa?$AAl@ 000000014004e608     libucrtd:lcidtoname_downlevel.obj
 0002:0000d618       ??_C@_1BG@LJBBIPGB@?$AAs?$AAr?$AA?9?$AAb?$AAa?$AA?9?$AAc?$AAy?$AAr?$AAl@ 000000014004e618     libucrtd:lcidtoname_downlevel.obj
 0002:0000d630       ??_C@_1BG@JLBENFOE@?$AAs?$AAr?$AA?9?$AAb?$AAa?$AA?9?$AAl?$AAa?$AAt?$AAn@ 000000014004e630     libucrtd:lcidtoname_downlevel.obj
 0002:0000d648       ??_C@_1BG@KODPNHE@?$AAs?$AAr?$AA?9?$AAs?$AAp?$AA?9?$AAc?$AAy?$AAr?$AAl@ 000000014004e648     libucrtd:lcidtoname_downlevel.obj
 0002:0000d660       ??_C@_1BG@CIOGKHPB@?$AAs?$AAr?$AA?9?$AAs?$AAp?$AA?9?$AAl?$AAa?$AAt?$AAn@ 000000014004e660     libucrtd:lcidtoname_downlevel.obj
 0002:0000d678       ??_C@_1M@NGFJLMAC@?$AAs?$AAv?$AA?9?$AAf?$AAi@ 000000014004e678     libucrtd:lcidtoname_downlevel.obj
 0002:0000d688       ??_C@_1M@MPJEJAJC@?$AAs?$AAv?$AA?9?$AAs?$AAe@ 000000014004e688     libucrtd:lcidtoname_downlevel.obj
 0002:0000d698       ??_C@_1M@MPNDHLFK@?$AAs?$AAw?$AA?9?$AAk?$AAe@ 000000014004e698     libucrtd:lcidtoname_downlevel.obj
 0002:0000d6a8       ??_C@_1O@KOHBJJI@?$AAs?$AAy?$AAr?$AA?9?$AAs?$AAy@ 000000014004e6a8     libucrtd:lcidtoname_downlevel.obj
 0002:0000d6b8       ??_C@_1M@LDCEFHA@?$AAt?$AAa?$AA?9?$AAi?$AAn@ 000000014004e6b8     libucrtd:lcidtoname_downlevel.obj
 0002:0000d6c8       ??_C@_1M@CNJOFAK@?$AAt?$AAe?$AA?9?$AAi?$AAn@ 000000014004e6c8     libucrtd:lcidtoname_downlevel.obj
 0002:0000d6d8       ??_C@_1M@GNAECACD@?$AAt?$AAh?$AA?9?$AAt?$AAh@ 000000014004e6d8     libucrtd:lcidtoname_downlevel.obj
 0002:0000d6e8       ??_C@_1M@CHBIHOJO@?$AAt?$AAn?$AA?9?$AAz?$AAa@ 000000014004e6e8     libucrtd:lcidtoname_downlevel.obj
 0002:0000d6f8       ??_C@_1M@GCCMIGPJ@?$AAt?$AAr?$AA?9?$AAt?$AAr@ 000000014004e6f8     libucrtd:lcidtoname_downlevel.obj
 0002:0000d708       ??_C@_1M@CELMCNBK@?$AAt?$AAt?$AA?9?$AAr?$AAu@ 000000014004e708     libucrtd:lcidtoname_downlevel.obj
 0002:0000d718       ??_C@_1M@KLMCELGA@?$AAu?$AAk?$AA?9?$AAu?$AAa@ 000000014004e718     libucrtd:lcidtoname_downlevel.obj
 0002:0000d728       ??_C@_1M@EPAJJAJF@?$AAu?$AAr?$AA?9?$AAp?$AAk@ 000000014004e728     libucrtd:lcidtoname_downlevel.obj
 0002:0000d738       ??_C@_1BG@GEGPMCDJ@?$AAu?$AAz?$AA?9?$AAu?$AAz?$AA?9?$AAc?$AAy?$AAr?$AAl@ 000000014004e738     libucrtd:lcidtoname_downlevel.obj
 0002:0000d750       ??_C@_1BG@EGGKJILM@?$AAu?$AAz?$AA?9?$AAu?$AAz?$AA?9?$AAl?$AAa?$AAt?$AAn@ 000000014004e750     libucrtd:lcidtoname_downlevel.obj
 0002:0000d768       ??_C@_1M@GFOCLFF@?$AAv?$AAi?$AA?9?$AAv?$AAn@ 000000014004e768     libucrtd:lcidtoname_downlevel.obj
 0002:0000d778       ??_C@_1M@CPAMEDFI@?$AAx?$AAh?$AA?9?$AAz?$AAa@ 000000014004e778     libucrtd:lcidtoname_downlevel.obj
 0002:0000d788       ??_C@_1O@EBKIFIGN@?$AAz?$AAh?$AA?9?$AAc?$AAh?$AAs@ 000000014004e788     libucrtd:lcidtoname_downlevel.obj
 0002:0000d798       ??_C@_1O@NMHPGANE@?$AAz?$AAh?$AA?9?$AAc?$AAh?$AAt@ 000000014004e798     libucrtd:lcidtoname_downlevel.obj
 0002:0000d7a8       ??_C@_1M@LPINJOMC@?$AAz?$AAh?$AA?9?$AAc?$AAn@ 000000014004e7a8     libucrtd:lcidtoname_downlevel.obj
 0002:0000d7b8       ??_C@_1M@OCJEJODD@?$AAz?$AAh?$AA?9?$AAh?$AAk@ 000000014004e7b8     libucrtd:lcidtoname_downlevel.obj
 0002:0000d7c8       ??_C@_1M@DNDLJINH@?$AAz?$AAh?$AA?9?$AAm?$AAo@ 000000014004e7c8     libucrtd:lcidtoname_downlevel.obj
 0002:0000d7d8       ??_C@_1M@MBFDNDND@?$AAz?$AAh?$AA?9?$AAs?$AAg@ 000000014004e7d8     libucrtd:lcidtoname_downlevel.obj
 0002:0000d7e8       ??_C@_1M@IMEPLEPE@?$AAz?$AAh?$AA?9?$AAt?$AAw@ 000000014004e7e8     libucrtd:lcidtoname_downlevel.obj
 0002:0000d7f8       ??_C@_1M@BBGHNHJP@?$AAz?$AAu?$AA?9?$AAz?$AAa@ 000000014004e7f8     libucrtd:lcidtoname_downlevel.obj
 0002:0000d810       ??_C@_1GA@DEPMKPD@?$AAm?$AAi?$AAn?$AAk?$AAe?$AAr?$AAn?$AAe?$AAl?$AA?2?$AAc?$AAr?$AAt?$AAs?$AA?2@ 000000014004e810     libucrtd:isatty.obj
 0002:0000d870       ??_C@_1BA@LEBDGIHM@?$AA_?$AAi?$AAs?$AAa?$AAt?$AAt?$AAy@ 000000014004e870     libucrtd:isatty.obj
 0002:0000d900       ??_C@_1GI@IMEEHIAK@?$AAm?$AAi?$AAn?$AAk?$AAe?$AAr?$AAn?$AAe?$AAl?$AA?2?$AAc?$AAr?$AAt?$AAs?$AA?2@ 000000014004e900     libucrtd:_fptostr.obj
 0002:0000d968       ??_C@_1DG@NMGBKPMI@?$AA_?$AA_?$AAa?$AAc?$AAr?$AAt?$AA_?$AAf?$AAp?$AA_?$AAs?$AAt?$AAr?$AAf?$AAl@ 000000014004e968     libucrtd:_fptostr.obj
 0002:0000d9a0       ??_C@_1IE@EAOKIIFP@?$AAb?$AAu?$AAf?$AAf?$AAe?$AAr?$AA_?$AAc?$AAo?$AAu?$AAn?$AAt?$AA?5?$AA?$DO?$AA?5@ 000000014004e9a0     libucrtd:_fptostr.obj
 0002:0000da28       ??_C@_1CA@EDEEBMBB@?$AAp?$AAf?$AAl?$AAt?$AA?5?$AA?$CB?$AA?$DN?$AA?5?$AAn?$AAu?$AAl?$AAl?$AAp?$AAt?$AAr@ 000000014004ea28     libucrtd:_fptostr.obj
 0002:0000da50       ?large_power_data@?1??multiply_by_power_of_ten@__crt_strtox@@YA_NAEAUbig_integer@2@I@Z@4QBIB 000000014004ea50     libucrtd:cfout.obj
 0002:0000e360       ?large_power_indices@?1??multiply_by_power_of_ten@__crt_strtox@@YA_NAEAUbig_integer@2@I@Z@4QBUunpack_index@?1??12@YA_N0I@Z@B 000000014004f360     libucrtd:cfout.obj
 0002:0000e3f8       ?small_powers_of_ten@?1??multiply_by_power_of_ten@__crt_strtox@@YA_NAEAUbig_integer@2@I@Z@4QBIB 000000014004f3f8     libucrtd:cfout.obj
 0002:0000e420       ??_C@_1DI@GICAMMFM@?$AA?$CI?$AA?$CC?$AAD?$AAi?$AAv?$AAi?$AAs?$AAi?$AAo?$AAn?$AA?5?$AAb?$AAy?$AA?5?$AAz@ 000000014004f420     libucrtd:cfout.obj
 0002:0000e460       ??_C@_1GO@BFGDDONN@?$AAm?$AAi?$AAn?$AAk?$AAe?$AAr?$AAn?$AAe?$AAl?$AA?2?$AAc?$AAr?$AAt?$AAs?$AA?2@ 000000014004f460     libucrtd:cfout.obj
 0002:0000e4d0       ??_C@_1GC@DDAKNBNC@?$AAm?$AAi?$AAn?$AAk?$AAe?$AAr?$AAn?$AAe?$AAl?$AA?2?$AAc?$AAr?$AAt?$AAs?$AA?2@ 000000014004f4d0     libucrtd:cfout.obj
 0002:0000e538       ??_C@_1BM@FAAOAKKO@?$AA_?$AA_?$AAa?$AAc?$AAr?$AAt?$AA_?$AAf?$AAl?$AAt?$AAo?$AAu?$AAt@ 000000014004f538     libucrtd:cfout.obj
 0002:0000e560       ??_C@_1EI@OACEJKEP@?$AAs?$AAt?$AAr?$AAc?$AAp?$AAy?$AA_?$AAs?$AA?$CI?$AAr?$AAe?$AAs?$AAu?$AAl?$AAt@ 000000014004f560     libucrtd:cfout.obj
 0002:0000e5a8       ??_C@_01GBGANLPD@0@        000000014004f5a8     libucrtd:cfout.obj
 0002:0000e5b0       ??_C@_1FC@KIECGFMP@?$AAs?$AAt?$AAr?$AAc?$AAp?$AAy?$AA_?$AAs?$AA?$CI?$AAr?$AAe?$AAs?$AAu?$AAl?$AAt@ 000000014004f5b0     libucrtd:cfout.obj
 0002:0000e604       ??_C@_05DNEBIAHO@1?$CDINF@ 000000014004f604     libucrtd:cfout.obj
 0002:0000e610       ??_C@_1FC@NFPJEIBD@?$AAs?$AAt?$AAr?$AAc?$AAp?$AAy?$AA_?$AAs?$AA?$CI?$AAr?$AAe?$AAs?$AAu?$AAl?$AAt@ 000000014004f610     libucrtd:cfout.obj
 0002:0000e664       ??_C@_06IMKFLFPG@1?$CDQNAN@ 000000014004f664     libucrtd:cfout.obj
 0002:0000e670       ??_C@_1FC@DEJHIMLO@?$AAs?$AAt?$AAr?$AAc?$AAp?$AAy?$AA_?$AAs?$AA?$CI?$AAr?$AAe?$AAs?$AAu?$AAl?$AAt@ 000000014004f670     libucrtd:cfout.obj
 0002:0000e6c4       ??_C@_06PGGFOGJG@1?$CDSNAN@ 000000014004f6c4     libucrtd:cfout.obj
 0002:0000e6d0       ??_C@_1FC@KMLHLFPC@?$AAs?$AAt?$AAr?$AAc?$AAp?$AAy?$AA_?$AAs?$AA?$CI?$AAr?$AAe?$AAs?$AAu?$AAl?$AAt@ 000000014004f6d0     libucrtd:cfout.obj
 0002:0000e724       ??_C@_05PHHOCPM@1?$CDIND@  000000014004f724     libucrtd:cfout.obj
 0002:0000e730       ??_C@_1DE@KHKADFOO@?$AAm?$AAa?$AAn?$AAt?$AAi?$AAs?$AAs?$AAa?$AA_?$AAb?$AAu?$AAf?$AAf?$AAe?$AAr@ 000000014004f730     libucrtd:cfout.obj
 0002:0000e770       ??_C@_1FI@LFKLOPAC@?$AA?$CI?$AA?$CC?$AAu?$AAn?$AAe?$AAx?$AAp?$AAe?$AAc?$AAt?$AAe?$AAd?$AA?5?$AAi?$AAn@ 000000014004f770     libucrtd:cfout.obj
 0002:0000e7d0       ??_C@_1FG@MLHBDPBG@?$AAq?$AAu?$AAo?$AAt?$AAi?$AAe?$AAn?$AAt?$AA?5?$AA?$DM?$AA?5?$AAd?$AAi?$AAg?$AAi@ 000000014004f7d0     libucrtd:cfout.obj
 0002:0000e830       ??_C@_1EK@OANGPA@?$AA1?$AA?5?$AA?$DM?$AA?$DN?$AA?5?$AAt?$AAr?$AAa?$AAi?$AAl?$AA_?$AAb?$AAy?$AAt?$AAe@ 000000014004f830     libucrtd:c32rtomb.obj
 0002:0000e880       ??_C@_1GI@FBFKMNDD@?$AAm?$AAi?$AAn?$AAk?$AAe?$AAr?$AAn?$AAe?$AAl?$AA?2?$AAc?$AAr?$AAt?$AAs?$AA?2@ 000000014004f880     libucrtd:c32rtomb.obj
 0002:0000e8f0       ??_C@_1EA@DDDCIHI@?$AAc?$AA3?$AA2?$AA?5?$AA?$DM?$AA?5?$AA?$CI?$AA1?$AAu?$AA?5?$AA?$DM?$AA?$DM?$AA?5?$AA?$CI?$AA7@ 000000014004f8f0     libucrtd:c32rtomb.obj
 0002:0000e930       ??_C@_1GG@MCCIENJO@?$AAm?$AAi?$AAn?$AAk?$AAe?$AAr?$AAn?$AAe?$AAl?$AA?2?$AAc?$AAr?$AAt?$AAs?$AA?2@ 000000014004f930     libucrtd:mbrtowc.obj
 0002:0000e9a0       ??_C@_1EK@MCEFBPIK@?$AAr?$AAe?$AAt?$AAv?$AAa?$AAl?$AA?5?$AA?$CB?$AA?$DN?$AA?5?$AA_?$AA_?$AAc?$AAr?$AAt@ 000000014004f9a0     libucrtd:mbrtowc.obj
 0002:0000e9f0       ??_C@_1GE@GPOPIOIG@?$AAm?$AAi?$AAn?$AAk?$AAe?$AAr?$AAn?$AAe?$AAl?$AA?2?$AAc?$AAr?$AAt?$AAs?$AA?2@ 000000014004f9f0     libucrtd:_freebuf.obj
 0002:0000ea80       ??_C@_1BK@FPAMLIDG@?$AAs?$AA?5?$AA?$CB?$AA?$DN?$AA?5?$AAn?$AAu?$AAl?$AAl?$AAp?$AAt?$AAr@ 000000014004fa80     libucrtd:mbstowcs.obj
 0002:0000eaa0       ??_C@_1GI@KABMHNPH@?$AAm?$AAi?$AAn?$AAk?$AAe?$AAr?$AAn?$AAe?$AAl?$AA?2?$AAc?$AAr?$AAt?$AAs?$AA?2@ 000000014004faa0     libucrtd:mbstowcs.obj
 0002:0000eb08       ??_C@_1CG@JEHFHLNG@?$AA_?$AAm?$AAb?$AAs?$AAt?$AAo?$AAw?$AAc?$AAs?$AA_?$AAl?$AA_?$AAh?$AAe?$AAl@ 000000014004fb08     libucrtd:mbstowcs.obj
 0002:0000eb30       ??_C@_1JM@MEKBACIG@?$AA?$CI?$AAp?$AAw?$AAc?$AAs?$AA?5?$AA?$DN?$AA?$DN?$AA?5?$AAn?$AAu?$AAl?$AAl?$AAp?$AAt@ 000000014004fb30     libucrtd:mbstowcs.obj
 0002:0000ebd0       ??_C@_1CG@BILJJDPK@?$AA_?$AAm?$AAb?$AAs?$AAt?$AAo?$AAw?$AAc?$AAs?$AA_?$AAi?$AAn?$AAt?$AAe?$AAr@ 000000014004fbd0     libucrtd:mbstowcs.obj
 0002:0000ebf8       ??_C@_1CM@LLECFMFH@?$AAb?$AAu?$AAf?$AAf?$AAe?$AAr?$AAS?$AAi?$AAz?$AAe?$AA?5?$AA?$DM?$AA?$DN?$AA?5?$AAI@ 000000014004fbf8     libucrtd:mbstowcs.obj
 0002:0000ec28       ??_C@_1CO@JNPEPJAL@?$AAr?$AAe?$AAt?$AAs?$AAi?$AAz?$AAe?$AA?5?$AA?$DM?$AA?$DN?$AA?5?$AAs?$AAi?$AAz?$AAe@ 000000014004fc28     libucrtd:mbstowcs.obj
 0002:0000ec58       ??_C@_1CA@NOKNKDIG@?$AAp?$AAw?$AAc?$AAs?$AA?5?$AA?$CB?$AA?$DN?$AA?5?$AAn?$AAu?$AAl?$AAl?$AAp?$AAt?$AAr@ 000000014004fc58     libucrtd:wcstombs.obj
 0002:0000ec80       ??_C@_1GI@EEJDEALP@?$AAm?$AAi?$AAn?$AAk?$AAe?$AAr?$AAn?$AAe?$AAl?$AA?2?$AAc?$AAr?$AAt?$AAs?$AA?2@ 000000014004fc80     libucrtd:wcstombs.obj
 0002:0000ece8       ??_C@_1CG@LLJCAOHF@?$AA_?$AAw?$AAc?$AAs?$AAt?$AAo?$AAm?$AAb?$AAs?$AA_?$AAl?$AA_?$AAh?$AAe?$AAl@ 000000014004fce8     libucrtd:wcstombs.obj
 0002:0000ed10       ??_C@_1JI@DFNKFCLG@?$AA?$CI?$AAd?$AAs?$AAt?$AA?5?$AA?$CB?$AA?$DN?$AA?5?$AAn?$AAu?$AAl?$AAl?$AAp?$AAt?$AAr@ 000000014004fd10     libucrtd:wcstombs.obj
 0002:0000eda8       ??_C@_1CG@DHFOOGFJ@?$AA_?$AAw?$AAc?$AAs?$AAt?$AAo?$AAm?$AAb?$AAs?$AA_?$AAi?$AAn?$AAt?$AAe?$AAr@ 000000014004fda8     libucrtd:wcstombs.obj
 0002:0000edd0       ??_C@_1CM@KEOGBFLI@?$AAs?$AAi?$AAz?$AAe?$AAI?$AAn?$AAB?$AAy?$AAt?$AAe?$AAs?$AA?5?$AA?$DO?$AA?5?$AAr@ 000000014004fdd0     libucrtd:wcstombs.obj
 0002:0000ee30       ??_C@_1GA@MPOOLHCO@?$AAm?$AAi?$AAn?$AAk?$AAe?$AAr?$AAn?$AAe?$AAl?$AA?2?$AAc?$AAr?$AAt?$AAs?$AA?2@ 000000014004fe30     libucrtd:commit.obj
 0002:0000ee90       ??_C@_1BA@FLNMBBIM@?$AA_?$AAc?$AAo?$AAm?$AAm?$AAi?$AAt@ 000000014004fe90     libucrtd:commit.obj
 0002:0000eed0       ??_C@_1FO@CAMPMGCN@?$AAm?$AAi?$AAn?$AAk?$AAe?$AAr?$AAn?$AAe?$AAl?$AA?2?$AAc?$AAr?$AAt?$AAs?$AA?2@ 000000014004fed0     libucrtd:write.obj
 0002:0000ef30       ??_C@_1CA@PNHCPGNO@?$AA_?$AAw?$AAr?$AAi?$AAt?$AAe?$AA_?$AAi?$AAn?$AAt?$AAe?$AAr?$AAn?$AAa?$AAl@ 000000014004ff30     libucrtd:write.obj
 0002:0000ef50       ??_C@_1CK@MMEFCHHN@?$AA?$CB?$AA_?$AAd?$AAb?$AAc?$AAs?$AAB?$AAu?$AAf?$AAf?$AAe?$AAr?$AAU?$AAs?$AAe@ 000000014004ff50     libucrtd:write.obj
 0002:0000ef80       ??_C@_1EG@LICJGLJJ@?$AA1?$AA?5?$AA?$DM?$AA?5?$AAm?$AAb?$AA_?$AAl?$AAe?$AAn?$AA?5?$AA?$CG?$AA?$CG?$AA?5?$AAm@ 000000014004ff80     libucrtd:write.obj
 0002:0000efd0       ??_C@_1FC@NFILPJB@?$AAm?$AAb?$AA_?$AAb?$AAu?$AAf?$AA_?$AAu?$AAs?$AAe?$AAd?$AA?5?$AA?$CL?$AA?5?$AAb@ 000000014004ffd0     libucrtd:write.obj
 0002:0000f030       ??_C@_1FC@HEJOPHLA@?$AAa?$AAv?$AAa?$AAi?$AAl?$AAa?$AAb?$AAl?$AAe?$AA_?$AAb?$AAy?$AAt?$AAe?$AAs@ 0000000140050030     libucrtd:write.obj
 0002:0000f090       ??_C@_1GG@JOGHJGBM@?$AA_?$AAi?$AAs?$AAl?$AAe?$AAa?$AAd?$AAb?$AAy?$AAt?$AAe?$AA_?$AAf?$AAa?$AAs@ 0000000140050090     libucrtd:write.obj
 0002:0000f0f8       ??_C@_1BM@NCANHCIP@?$AA_?$AAw?$AAr?$AAi?$AAt?$AAe?$AA_?$AAn?$AAo?$AAl?$AAo?$AAc?$AAk@ 00000001400500f8     libucrtd:write.obj
 0002:0000f118       ??_C@_1CK@CPEAGIIP@?$AAb?$AAu?$AAf?$AAf?$AAe?$AAr?$AA_?$AAs?$AAi?$AAz?$AAe?$AA?5?$AA?$CF?$AA?5?$AA2@ 0000000140050118     libucrtd:write.obj
 0002:0000f3a0       __real@3ff0000000000000    00000001400503a0     libucrtd:ceil.obj
 0002:0000f3a8       ??_C@_1DG@JNDMIEJL@?$AA?$CI?$AA?$CC?$AAI?$AAn?$AAv?$AAa?$AAl?$AAi?$AAd?$AA?5?$AAi?$AAn?$AAp?$AAu?$AAt@ 00000001400503a8     libucrtd:contrlfp.obj
 0002:0000f3e0       ??_C@_1FO@HHLKCIKB@?$AAm?$AAi?$AAn?$AAk?$AAe?$AAr?$AAn?$AAe?$AAl?$AA?2?$AAc?$AAr?$AAt?$AAs?$AA?2@ 00000001400503e0     libucrtd:contrlfp.obj
 0002:0000f440       ??_C@_1BK@CDOALEA@?$AA_?$AAc?$AAo?$AAn?$AAt?$AAr?$AAo?$AAl?$AAf?$AAp?$AA_?$AAs@ 0000000140050440     libucrtd:contrlfp.obj
 0002:0000f460       ??_C@_1GA@DKNOMDCL@?$AAm?$AAi?$AAn?$AAk?$AAe?$AAr?$AAn?$AAe?$AAl?$AA?2?$AAc?$AAr?$AAt?$AAs?$AA?2@ 0000000140050460     libucrtd:fclose.obj
 0002:0000f4c0       ??_C@_1DA@IHIKPHIN@?$AA_?$AAf?$AAc?$AAl?$AAo?$AAs?$AAe?$AA_?$AAn?$AAo?$AAl?$AAo?$AAc?$AAk?$AA_@ 00000001400504c0     libucrtd:fclose.obj
 0002:0000f4f0       ??_C@_1CC@LPELGHFC@?$AA_?$AAf?$AAc?$AAl?$AAo?$AAs?$AAe?$AA_?$AAi?$AAn?$AAt?$AAe?$AAr?$AAn?$AAa@ 00000001400504f0     libucrtd:fclose.obj
 0002:0000f520       ??_C@_1FO@KIIHJNFN@?$AAm?$AAi?$AAn?$AAk?$AAe?$AAr?$AAn?$AAe?$AAl?$AA?2?$AAc?$AAr?$AAt?$AAs?$AA?2@ 0000000140050520     libucrtd:lseek.obj
 0002:0000f580       ??_C@_1DM@LMLOLGJ@?$AA?$CI?$AA?$CC?$AAI?$AAn?$AAv?$AAa?$AAl?$AAi?$AAd?$AA?5?$AAf?$AAi?$AAl?$AAe?$AA?5@ 0000000140050580     libucrtd:lseek.obj
 0002:0000f5c0       __log10_256_lead           00000001400505c0     libucrtd:log10_256_lead_tail_table.obj
 0002:0000fdd0       __log10_256_tail           0000000140050dd0     libucrtd:log10_256_lead_tail_table.obj
 0002:000105e0       __log_F_inv_qword          00000001400515e0     libucrtd:log_f_inv_qword_table.obj
 0002:00010df0       ??_C@_05HGHHAHAP@log10@    0000000140051df0     libucrtd:log_special.obj
 0002:00010e00       ??_C@_1EK@PDBKILLM@?$AA?$CI?$AAm?$AAa?$AAs?$AAk?$AA?$CG?$AA?$HO?$AA?$CI?$AA_?$AAM?$AAC?$AAW?$AA_?$AAD?$AAN@ 0000000140051e00     libucrtd:ieee.obj
 0002:00010e50       ??_C@_1GC@IEFABLII@?$AAm?$AAi?$AAn?$AAk?$AAe?$AAr?$AAn?$AAe?$AAl?$AA?2?$AAc?$AAr?$AAt?$AAs?$AA?2@ 0000000140051e50     libucrtd:ieee.obj
 0002:00010ee0       ??_C@_1FO@IPDGALOE@?$AAm?$AAi?$AAn?$AAk?$AAe?$AAr?$AAn?$AAe?$AAl?$AA?2?$AAc?$AAr?$AAt?$AAs?$AA?2@ 0000000140051ee0     libucrtd:close.obj
 0002:00010f40       ??_C@_1CA@GBJHJLEM@?$AA_?$AAc?$AAl?$AAo?$AAs?$AAe?$AA_?$AAi?$AAn?$AAt?$AAe?$AAr?$AAn?$AAa?$AAl@ 0000000140051f40     libucrtd:close.obj
 0002:00010f88       ??_C@_1BA@BALFACEM@?$AAC?$AAO?$AAN?$AAO?$AAU?$AAT?$AA$@ 0000000140051f88     libucrtd:initcon.obj
 0002:00010fb8       ??_7type_info@@6B@         0000000140051fb8     LIBCMTD:std_type_info_static.obj
 0002:00010fc0       __xmm@00000000000000000000000000000000 0000000140051fc0     libvcruntimed:strchr.obj
 0002:00010fd0       _load_config_used          0000000140051fd0     LIBCMTD:loadcfg.obj
 0002:00011300       ??_R4exception@std@@6B@    0000000140052300     libvcruntimed:frame.obj
 0002:00011328       ??_R3exception@std@@8      0000000140052328     libvcruntimed:frame.obj
 0002:00011340       ??_R2exception@std@@8      0000000140052340     libvcruntimed:frame.obj
 0002:00011350       ??_R1A@?0A@EA@exception@std@@8 0000000140052350     libvcruntimed:frame.obj
 0002:00011378       ??_R4bad_exception@std@@6B@ 0000000140052378     libvcruntimed:frame.obj
 0002:000113a0       ??_R3bad_exception@std@@8  00000001400523a0     libvcruntimed:frame.obj
 0002:000113b8       ??_R2bad_exception@std@@8  00000001400523b8     libvcruntimed:frame.obj
 0002:000113d0       ??_R1A@?0A@EA@bad_exception@std@@8 00000001400523d0     libvcruntimed:frame.obj
 0002:000113f8       ??_R4type_info@@6B@        00000001400523f8     LIBCMTD:std_type_info_static.obj
 0002:00011420       ??_R3type_info@@8          0000000140052420     LIBCMTD:std_type_info_static.obj
 0002:00011438       ??_R2type_info@@8          0000000140052438     LIBCMTD:std_type_info_static.obj
 0002:00011448       ??_R1A@?0A@EA@type_info@@8 0000000140052448     LIBCMTD:std_type_info_static.obj
 0002:0001146c       __volatile_metadata        000000014005246c     <linker-defined>
 0002:000118e8       __rtc_iaa                  00000001400528e8     LIBCMTD:initsect.obj
 0002:000118f0       __rtc_izz                  00000001400528f0     LIBCMTD:initsect.obj
 0002:000118f8       __rtc_taa                  00000001400528f8     LIBCMTD:initsect.obj
 0002:00011900       __rtc_tzz                  0000000140052900     LIBCMTD:initsect.obj
 0002:00012bf0       _TI2?AVbad_exception@std@@ 0000000140053bf0     libvcruntimed:frame.obj
 0002:00012c10       _CTA2?AVbad_exception@std@@ 0000000140053c10     libvcruntimed:frame.obj
 0002:00012c28       _CT??_R0?AVbad_exception@std@@@8??0bad_exception@std@@QEAA@AEBV01@@Z24 0000000140053c28     libvcruntimed:frame.obj
 0002:00012c50       _CT??_R0?AVexception@std@@@8??0exception@std@@QEAA@AEBV01@@Z24 0000000140053c50     libvcruntimed:frame.obj
 0002:00012c74       __IMPORT_DESCRIPTOR_USER32 0000000140053c74     user32:USER32.dll
 0002:00012c88       __IMPORT_DESCRIPTOR_GDI32  0000000140053c88     Gdi32:GDI32.dll
 0002:00012c9c       __IMPORT_DESCRIPTOR_WINMM  0000000140053c9c     winmm:WINMM.dll
 0002:00012cb0       __IMPORT_DESCRIPTOR_KERNEL32 0000000140053cb0     kernel32:KERNEL32.dll
 0002:00012cc4       __NULL_IMPORT_DESCRIPTOR   0000000140053cc4     user32:USER32.dll
 0003:00000040       __security_cookie          0000000140055040     LIBCMTD:gs_cookie.obj
 0003:00000080       __security_cookie_complement 0000000140055080     LIBCMTD:gs_cookie.obj
 0003:00000088       _fltused                   0000000140055088     LIBCMTD:fltused.obj
 0003:0000008c       __scrt_native_dllmain_reason 000000014005508c     LIBCMTD:utility.obj
 0003:00000090       __scrt_default_matherr     0000000140055090     LIBCMTD:matherr.obj
 0003:00000098       __isa_inverted             0000000140055098     LIBCMTD:cpu_disp.obj
 0003:000000a0       __isa_available            00000001400550a0     LIBCMTD:cpu_disp.obj
 0003:000000a4       __isa_enabled              00000001400550a4     LIBCMTD:cpu_disp.obj
 0003:000000a8       __memset_fast_string_threshold 00000001400550a8     LIBCMTD:cpu_disp.obj
 0003:000000b0       __memset_nt_threshold      00000001400550b0     LIBCMTD:cpu_disp.obj
 0003:000000d4       _crtDbgFlag                00000001400550d4     libucrtd:debug_heap.obj
 0003:000000d8       _crtBreakAlloc             00000001400550d8     libucrtd:debug_heap.obj
 0003:000000e0       __abort_behavior           00000001400550e0     libucrtd:abort.obj
 0003:00000100       __acrt_initial_multibyte_data 0000000140055100     libucrtd:mbctype.obj
 0003:00000640       __acrt_initial_locale_data 0000000140055640     libucrtd:nlsdata.obj
 0003:00000798       __acrt_initial_locale_pointers 0000000140055798     libucrtd:nlsdata.obj
 0003:000007a8       __acrt_wide_c_locale_string 00000001400557a8     libucrtd:nlsdata.obj
 0003:000007b0       __acrt_lconv_c             00000001400557b0     libucrtd:localeconv.obj
 0003:00000848       __acrt_lconv_static_decimal 0000000140055848     libucrtd:localeconv.obj
 0003:0000084c       __acrt_lconv_static_W_decimal 000000014005584c     libucrtd:localeconv.obj
 0003:00000850       __globallocalestatus       0000000140055850     libucrtd:glstatus.obj
 0003:00000858       _pfnAllocHook              0000000140055858     libucrtd:debug_heap_hook.obj
 0003:00000870       _iob                       0000000140055870     libucrtd:_file.obj
 0003:00000978       _crtAssertBusy             0000000140055978     libucrtd:dbgrptt.obj
 0003:00000980       _CrtDbgMode                0000000140055980     libucrtd:dbgrptt.obj
 0003:00000990       _CrtDbgFile                0000000140055990     libucrtd:dbgrptt.obj
 0003:000009b0       _lookuptrailbytes          00000001400559b0     libucrtd:read.obj
 0003:00000ad0       ??_R0?AVbad_exception@std@@@8 0000000140055ad0     libvcruntimed:frame.obj
 0003:00000af8       ??_R0?AVexception@std@@@8  0000000140055af8     libvcruntimed:frame.obj
 0003:00000b20       ??_R0?AVtype_info@@@8      0000000140055b20     LIBCMTD:std_type_info_static.obj
 0003:00001110       __scrt_current_native_startup_state 0000000140056110     LIBCMTD:utility.obj
 0003:00001118       __scrt_native_startup_lock 0000000140056118     LIBCMTD:utility.obj
 0003:00001160       ?__type_info_root_node@@3U__type_info_node@@A 0000000140056160     LIBCMTD:tncleanup.obj
 0003:00001170       ?_OptionsStorage@?1??__local_stdio_printf_options@@9@4_KA 0000000140056170     LIBCMTD:default_local_stdio_options.obj
 0003:00001178       ?_OptionsStorage@?1??__local_stdio_scanf_options@@9@4_KA 0000000140056178     LIBCMTD:default_local_stdio_options.obj
 0003:00001180       __scrt_debugger_hook_flag  0000000140056180     LIBCMTD:utility_desktop.obj
 0003:00001184       __avx10_version            0000000140056184     LIBCMTD:cpu_disp.obj
 0003:00001188       __favor                    0000000140056188     LIBCMTD:cpu_disp.obj
 0003:00001190       ?__WinRTOutOfMemoryExceptionCallback@@3P6APEAXXZEA 0000000140056190     libvcruntimed:ehhelpers.obj
 0003:00001250       ?pArgList@UnDecorator@@0PEAVReplicator@@EA 0000000140056250     libvcruntimed:undname.obj
 0003:00001258       ?pZNameList@UnDecorator@@0PEAVReplicator@@EA 0000000140056258     libvcruntimed:undname.obj
 0003:00001260       ?pTemplateArgList@UnDecorator@@0PEAVReplicator@@EA 0000000140056260     libvcruntimed:undname.obj
 0003:00001268       ?gName@UnDecorator@@0PEBDEB 0000000140056268     libvcruntimed:undname.obj
 0003:00001270       ?name@UnDecorator@@0PEBDEB 0000000140056270     libvcruntimed:undname.obj
 0003:00001278       ?disableFlags@UnDecorator@@0KA 0000000140056278     libvcruntimed:undname.obj
 0003:0000127c       ?fExplicitTemplateParams@UnDecorator@@0_NA 000000014005627c     libvcruntimed:undname.obj
 0003:0000127d       ?fGetTemplateArgumentList@UnDecorator@@0_NA 000000014005627d     libvcruntimed:undname.obj
 0003:00001280       ?m_pGetParameter@UnDecorator@@0P6APEADJ@ZEA 0000000140056280     libvcruntimed:undname.obj
 0003:00001288       ?m_CHPENameOffset@UnDecorator@@0KA 0000000140056288     libvcruntimed:undname.obj
 0003:0000128c       ?m_recursionLevel@UnDecorator@@0KA 000000014005628c     libvcruntimed:undname.obj
 0003:000012f8       __pPurecall                00000001400562f8     libvcruntimed:purevirt_data.obj
 0003:00001a48       _environ_table             0000000140056a48     libucrtd:environment_initialization.obj
 0003:00001a50       _wenviron_table            0000000140056a50     libucrtd:environment_initialization.obj
 0003:00001a58       __dcrt_initial_wide_environment 0000000140056a58     libucrtd:environment_initialization.obj
 0003:00001a60       __dcrt_initial_narrow_environment 0000000140056a60     libucrtd:environment_initialization.obj
 0003:00001a7c       __acrt_locale_changed_data 0000000140056a7c     libucrtd:wsetlocale.obj
 0003:00001a84       _commode                   0000000140056a84     libucrtd:ncommode.obj
 0003:00001a88       __acrt_atexit_table        0000000140056a88     libucrtd:onexit.obj
 0003:00001aa0       __acrt_at_quick_exit_table 0000000140056aa0     libucrtd:onexit.obj
 0003:00001ae8       _pfnDumpClient             0000000140056ae8     libucrtd:debug_heap.obj
 0003:00001b08       _mbctype                   0000000140056b08     libucrtd:mbctype.obj
 0003:00001b10       _mbcasemap                 0000000140056b10     libucrtd:mbctype.obj
 0003:00001b18       __acrt_current_multibyte_data 0000000140056b18     libucrtd:mbctype.obj
 0003:00001b28       _pgmptr                    0000000140056b28     libucrtd:argv_data.obj
 0003:00001b30       __argc                     0000000140056b30     libucrtd:argv_data.obj
 0003:00001b38       __argv                     0000000140056b38     libucrtd:argv_data.obj
 0003:00001b40       __wargv                    0000000140056b40     libucrtd:argv_data.obj
 0003:00001b48       _acmdln                    0000000140056b48     libucrtd:argv_data.obj
 0003:00001b50       _wcmdln                    0000000140056b50     libucrtd:argv_data.obj
 0003:00001d9c       _fmode                     0000000140056d9c     libucrtd:txtmode.obj
 0003:00001da0       __pioinfo                  0000000140056da0     libucrtd:ioinit.obj
 0003:000021a0       _nhandle                   00000001400571a0     libucrtd:ioinit.obj
 0003:000021a8       __acrt_current_locale_data 00000001400571a8     libucrtd:nlsdata.obj
 0003:00002358       __acrt_lconv_static_null   0000000140057358     libucrtd:localeconv.obj
 0003:0000235c       __acrt_lconv_static_W_null 000000014005735c     libucrtd:localeconv.obj
 0003:00002360       __acrt_heap                0000000140057360     libucrtd:heap_handle.obj
 0003:00002390       __acrt_stdout_buffer       0000000140057390     libucrtd:_sftbuf.obj
 0003:00002398       __acrt_stderr_buffer       0000000140057398     libucrtd:_sftbuf.obj
 0003:000023a8       _nstream                   00000001400573a8     libucrtd:_file.obj
 0003:000023b0       __piob                     00000001400573b0     libucrtd:_file.obj
 0003:000023c0       _pfnReportHook             00000001400573c0     libucrtd:dbgrptt.obj
 0003:000023c8       _pReportHookList           00000001400573c8     libucrtd:dbgrptt.obj
 0003:000023d0       _pReportHookListW          00000001400573d0     libucrtd:dbgrptt.obj
 0003:000023e0       __fma3_is_available        00000001400573e0     libucrtd:fma3_available.obj
 0003:000023e4       __use_fma3_lib             00000001400573e4     libucrtd:fma3_available.obj
 0003:000023f0       __scrt_ucrt_dll_is_in_use  00000001400573f0     <common>
 0003:000023f8       __dyn_tls_dtor_callback    00000001400573f8     <common>
 0003:00002400       __dyn_tls_init_callback    0000000140057400     <common>

 entry point at        0001:000038c0

 Static symbols

 0000:fffa3000       .debug$S                   0000000140000000     Gdi32:GDI32.dll
 0000:fffa3000       .debug$S                   0000000140000000     Gdi32:GDI32.dll
 0000:fffa3000       .debug$S                   0000000140000000     kernel32:KERNEL32.dll
 0000:fffa3000       .debug$S                   0000000140000000     kernel32:KERNEL32.dll
 0000:fffa3000       .debug$S                   0000000140000000     kernel32:KERNEL32.dll
 0000:fffa3000       .debug$S                   0000000140000000     kernel32:KERNEL32.dll
 0000:fffa3000       .debug$S                   0000000140000000     kernel32:KERNEL32.dll
 0000:fffa3000       .debug$S                   0000000140000000     kernel32:KERNEL32.dll
 0000:fffa3000       .debug$S                   0000000140000000     kernel32:KERNEL32.dll
 0000:fffa3000       .debug$S                   0000000140000000     kernel32:KERNEL32.dll
 0000:fffa3000       .debug$S                   0000000140000000     kernel32:KERNEL32.dll
 0000:fffa3000       .debug$S                   0000000140000000     kernel32:KERNEL32.dll
 0000:fffa3000       .debug$S                   0000000140000000     kernel32:KERNEL32.dll
 0000:fffa3000       .debug$S                   0000000140000000     kernel32:KERNEL32.dll
 0000:fffa3000       .debug$S                   0000000140000000     kernel32:KERNEL32.dll
 0000:fffa3000       .debug$S                   0000000140000000     kernel32:KERNEL32.dll
 0000:fffa3000       .debug$S                   0000000140000000     kernel32:KERNEL32.dll
 0000:fffa3000       .debug$S                   0000000140000000     kernel32:KERNEL32.dll
 0000:fffa3000       .debug$S                   0000000140000000     kernel32:KERNEL32.dll
 0000:fffa3000       .debug$S                   0000000140000000     kernel32:KERNEL32.dll
 0000:fffa3000       .debug$S                   0000000140000000     kernel32:KERNEL32.dll
 0000:fffa3000       .debug$S                   0000000140000000     kernel32:KERNEL32.dll
 0000:fffa3000       .debug$S                   0000000140000000     kernel32:KERNEL32.dll
 0000:fffa3000       .debug$S                   0000000140000000     kernel32:KERNEL32.dll
 0000:fffa3000       .debug$S                   0000000140000000     kernel32:KERNEL32.dll
 0000:fffa3000       .debug$S                   0000000140000000     kernel32:KERNEL32.dll
 0000:fffa3000       .debug$S                   0000000140000000     kernel32:KERNEL32.dll
 0000:fffa3000       .debug$S                   0000000140000000     kernel32:KERNEL32.dll
 0000:fffa3000       .debug$S                   0000000140000000     kernel32:KERNEL32.dll
 0000:fffa3000       .debug$S                   0000000140000000     kernel32:KERNEL32.dll
 0000:fffa3000       .debug$S                   0000000140000000     kernel32:KERNEL32.dll
 0000:fffa3000       .debug$S                   0000000140000000     kernel32:KERNEL32.dll
 0000:fffa3000       .debug$S                   0000000140000000     kernel32:KERNEL32.dll
 0000:fffa3000       .debug$S                   0000000140000000     kernel32:KERNEL32.dll
 0000:fffa3000       .debug$S                   0000000140000000     kernel32:KERNEL32.dll
 0000:fffa3000       .debug$S                   0000000140000000     kernel32:KERNEL32.dll
 0000:fffa3000       .debug$S                   0000000140000000     kernel32:KERNEL32.dll
 0000:fffa3000       .debug$S                   0000000140000000     kernel32:KERNEL32.dll
 0000:fffa3000       .debug$S                   0000000140000000     kernel32:KERNEL32.dll
 0000:fffa3000       .debug$S                   0000000140000000     kernel32:KERNEL32.dll
 0000:fffa3000       .debug$S                   0000000140000000     kernel32:KERNEL32.dll
 0000:fffa3000       .debug$S                   0000000140000000     kernel32:KERNEL32.dll
 0000:fffa3000       .debug$S                   0000000140000000     kernel32:KERNEL32.dll
 0000:fffa3000       .debug$S                   0000000140000000     kernel32:KERNEL32.dll
 0000:fffa3000       .debug$S                   0000000140000000     kernel32:KERNEL32.dll
 0000:fffa3000       .debug$S                   0000000140000000     kernel32:KERNEL32.dll
 0000:fffa3000       .debug$S                   0000000140000000     kernel32:KERNEL32.dll
 0000:fffa3000       .debug$S                   0000000140000000     kernel32:KERNEL32.dll
 0000:fffa3000       .debug$S                   0000000140000000     kernel32:KERNEL32.dll
 0000:fffa3000       .debug$S                   0000000140000000     kernel32:KERNEL32.dll
 0000:fffa3000       .debug$S                   0000000140000000     kernel32:KERNEL32.dll
 0000:fffa3000       .debug$S                   0000000140000000     kernel32:KERNEL32.dll
 0000:fffa3000       .debug$S                   0000000140000000     kernel32:KERNEL32.dll
 0000:fffa3000       .debug$S                   0000000140000000     kernel32:KERNEL32.dll
 0000:fffa3000       .debug$S                   0000000140000000     kernel32:KERNEL32.dll
 0000:fffa3000       .debug$S                   0000000140000000     kernel32:KERNEL32.dll
 0000:fffa3000       .debug$S                   0000000140000000     kernel32:KERNEL32.dll
 0000:fffa3000       .debug$S                   0000000140000000     kernel32:KERNEL32.dll
 0000:fffa3000       .debug$S                   0000000140000000     kernel32:KERNEL32.dll
 0000:fffa3000       .debug$S                   0000000140000000     kernel32:KERNEL32.dll
 0000:fffa3000       .debug$S                   0000000140000000     kernel32:KERNEL32.dll
 0000:fffa3000       .debug$S                   0000000140000000     kernel32:KERNEL32.dll
 0000:fffa3000       .debug$S                   0000000140000000     kernel32:KERNEL32.dll
 0000:fffa3000       .debug$S                   0000000140000000     kernel32:KERNEL32.dll
 0000:fffa3000       .debug$S                   0000000140000000     kernel32:KERNEL32.dll
 0000:fffa3000       .debug$S                   0000000140000000     kernel32:KERNEL32.dll
 0000:fffa3000       .debug$S                   0000000140000000     kernel32:KERNEL32.dll
 0000:fffa3000       .debug$S                   0000000140000000     kernel32:KERNEL32.dll
 0000:fffa3000       .debug$S                   0000000140000000     kernel32:KERNEL32.dll
 0000:fffa3000       .debug$S                   0000000140000000     kernel32:KERNEL32.dll
 0000:fffa3000       .debug$S                   0000000140000000     kernel32:KERNEL32.dll
 0000:fffa3000       .debug$S                   0000000140000000     kernel32:KERNEL32.dll
 0000:fffa3000       .debug$S                   0000000140000000     kernel32:KERNEL32.dll
 0000:fffa3000       .debug$S                   0000000140000000     kernel32:KERNEL32.dll
 0000:fffa3000       .debug$S                   0000000140000000     kernel32:KERNEL32.dll
 0000:fffa3000       .debug$S                   0000000140000000     kernel32:KERNEL32.dll
 0000:fffa3000       .debug$S                   0000000140000000     kernel32:KERNEL32.dll
 0000:fffa3000       .debug$S                   0000000140000000     kernel32:KERNEL32.dll
 0000:fffa3000       .debug$S                   0000000140000000     kernel32:KERNEL32.dll
 0000:fffa3000       .debug$S                   0000000140000000     kernel32:KERNEL32.dll
 0000:fffa3000       .debug$S                   0000000140000000     kernel32:KERNEL32.dll
 0000:fffa3000       .debug$S                   0000000140000000     kernel32:KERNEL32.dll
 0000:fffa3000       .debug$S                   0000000140000000     kernel32:KERNEL32.dll
 0000:fffa3000       .debug$S                   0000000140000000     kernel32:KERNEL32.dll
 0000:fffa3000       .debug$S                   0000000140000000     kernel32:KERNEL32.dll
 0000:fffa3000       .debug$S                   0000000140000000     kernel32:KERNEL32.dll
 0000:fffa3000       .debug$S                   0000000140000000     kernel32:KERNEL32.dll
 0000:fffa3000       .debug$S                   0000000140000000     kernel32:KERNEL32.dll
 0000:fffa3000       .debug$S                   0000000140000000     kernel32:KERNEL32.dll
 0000:fffa3000       .debug$S                   0000000140000000     kernel32:KERNEL32.dll
 0000:fffa3000       .debug$S                   0000000140000000     kernel32:KERNEL32.dll
 0000:fffa3000       .debug$S                   0000000140000000     kernel32:KERNEL32.dll
 0000:fffa3000       .debug$S                   0000000140000000     kernel32:KERNEL32.dll
 0000:fffa3000       .debug$S                   0000000140000000     kernel32:KERNEL32.dll
 0000:fffa3000       .debug$S                   0000000140000000     kernel32:KERNEL32.dll
 0000:fffa3000       .debug$S                   0000000140000000     kernel32:KERNEL32.dll
 0000:fffa3000       .debug$S                   0000000140000000     kernel32:KERNEL32.dll
 0000:fffa3000       .debug$S                   0000000140000000     kernel32:KERNEL32.dll
 0000:fffa3000       .debug$S                   0000000140000000     kernel32:KERNEL32.dll
 0000:fffa3000       .debug$S                   0000000140000000     kernel32:KERNEL32.dll
 0000:fffa3000       .debug$S                   0000000140000000     kernel32:KERNEL32.dll
 0000:fffa3000       .debug$S                   0000000140000000     kernel32:KERNEL32.dll
 0000:fffa3000       .debug$S                   0000000140000000     kernel32:KERNEL32.dll
 0000:fffa3000       .debug$S                   0000000140000000     kernel32:KERNEL32.dll
 0000:fffa3000       .debug$S                   0000000140000000     kernel32:KERNEL32.dll
 0000:fffa3000       .debug$S                   0000000140000000     kernel32:KERNEL32.dll
 0000:fffa3000       .debug$S                   0000000140000000     kernel32:KERNEL32.dll
 0000:fffa3000       .debug$S                   0000000140000000     user32:USER32.dll
 0000:fffa3000       .debug$S                   0000000140000000     user32:USER32.dll
 0000:fffa3000       .debug$S                   0000000140000000     user32:USER32.dll
 0000:fffa3000       .debug$S                   0000000140000000     user32:USER32.dll
 0000:fffa3000       .debug$S                   0000000140000000     user32:USER32.dll
 0000:fffa3000       .debug$S                   0000000140000000     user32:USER32.dll
 0000:fffa3000       .debug$S                   0000000140000000     user32:USER32.dll
 0000:fffa3000       .debug$S                   0000000140000000     user32:USER32.dll
 0000:fffa3000       .debug$S                   0000000140000000     user32:USER32.dll
 0000:fffa3000       .debug$S                   0000000140000000     user32:USER32.dll
 0000:fffa3000       .debug$S                   0000000140000000     user32:USER32.dll
 0000:fffa3000       .debug$S                   0000000140000000     user32:USER32.dll
 0000:fffa3000       .debug$S                   0000000140000000     user32:USER32.dll
 0000:fffa3000       .debug$S                   0000000140000000     user32:USER32.dll
 0000:fffa3000       .debug$S                   0000000140000000     user32:USER32.dll
 0000:fffa3000       .debug$S                   0000000140000000     winmm:WINMM.dll
 0001:00001820       ?CatStrings@@YAX_KPEAD0101@Z 0000000140002820 f   win32_handmade.obj
 0001:000018f0       ?Win32GetEXEFileName@@YAXPEAUwin32_state@@@Z 00000001400028f0 f   win32_handmade.obj
 0001:00001990       ?StringLength@@YAHPEAD@Z   0000000140002990 f   win32_handmade.obj
 0001:000019e0       ?Win32BuildEXEPathFileName@@YAXPEAUwin32_state@@PEADH1@Z 00000001400029e0 f   win32_handmade.obj
 0001:00001ce0       ?Win32LoadGameCode@@YA?AUwin32_game_code@@PEAD0@Z 0000000140002ce0 f   win32_handmade.obj
 0001:00001e00       ?Win32UnloadGameCode@@YAXPEAUwin32_game_code@@@Z 0000000140002e00 f   win32_handmade.obj
 0001:00001e60       ?Win32LoadXInput@@YAXXZ    0000000140002e60 f   win32_handmade.obj
 0001:00001ef0       ?Win32InitDSound@@YAXPEAUHWND__@@HH@Z 0000000140002ef0 f   win32_handmade.obj
 0001:00002170       ?Win32ResizeDIBSection@@YAXPEAUwin32_offscreen_buffer@@HH@Z 0000000140003170 f   win32_handmade.obj
 0001:00002290       ?Win32DisplayBufferInWindow@@YAXPEAUwin32_offscreen_buffer@@PEAUHDC__@@HH@Z 0000000140003290 f   win32_handmade.obj
 0001:00002340       ?Win32MainWindowCallback@@YA_JPEAUHWND__@@I_K_J@Z 0000000140003340 f   win32_handmade.obj
 0001:000024d0       ?Win32ClearBuffer@@YAXPEAUwin32_sound_output@@@Z 00000001400034d0 f   win32_handmade.obj
 0001:000025f0       ?Win32ProcessKeyboardMessage@@YAXPEAUgame_button_state@@H@Z 00000001400035f0 f   win32_handmade.obj
 0001:00002630       ?Win32ProcessXInputDigitalButton@@YAXKPEAUgame_button_state@@K0@Z 0000000140003630 f   win32_handmade.obj
 0001:000026b0       ?Win32FillSoundBuffer@@YAXPEAUwin32_sound_output@@KKPEAUgame_sound_output_buffer@@@Z 00000001400036b0 f   win32_handmade.obj
 0001:000028e0       ?Win32ProcessXInputStickValue@@YAMFF@Z 00000001400038e0 f   win32_handmade.obj
 0001:00002990       ?Win32GetInputFileLocation@@YAXPEAUwin32_state@@HHHPEAD@Z 0000000140003990 f   win32_handmade.obj
 0001:00002a40       ?Win32GetReplayBuffer@@YAPEAUwin32_replay_buffer@@PEAUwin32_state@@I@Z 0000000140003a40 f   win32_handmade.obj
 0001:00002a90       ?Win32BeginRecordingInput@@YAXPEAUwin32_state@@H@Z 0000000140003a90 f   win32_handmade.obj
 0001:00002bb0       ?Win32EndRecordingInput@@YAXPEAUwin32_state@@@Z 0000000140003bb0 f   win32_handmade.obj
 0001:00002bf0       ?Win32BeginInputPlayBack@@YAXPEAUwin32_state@@H@Z 0000000140003bf0 f   win32_handmade.obj
 0001:00002d10       ?Win32EndInputPlayBack@@YAXPEAUwin32_state@@@Z 0000000140003d10 f   win32_handmade.obj
 0001:00002d50       ?Win32RecordInput@@YAXPEAUwin32_state@@PEAUgame_input@@@Z 0000000140003d50 f   win32_handmade.obj
 0001:00002da0       ?Win32PlayBackInput@@YAXPEAUwin32_state@@PEAUgame_input@@@Z 0000000140003da0 f   win32_handmade.obj
 0001:00002e50       ?Win32ProcessPendingMessages@@YAXPEAUwin32_state@@PEAUgame_controller_input@@@Z 0000000140003e50 f   win32_handmade.obj
 0001:000034a0       $$000000                   00000001400044a0     LIBCMTD:chkstk.obj
 0001:00003500       $$000000                   0000000140004500     LIBCMTD:amdsecgs.obj
 0001:00003530       ?pre_c_initialization@@YAHXZ 0000000140004530 f   LIBCMTD:exe_winmain.obj
 0001:000035f0       ?post_pgo_initialization@@YAHXZ 00000001400045f0 f   LIBCMTD:exe_winmain.obj
 0001:00003600       ?pre_cpp_initialization@@YAXXZ 0000000140004600 f   LIBCMTD:exe_winmain.obj
 0001:00003620       ?__scrt_common_main@@YAHXZ 0000000140004620 f   LIBCMTD:exe_winmain.obj
 0001:00003640       ?__scrt_common_main_seh@@YAHXZ 0000000140004640 f   LIBCMTD:exe_winmain.obj
 0001:00003820       ?invoke_main@@YAHXZ        0000000140004820 f   LIBCMTD:exe_winmain.obj
 0001:00003ac0       capture_current_context    0000000140004ac0 f   LIBCMTD:gs_report.obj
 0001:00003b60       capture_previous_context   0000000140004b60 f   LIBCMTD:gs_report.obj
 0001:00003c20       ?find_pe_section@@YAPEAU_IMAGE_SECTION_HEADER@@QEAE_K@Z 0000000140004c20 f   LIBCMTD:utility.obj
 0001:00003cf0       ?is_potentially_valid_image_base@@YA_NQEAX@Z 0000000140004cf0 f   LIBCMTD:utility.obj
 0001:00004120       __get_entropy              0000000140005120 f   LIBCMTD:gs_support.obj
 0001:00004280       ?get_invalid_value@environment_strings_traits@?A0x1bf47908@@SAPEA_WXZ 0000000140005280 f   libucrtd:get_environment_from_os.obj
 0001:000042c0       initialize_environment     00000001400052c0 f   libucrtd:initialization.obj
 0001:000042c0       initialize_global_state_isolation 00000001400052c0 f   libucrtd:initialization.obj
 0001:000042d0       init_string_functions      00000001400052d0 f   libvcruntimed:initialization.obj
 0001:00005280       ??0?$__crt_unique_handle_t@Uenvironment_strings_traits@?A0x1bf47908@@@@QEAA@QEA_W@Z 0000000140006280 f i libucrtd:get_environment_from_os.obj
 0001:00005280       ??0<lambda_8d0ee55de4b1038c4002e0adecdf1839>@@QEAA@AEBQEAU__acrt_ptd@@@Z 0000000140006280 f i libucrtd:per_thread_data.obj
 0001:00005280       ??0<lambda_8f455de75cd7d7f24b4096f044d8b9e6>@@QEAA@AEBQEAU__acrt_ptd@@@Z 0000000140006280 f i libucrtd:per_thread_data.obj
 0001:00005280       ??0<lambda_e157831efee4ea0afb0a2ace5dd5fd0d>@@QEAA@AEBQEAU__acrt_ptd@@@Z 0000000140006280 f i libucrtd:per_thread_data.obj
 0001:00005280       ??0<lambda_3e4146214822e0ea86c47ff907aef2ff>@@QEAA@AEBH@Z 0000000140006280 f i libucrtd:commit.obj
 0001:00005280       ??0<lambda_df1553121bfa390f1154bd84936f2730>@@QEAA@AEAV?$__crt_unique_heap_ptr@PEADU__crt_internal_free_policy@@@@@Z 0000000140006280 f i libucrtd:argv_parsing.obj
 0001:00005280       ??0<lambda_d121dba8a4adeaf3a9819e48611155df>@@QEAA@AEBQEAU_onexit_table_t@@@Z 0000000140006280 f i libucrtd:onexit.obj
 0001:00005300       ?get@?$__crt_unique_handle_t@Uenvironment_strings_traits@?A0x1bf47908@@@@QEBAPEA_WXZ 0000000140006300 f i libucrtd:get_environment_from_os.obj
 0001:00005300       ?begin@?$argument_list@D@?A0x5f5c8891@@QEBAPEAPEADXZ 0000000140006300 f i libucrtd:argv_wildcards.obj
 0001:000054f0       ?_FilterSetCurrentException@@YAKPEAU_EXCEPTION_POINTERS@@E@Z 00000001400064f0 f   libvcruntimed:ehhelpers.obj
 0001:00005780       $$000000                   0000000140006780     libvcruntimed:notify.obj
 0001:000057a0       $$000000                   00000001400067a0     libvcruntimed:notify.obj
 0001:000057b0       $$000000                   00000001400067b0     libvcruntimed:notify.obj
 0001:00005820       ??0scoped_get_last_error_reset@?A0xf875a351@@QEAA@XZ 0000000140006820 f   libvcruntimed:per_thread_data.obj
 0001:00005840       ??1scoped_get_last_error_reset@?A0xf875a351@@QEAA@XZ 0000000140006840 f   libvcruntimed:per_thread_data.obj
 0001:00005890       ?store_and_initialize_ptd@@YA_NQEAU__vcrt_ptd@@@Z 0000000140006890 f   libvcruntimed:per_thread_data.obj
 0001:00005d40       ?invalid_function_sentinel@@YAPEAXXZ 0000000140006d40 f   libucrtd:winapi_thunks.obj
 0001:00005d40       ?invalid_function_sentinel@@YAPEAXXZ 0000000140006d40 f   libvcruntimed:winapi_downlevel.obj
 0001:00005d50       ?try_get_FlsAlloc@@YAP6AKP6AXPEAX@Z@ZXZ 0000000140006d50 f   libvcruntimed:winapi_downlevel.obj
 0001:00005d80       ?try_get_FlsFree@@YAP6AHK@ZXZ 0000000140006d80 f   libvcruntimed:winapi_downlevel.obj
 0001:00005db0       ?try_get_FlsGetValue@@YAP6APEAXK@ZXZ 0000000140006db0 f   libvcruntimed:winapi_downlevel.obj
 0001:00005de0       ?try_get_FlsSetValue@@YAP6AHKPEAX@ZXZ 0000000140006de0 f   libvcruntimed:winapi_downlevel.obj
 0001:00005e10       ?try_get_InitializeCriticalSectionEx@@YAP6AHPEAU_RTL_CRITICAL_SECTION@@KK@ZXZ 0000000140006e10 f   libvcruntimed:winapi_downlevel.obj
 0001:00005e40       ?try_get_first_available_module@@YAPEAUHINSTANCE__@@QEBW4module_id@?A0x14174aea@@0@Z 0000000140006e40 f   libvcruntimed:winapi_downlevel.obj
 0001:00005ea0       ?try_get_function@@YAPEAXW4function_id@?A0x14174aea@@QEBDQEBW4module_id@2@2@Z 0000000140006ea0 f   libvcruntimed:winapi_downlevel.obj
 0001:00006010       ?try_get_module@@YAPEAUHINSTANCE__@@W4module_id@?A0x14174aea@@@Z 0000000140007010 f   libvcruntimed:winapi_downlevel.obj
 0001:00006170       ?try_get_proc_address_from_first_available_module@@YAPEAXQEBDQEBW4module_id@?A0x14174aea@@1@Z 0000000140007170 f   libvcruntimed:winapi_downlevel.obj
 0001:000061c0       ?try_load_library_from_system_directory@@YAPEAUHINSTANCE__@@QEB_W@Z 00000001400071c0 f   libvcruntimed:winapi_downlevel.obj
 0001:00006430       ??$SehTransFilter@V__FrameHandler3@@@@YAHPEAU_EXCEPTION_POINTERS@@PEAUEHExceptionRecord@@PEA_KPEAU_CONTEXT@@PEAU_xDISPATCHER_CONTEXT@@PEBU_s_FuncInfo@@HPEAH@Z 0000000140007430 f   libvcruntimed:risctrnsctrl.obj
 0001:00007160       ?adjustIp@@YA_KPEAU_xDISPATCHER_CONTEXT@@_K@Z 0000000140008160 f   libvcruntimed:ehstate.obj
 0001:00007170       ??$BuildCatchObjectHelperInternal@V__FrameHandler3@@@@YAHPEAUEHExceptionRecord@@PEAXPEBU_s_HandlerType@@PEBU_s_CatchableType@@@Z 0000000140008170 f   libvcruntimed:frame.obj
 0001:00007560       ??$BuildCatchObjectInternal@V__FrameHandler3@@@@YAXPEAUEHExceptionRecord@@PEAXPEBU_s_HandlerType@@PEBU_s_CatchableType@@@Z 0000000140008560 f   libvcruntimed:frame.obj
 0001:000076b0       ??$CatchIt@V__FrameHandler3@@@@YAXPEAUEHExceptionRecord@@PEA_KPEAU_CONTEXT@@PEAU_xDISPATCHER_CONTEXT@@PEBU_s_FuncInfo@@PEBU_s_HandlerType@@PEBU_s_CatchableType@@PEBU_s_TryBlockMapEntry@@H1EE@Z 00000001400086b0 f   libvcruntimed:frame.obj
 0001:000077f0       ??$FindHandler@V__FrameHandler3@@@@YAXPEAUEHExceptionRecord@@PEA_KPEAU_CONTEXT@@PEAU_xDISPATCHER_CONTEXT@@PEBU_s_FuncInfo@@EH1@Z 00000001400087f0 f   libvcruntimed:frame.obj
 0001:00007fd0       ??$FindHandlerForForeignException@V__FrameHandler3@@@@YAXPEAUEHExceptionRecord@@PEA_KPEAU_CONTEXT@@PEAU_xDISPATCHER_CONTEXT@@PEBU_s_FuncInfo@@HH1@Z 0000000140008fd0 f   libvcruntimed:frame.obj
 0001:00008a70       ??0<lambda_92619d2358a28f41a33ba319515a20b9>@@QEAA@AEBQEAU__acrt_ptd@@AEBQEAPEAU__crt_locale_data@@@Z 0000000140009a70 f i libucrtd:per_thread_data.obj
 0001:00008a70       ??0<lambda_af29824b49a67d335554598d6cad2be6>@@QEAA@AEBHAEAV__crt_cached_ptd_host@@@Z 0000000140009a70 f i libucrtd:close.obj
 0001:00008a70       ??0<lambda_bd5a608237428601b7e45fbdc72b1ae8>@@QEAA@AEBQEAU__acrt_ptd@@AEBQEAPEAU__crt_multibyte_data@@@Z 0000000140009a70 f i libucrtd:mbctype.obj
 0001:00008a70       ??0<lambda_208ce30acdd7200aa596f2796f4d5154>@@QEAA@AEBQEAU_onexit_table_t@@AEBQ6AHXZ@Z 0000000140009a70 f i libucrtd:onexit.obj
 0001:00009130       ?ExFilterRethrow@@YAHPEAU_EXCEPTION_POINTERS@@PEAUEHExceptionRecord@@PEAH@Z 000000014000a130 f   libvcruntimed:frame.obj
 0001:00009550       ?IsInExceptionSpec@@YAEPEAUEHExceptionRecord@@PEBU_s_ESTypeList@@@Z 000000014000a550 f   libvcruntimed:frame.obj
 0001:00009670       ?Is_bad_exception_allowed@@YAEPEBU_s_ESTypeList@@@Z 000000014000a670 f   libvcruntimed:frame.obj
 0001:000097f0       ?__RethrowException@@YAXPEAUEHExceptionRecord@@@Z 000000014000a7f0 f   libvcruntimed:frame.obj
 0001:00009a50       $$000000                   000000014000aa50     libvcruntimed:handlers.obj
 0001:00009dc0       ?xcptlookup@@YAPEAU__crt_signal_action_t@@KQEAU1@@Z 000000014000adc0 f   libucrtd:exception_filter.obj
 0001:0000a0dc       $LN33                      000000014000b0dc     libucrtd:exception_filter.obj
 0001:0000a100       ?issue_debug_notification@@YA_NQEB_W@Z 000000014000b100 f   libucrtd:report_runtime_error.obj
 0001:0000a160       ?should_write_error_to_console@@YA_NXZ 000000014000b160 f   libucrtd:report_runtime_error.obj
 0001:0000a1a0       ?write_string_to_console@@YAXQEB_W@Z 000000014000b1a0 f   libucrtd:report_runtime_error.obj
 0001:0000a810       ??$common_configure_argv@D@@YAHW4_crt_argv_mode@@@Z 000000014000b810 f   libucrtd:argv_parsing.obj
 0001:0000abe0       ??$parse_command_line@D@@YAXPEADPEAPEAD0PEA_K2@Z 000000014000bbe0 f   libucrtd:argv_parsing.obj
 0001:0000b0f0       ??R<lambda_df1553121bfa390f1154bd84936f2730>@@QEBA@XZ 000000014000c0f0 f   libucrtd:argv_parsing.obj
 0001:0000b150       ?pre_initialize@@YAXD@Z    000000014000c150 f   libucrtd:environment_initialization.obj
 0001:0000b150       ?do_locale_initialization@@YAXD@Z 000000014000c150 f   libucrtd:argv_parsing.obj
 0001:0000b150       ?do_locale_initialization@@YAXE@Z 000000014000c150 f   libucrtd:argv_winmain.obj
 0001:0000b170       ?expand_argv_wildcards@@YAHQEAPEADQEAPEAPEAD@Z 000000014000c170 f   libucrtd:argv_parsing.obj
 0001:0000b1b0       ?get_argv@@YAAEAPEAPEADD@Z 000000014000c1b0 f   libucrtd:argv_parsing.obj
 0001:0000b1c0       ?get_command_line@@YAPEADD@Z 000000014000c1c0 f   libucrtd:argv_parsing.obj
 0001:0000b1c0       ?get_command_line@@YAPEAEE@Z 000000014000c1c0 f   libucrtd:argv_winmain.obj
 0001:0000b200       ?should_copy_another_character@@YA_ND@Z 000000014000c200 f   libucrtd:argv_parsing.obj
 0001:0000b3a0       ??$common_initialize_environment_nolock@D@@YAHXZ 000000014000c3a0 f   libucrtd:environment_initialization.obj
 0001:0000b4c0       ??$count_variables_in_environment_block@D@@YA?B_KQEAD@Z 000000014000c4c0 f   libucrtd:environment_initialization.obj
 0001:0000b540       ??$create_environment@D@@YAQEAPEADQEAD@Z 000000014000c540 f   libucrtd:environment_initialization.obj
 0001:0000b750       ??$free_environment@D@@YAXQEAPEAD@Z 000000014000c750 f   libucrtd:environment_initialization.obj
 0001:0000b750       ??$free_environment@_W@@YAXQEAPEA_W@Z 000000014000c750 f   libucrtd:environment_initialization.obj
 0001:0000b920       ??$uninitialize_environment_internal@D@@YAXAEAPEAPEAD@Z 000000014000c920 f   libucrtd:environment_initialization.obj
 0001:0000b960       ??$uninitialize_environment_internal@_W@@YAXAEAPEAPEA_W@Z 000000014000c960 f   libucrtd:environment_initialization.obj
 0001:0000b9a0       ?get_dual_state_environment_nolock@@YAAEAV?$dual_state_global@PEAPEAD@__crt_state_management@@D@Z 000000014000c9a0 f   libucrtd:environment_initialization.obj
 0001:0000b9b0       ?get_environment_nolock@@YAAEAPEAPEADD@Z 000000014000c9b0 f   libucrtd:environment_initialization.obj
 0001:0000b9d0       ?get_initial_environment@@YAAEAPEAPEADD@Z 000000014000c9d0 f   libucrtd:environment_initialization.obj
 0001:0000b9e0       ?get_initial_environment@@YAAEAPEAPEA_W_W@Z 000000014000c9e0 f   libucrtd:environment_initialization.obj
 0001:0000ba50       ??$common_wincmdln@E@@YAPEAEXZ 000000014000ca50 f   libucrtd:argv_winmain.obj
 0001:0000bb50       ?should_copy_another_character@@YA_NE@Z 000000014000cb50 f   libucrtd:argv_winmain.obj
 0001:0000bcb0       ??$?RV<lambda_d80eeec6fff315bfe5c115232f3240e3>@@AEAV<lambda_6e4b09c48022b2350581041d5f6b0c4c>@@V<lambda_2358e3775559c9db80273638284d5e45>@@@?$__crt_seh_guarded_call@X@@QEAAX$$QEAV<lambda_d80eeec6fff315bfe5c115232f3240e3>@@AEAV<lambda_6e4b09c48022b2350581041d5f6b0c4c>@@$$QEAV<lambda_2358e3775559c9db80273638284d5e45>@@@Z 000000014000ccb0 f   libucrtd:exit.obj
 0001:0000bcf0       ??$__acrt_lock_and_call@V<lambda_6e4b09c48022b2350581041d5f6b0c4c>@@@@YAXW4__acrt_lock_id@@$$QEAV<lambda_6e4b09c48022b2350581041d5f6b0c4c>@@@Z 000000014000ccf0 f   libucrtd:exit.obj
 0001:0000bda0       ??0<lambda_04ddeca75b7c13fd67716e8dfcef87ee>@@QEAA@AEBW4__acrt_lock_id@@@Z 000000014000cda0 f   libucrtd:per_thread_data.obj
 0001:0000bda0       ??0<lambda_0ae27a3a962d80f24befdcbee591983d>@@QEAA@AEBW4__acrt_lock_id@@@Z 000000014000cda0 f   libucrtd:per_thread_data.obj
 0001:0000bda0       ??0<lambda_2d41944a1d46af3157314b8a01080d33>@@QEAA@AEBW4__acrt_lock_id@@@Z 000000014000cda0 f   libucrtd:per_thread_data.obj
 0001:0000bda0       ??0<lambda_6992ecaafeb10aed2b74cb1fae11a551>@@QEAA@AEBW4__acrt_lock_id@@@Z 000000014000cda0 f   libucrtd:per_thread_data.obj
 0001:0000bda0       ??0<lambda_74a0ef281e44d15e1136f792f539efb3>@@QEAA@AEBW4__acrt_lock_id@@@Z 000000014000cda0 f   libucrtd:per_thread_data.obj
 0001:0000bda0       ??0<lambda_aa500f224e6afead328df44964fe2772>@@QEAA@AEBW4__acrt_lock_id@@@Z 000000014000cda0 f   libucrtd:per_thread_data.obj
 0001:0000bda0       ??0<lambda_aa87e3671a710a21b5dc78c0bdf72e11>@@QEAA@AEBW4__acrt_lock_id@@@Z 000000014000cda0 f   libucrtd:per_thread_data.obj
 0001:0000bda0       ??0<lambda_dc504788e8f1664fe9b84e20bfb512f2>@@QEAA@AEBW4__acrt_lock_id@@@Z 000000014000cda0 f   libucrtd:per_thread_data.obj
 0001:0000bda0       ??0<lambda_38119f0e861e05405d8a144b9b982f0a>@@QEAA@AEBW4__acrt_lock_id@@@Z 000000014000cda0 f   libucrtd:wsetlocale.obj
 0001:0000bda0       ??0<lambda_410d79af7f07d98d83a3f525b3859a53>@@QEAA@AEBW4__acrt_lock_id@@@Z 000000014000cda0 f   libucrtd:wsetlocale.obj
 0001:0000bda0       ??0<lambda_19eaff14c5fe7be5b1b106a862eb1091>@@QEAA@AEBH@Z 000000014000cda0 f   libucrtd:close.obj
 0001:0000bda0       ??0<lambda_3ce37f5b621ab310299ea5f68cbdf3bb>@@QEAA@AEBH@Z 000000014000cda0 f   libucrtd:close.obj
 0001:0000bda0       ??0<lambda_7d29013d608e9f25a034de83c9b9e983>@@QEAA@AEBH@Z 000000014000cda0 f   libucrtd:commit.obj
 0001:0000bda0       ??0<lambda_b869e5a4e1069fcb5c3da79c0d999133>@@QEAA@AEBH@Z 000000014000cda0 f   libucrtd:commit.obj
 0001:0000bda0       ??0<lambda_728235dc0fc2b1f82d1fa5b3e7102d8f>@@QEAA@AEBW4__acrt_lock_id@@@Z 000000014000cda0 f   libucrtd:mbctype.obj
 0001:0000bda0       ??0<lambda_efa02eb69bf647d2f7ff0dd6f1103f72>@@QEAA@AEBW4__acrt_lock_id@@@Z 000000014000cda0 f   libucrtd:mbctype.obj
 0001:0000bda0       ??0<lambda_450d765d439847d4c735a33c368b5fc0>@@QEAA@AEBW4__acrt_lock_id@@@Z 000000014000cda0 f   libucrtd:signal.obj
 0001:0000bda0       ??0<lambda_601a2a7da3b7a96e9554ac7215c4b07c>@@QEAA@AEBW4__acrt_lock_id@@@Z 000000014000cda0 f   libucrtd:signal.obj
 0001:0000bda0       ??0<lambda_2358e3775559c9db80273638284d5e45>@@QEAA@AEBW4__acrt_lock_id@@@Z 000000014000cda0 f   libucrtd:exit.obj
 0001:0000bda0       ??0<lambda_d80eeec6fff315bfe5c115232f3240e3>@@QEAA@AEBW4__acrt_lock_id@@@Z 000000014000cda0 f   libucrtd:exit.obj
 0001:0000bda0       ??0<lambda_6a47f4c8fd0152770a780fc1d70204eb>@@QEAA@AEBW4__acrt_lock_id@@@Z 000000014000cda0 f   libucrtd:onexit.obj
 0001:0000bda0       ??0<lambda_6aaa2265f5b6a89667e7d7630012e97a>@@QEAA@AEBW4__acrt_lock_id@@@Z 000000014000cda0 f   libucrtd:onexit.obj
 0001:0000bda0       ??0<lambda_80060f20ac3990516b753a27f211934c>@@QEAA@AEBW4__acrt_lock_id@@@Z 000000014000cda0 f   libucrtd:onexit.obj
 0001:0000bda0       ??0<lambda_fd91b99c0687e8936f1d70d7d9b78e69>@@QEAA@AEBW4__acrt_lock_id@@@Z 000000014000cda0 f   libucrtd:onexit.obj
 0001:0000bda0       ??0<lambda_886d6c58226a84441f68b9f2b8217b83>@@QEAA@AEBW4__acrt_lock_id@@@Z 000000014000cda0 f   libucrtd:fflush.obj
 0001:0000bda0       ??0<lambda_f7f22ab5edc0698d5f6905b0d3f44752>@@QEAA@AEBW4__acrt_lock_id@@@Z 000000014000cda0 f   libucrtd:fflush.obj
 0001:0000bdc0       ??0<lambda_6e4b09c48022b2350581041d5f6b0c4c>@@QEAA@AEBW4_crt_exit_cleanup_mode@@AEBW4_crt_exit_return_mode@@AEA_N@Z 000000014000cdc0 f   libucrtd:exit.obj
 0001:0000bdc0       ??0<lambda_ab61a845afdef5b7c387490eaf3616ee>@@QEAA@AEAHAEB_N0@Z 000000014000cdc0 f   libucrtd:fflush.obj
 0001:0000be30       ??R<lambda_04ddeca75b7c13fd67716e8dfcef87ee>@@QEBA@XZ 000000014000ce30 f   libucrtd:per_thread_data.obj
 0001:0000be30       ??R<lambda_6992ecaafeb10aed2b74cb1fae11a551>@@QEBA@XZ 000000014000ce30 f   libucrtd:per_thread_data.obj
 0001:0000be30       ??R<lambda_aa500f224e6afead328df44964fe2772>@@QEBA@XZ 000000014000ce30 f   libucrtd:per_thread_data.obj
 0001:0000be30       ??R<lambda_dc504788e8f1664fe9b84e20bfb512f2>@@QEBA@XZ 000000014000ce30 f   libucrtd:per_thread_data.obj
 0001:0000be30       ??R<lambda_38119f0e861e05405d8a144b9b982f0a>@@QEBA@XZ 000000014000ce30 f   libucrtd:wsetlocale.obj
 0001:0000be30       ??R<lambda_728235dc0fc2b1f82d1fa5b3e7102d8f>@@QEBA@XZ 000000014000ce30 f   libucrtd:mbctype.obj
 0001:0000be30       ??R<lambda_601a2a7da3b7a96e9554ac7215c4b07c>@@QEBA@XZ 000000014000ce30 f   libucrtd:signal.obj
 0001:0000be30       ??R<lambda_2358e3775559c9db80273638284d5e45>@@QEBA@XZ 000000014000ce30 f   libucrtd:exit.obj
 0001:0000be30       ??R<lambda_6aaa2265f5b6a89667e7d7630012e97a>@@QEBA@XZ 000000014000ce30 f   libucrtd:onexit.obj
 0001:0000be30       ??R<lambda_fd91b99c0687e8936f1d70d7d9b78e69>@@QEBA@XZ 000000014000ce30 f   libucrtd:onexit.obj
 0001:0000be30       ??R<lambda_f7f22ab5edc0698d5f6905b0d3f44752>@@QEBA@XZ 000000014000ce30 f   libucrtd:fflush.obj
 0001:0000be50       ??R<lambda_6e4b09c48022b2350581041d5f6b0c4c>@@QEBA@XZ 000000014000ce50 f   libucrtd:exit.obj
 0001:0000bf70       ??R<lambda_0ae27a3a962d80f24befdcbee591983d>@@QEBA@XZ 000000014000cf70 f   libucrtd:per_thread_data.obj
 0001:0000bf70       ??R<lambda_2d41944a1d46af3157314b8a01080d33>@@QEBA@XZ 000000014000cf70 f   libucrtd:per_thread_data.obj
 0001:0000bf70       ??R<lambda_74a0ef281e44d15e1136f792f539efb3>@@QEBA@XZ 000000014000cf70 f   libucrtd:per_thread_data.obj
 0001:0000bf70       ??R<lambda_aa87e3671a710a21b5dc78c0bdf72e11>@@QEBA@XZ 000000014000cf70 f   libucrtd:per_thread_data.obj
 0001:0000bf70       ??R<lambda_410d79af7f07d98d83a3f525b3859a53>@@QEBA@XZ 000000014000cf70 f   libucrtd:wsetlocale.obj
 0001:0000bf70       ??R<lambda_efa02eb69bf647d2f7ff0dd6f1103f72>@@QEBA@XZ 000000014000cf70 f   libucrtd:mbctype.obj
 0001:0000bf70       ??R<lambda_450d765d439847d4c735a33c368b5fc0>@@QEBA@XZ 000000014000cf70 f   libucrtd:signal.obj
 0001:0000bf70       ??R<lambda_d80eeec6fff315bfe5c115232f3240e3>@@QEBA@XZ 000000014000cf70 f   libucrtd:exit.obj
 0001:0000bf70       ??R<lambda_6a47f4c8fd0152770a780fc1d70204eb>@@QEBA@XZ 000000014000cf70 f   libucrtd:onexit.obj
 0001:0000bf70       ??R<lambda_80060f20ac3990516b753a27f211934c>@@QEBA@XZ 000000014000cf70 f   libucrtd:onexit.obj
 0001:0000bf70       ??R<lambda_886d6c58226a84441f68b9f2b8217b83>@@QEBA@XZ 000000014000cf70 f   libucrtd:fflush.obj
 0001:0000bfe0       ?atexit_exception_filter@@YAHK@Z 000000014000cfe0 f   libucrtd:exit.obj
 0001:0000c080       ?common_exit@@YAXHW4_crt_exit_cleanup_mode@@W4_crt_exit_return_mode@@@Z 000000014000d080 f   libucrtd:exit.obj
 0001:0000c120       ?exit_or_terminate_process@@YAXI@Z 000000014000d120 f   libucrtd:exit.obj
 0001:0000c160       ?is_managed_app@@YA_NXZ    000000014000d160 f   libucrtd:exit.obj
 0001:0000c210       ?should_call_terminate_process@@YA_NXZ 000000014000d210 f   libucrtd:exit.obj
 0001:0000c240       ?try_cor_exit_process@@YAXI@Z 000000014000d240 f   libucrtd:exit.obj
 0001:0000c4f0       ??$?RV<lambda_410d79af7f07d98d83a3f525b3859a53>@@AEAV<lambda_3e16ef9562a7dcce91392c22ab16ea36>@@V<lambda_38119f0e861e05405d8a144b9b982f0a>@@@?$__crt_seh_guarded_call@X@@QEAAX$$QEAV<lambda_410d79af7f07d98d83a3f525b3859a53>@@AEAV<lambda_3e16ef9562a7dcce91392c22ab16ea36>@@$$QEAV<lambda_38119f0e861e05405d8a144b9b982f0a>@@@Z 000000014000d4f0 f   libucrtd:wsetlocale.obj
 0001:0000c530       ??$__acrt_lock_and_call@V<lambda_3e16ef9562a7dcce91392c22ab16ea36>@@@@YAXW4__acrt_lock_id@@$$QEAV<lambda_3e16ef9562a7dcce91392c22ab16ea36>@@@Z 000000014000d530 f   libucrtd:wsetlocale.obj
 0001:0000c590       ??$uninitialize@V<lambda_363eea9039da1e8169e2d060c7fe5cbc>@@@?$dual_state_global@PEAU__crt_locale_data@@@__crt_state_management@@QEAAX$$QEAV<lambda_363eea9039da1e8169e2d060c7fe5cbc>@@@Z 000000014000d590 f   libucrtd:wsetlocale.obj
 0001:0000c5f0       ??R<lambda_363eea9039da1e8169e2d060c7fe5cbc>@@QEBA@AEAPEAU__crt_locale_data@@@Z 000000014000d5f0 f   libucrtd:wsetlocale.obj
 0001:0000c630       ??R<lambda_3e16ef9562a7dcce91392c22ab16ea36>@@QEBA@XZ 000000014000d630 f   libucrtd:wsetlocale.obj
 0001:0000c9b0       ??$?RV<lambda_6a47f4c8fd0152770a780fc1d70204eb>@@AEAV<lambda_d121dba8a4adeaf3a9819e48611155df>@@V<lambda_6aaa2265f5b6a89667e7d7630012e97a>@@@?$__crt_seh_guarded_call@H@@QEAAH$$QEAV<lambda_6a47f4c8fd0152770a780fc1d70204eb>@@AEAV<lambda_d121dba8a4adeaf3a9819e48611155df>@@$$QEAV<lambda_6aaa2265f5b6a89667e7d7630012e97a>@@@Z 000000014000d9b0 f   libucrtd:onexit.obj
 0001:0000ca00       ??$?RV<lambda_80060f20ac3990516b753a27f211934c>@@AEAV<lambda_208ce30acdd7200aa596f2796f4d5154>@@V<lambda_fd91b99c0687e8936f1d70d7d9b78e69>@@@?$__crt_seh_guarded_call@H@@QEAAH$$QEAV<lambda_80060f20ac3990516b753a27f211934c>@@AEAV<lambda_208ce30acdd7200aa596f2796f4d5154>@@$$QEAV<lambda_fd91b99c0687e8936f1d70d7d9b78e69>@@@Z 000000014000da00 f   libucrtd:onexit.obj
 0001:0000ca50       ??$__acrt_lock_and_call@V<lambda_208ce30acdd7200aa596f2796f4d5154>@@@@YAHW4__acrt_lock_id@@$$QEAV<lambda_208ce30acdd7200aa596f2796f4d5154>@@@Z 000000014000da50 f   libucrtd:onexit.obj
 0001:0000cab0       ??$__acrt_lock_and_call@V<lambda_d121dba8a4adeaf3a9819e48611155df>@@@@YAHW4__acrt_lock_id@@$$QEAV<lambda_d121dba8a4adeaf3a9819e48611155df>@@@Z 000000014000dab0 f   libucrtd:onexit.obj
 0001:0000cb10       ??R<lambda_208ce30acdd7200aa596f2796f4d5154>@@QEBA@XZ 000000014000db10 f   libucrtd:onexit.obj
 0001:0000ce50       ??R<lambda_d121dba8a4adeaf3a9819e48611155df>@@QEBA@XZ 000000014000de50 f   libucrtd:onexit.obj
 0001:0000d1b0       initialize_global_variables 000000014000e1b0 f   libucrtd:initialization.obj
 0001:0000d1d0       initialize_c               000000014000e1d0 f   libucrtd:initialization.obj
 0001:0000d200       uninitialize_c             000000014000e200 f   libucrtd:initialization.obj
 0001:0000d200       uninitialize_global_state_isolation 000000014000e200 f   libucrtd:initialization.obj
 0001:0000d210       uninitialize_environment   000000014000e210 f   libucrtd:initialization.obj
 0001:0000d240       initialize_pointers        000000014000e240 f   libucrtd:initialization.obj
 0001:0000d2a0       uninitialize_vcruntime     000000014000e2a0 f   libucrtd:initialization.obj
 0001:0000d2c0       uninitialize_allocated_memory 000000014000e2c0 f   libucrtd:initialization.obj
 0001:0000d300       uninitialize_allocated_io_buffers 000000014000e300 f   libucrtd:initialization.obj
 0001:0000d380       report_memory_leaks        000000014000e380 f   libucrtd:initialization.obj
 0001:0000d3b0       ??$uninitialize@V<lambda_af27fe6ede5d83bbdbd622796c194e9c>@@@?$dual_state_global@PEAU__crt_multibyte_data@@@__crt_state_management@@QEAAX$$QEAV<lambda_af27fe6ede5d83bbdbd622796c194e9c>@@@Z 000000014000e3b0 f   libucrtd:initialization.obj
 0001:0000d410       ??R<lambda_af27fe6ede5d83bbdbd622796c194e9c>@@QEBA@AEAPEAU__crt_multibyte_data@@@Z 000000014000e410 f   libucrtd:initialization.obj
 0001:0000d680       ?block_from_header@@YAPEAEQEAU_CrtMemBlockHeader@@@Z 000000014000e680 f   libucrtd:debug_heap.obj
 0001:0000d690       ?check_block@@YA_NQEAU_CrtMemBlockHeader@@@Z 000000014000e690 f   libucrtd:debug_heap.obj
 0001:0000dc00       ?check_bytes@@YA_NQEBEE_K@Z 000000014000ec00 f   libucrtd:debug_heap.obj
 0001:0000dc70       ?dump_all_object_since_nolock@@YAXQEBU_CrtMemState@@@Z 000000014000ec70 f   libucrtd:debug_heap.obj
 0001:0000e0f0       ?free_dbg_nolock@@YAXQEAXH@Z 000000014000f0f0 f   libucrtd:debug_heap.obj
 0001:0000e870       ?header_from_block@@YAPEAU_CrtMemBlockHeader@@QEBX@Z 000000014000f870 f   libucrtd:debug_heap.obj
 0001:0000e880       ?heap_alloc_dbg@@YAPEAX_KHQEBDH@Z 000000014000f880 f   libucrtd:debug_heap.obj
 0001:0000e920       ?heap_alloc_dbg_internal@@YAPEAX_KHQEBDH@Z 000000014000f920 f   libucrtd:debug_heap.obj
 0001:0000ed70       ?is_bad_read_pointer@@YA_NQEBX_K@Z 000000014000fd70 f   libucrtd:debug_heap.obj
 0001:0000ee80       ?is_block_an_aligned_allocation@@YA_NQEBX@Z 000000014000fe80 f   libucrtd:debug_heap.obj
 0001:0000eec0       ?is_block_type_valid@@YA_NH@Z 000000014000fec0 f   libucrtd:debug_heap.obj
 0001:0000ef10       ?print_block_data@@YAXQEAU__crt_locale_pointers@@QEAU_CrtMemBlockHeader@@@Z 000000014000ff10 f   libucrtd:debug_heap.obj
 0001:0000f140       ?realloc_dbg_nolock@@YAPEAXQEAXQEA_KHQEBDH_N@Z 0000000140010140 f   libucrtd:debug_heap.obj
 0001:0000f980       ?validate_heap_if_required_nolock@@YAXXZ 0000000140010980 f   libucrtd:debug_heap.obj
 0001:00010740       ??$common_tcscpy_s@D@@YAHQEAD_KQEBD@Z 0000000140011740 f   libucrtd:strcpy_s.obj
 0001:00010c50       $$000000                   0000000140011c50     libucrtd:strcmp.obj
 0001:00010cd0       $$000000                   0000000140011cd0     libucrtd:strlen.obj
 0001:00011040       ?capture_current_context@@YAXQEAU_CONTEXT@@@Z 0000000140012040 f   libucrtd:invalid_parameter.obj
 0001:00011910       ??$common_vsnprintf_s@D@@YAH_KQEAD00QEBDAEAV__crt_cached_ptd_host@@1@Z 0000000140012910 f   libucrtd:output.obj
 0001:00011ff0       ??$common_vsnprintf_s@_W@@YAH_KQEA_W00QEB_WAEAV__crt_cached_ptd_host@@QEAD@Z 0000000140012ff0 f   libucrtd:output.obj
 0001:000126e0       ??$common_vsprintf@Vformat_validation_base@__crt_stdio_output@@D@@YAH_KQEAD0QEBDAEAV__crt_cached_ptd_host@@1@Z 00000001400136e0 f   libucrtd:output.obj
 0001:00012ba0       ??$common_vsprintf@Vformat_validation_base@__crt_stdio_output@@_W@@YAH_KQEA_W0QEB_WAEAV__crt_cached_ptd_host@@QEAD@Z 0000000140013ba0 f   libucrtd:output.obj
 0001:00013050       ??$common_vsprintf_s@D@@YAH_KQEAD0QEBDAEAV__crt_cached_ptd_host@@1@Z 0000000140014050 f   libucrtd:output.obj
 0001:00018484       $LN39                      0000000140019484     libucrtd:output.obj
 0001:00018848       $LN39                      0000000140019848     libucrtd:output.obj
 0001:0001947c       $LN54                      000000014001a47c     libucrtd:output.obj
 0001:000194a4       $LN53                      000000014001a4a4     libucrtd:output.obj
 0001:0001993c       $LN54                      000000014001a93c     libucrtd:output.obj
 0001:00019964       $LN53                      000000014001a964     libucrtd:output.obj
 0001:00019df8       $LN54                      000000014001adf8     libucrtd:output.obj
 0001:00019e28       $LN53                      000000014001ae28     libucrtd:output.obj
 0001:0001a37c       $LN54                      000000014001b37c     libucrtd:output.obj
 0001:0001a3ac       $LN53                      000000014001b3ac     libucrtd:output.obj
 0001:0001a630       $LN19                      000000014001b630     libucrtd:output.obj
 0001:0001d560       ??$common_message_window@D@@YAHHQEAXQEBD111@Z 000000014001e560 f   libucrtd:dbgrpt.obj
 0001:0001dc40       ??$common_message_window@_W@@YAHHQEAXQEB_W111@Z 000000014001ec40 f   libucrtd:dbgrpt.obj
 0001:0001e450       ?get_output_message_format@@YAPEB_WD@Z 000000014001f450 f   libucrtd:dbgrpt.obj
 0001:0001e460       ?get_output_message_format@@YAPEB_W_W@Z 000000014001f460 f   libucrtd:dbgrpt.obj
 0001:0001e470       ?get_program_name_unknown_text@@YAPEBDD@Z 000000014001f470 f   libucrtd:dbgrpt.obj
 0001:0001e480       ?get_program_name_unknown_text@@YAPEB_W_W@Z 000000014001f480 f   libucrtd:dbgrpt.obj
 0001:0001e720       $$000000                   000000014001f720     libucrtd:strncmp.obj
 0001:0001e8a0       ??$?RV<lambda_0ae27a3a962d80f24befdcbee591983d>@@AEAV<lambda_8d0ee55de4b1038c4002e0adecdf1839>@@V<lambda_dc504788e8f1664fe9b84e20bfb512f2>@@@?$__crt_seh_guarded_call@X@@QEAAX$$QEAV<lambda_0ae27a3a962d80f24befdcbee591983d>@@AEAV<lambda_8d0ee55de4b1038c4002e0adecdf1839>@@$$QEAV<lambda_dc504788e8f1664fe9b84e20bfb512f2>@@@Z 000000014001f8a0 f   libucrtd:per_thread_data.obj
 0001:0001e8e0       ??$?RV<lambda_2d41944a1d46af3157314b8a01080d33>@@AEAV<lambda_8f455de75cd7d7f24b4096f044d8b9e6>@@V<lambda_aa500f224e6afead328df44964fe2772>@@@?$__crt_seh_guarded_call@X@@QEAAX$$QEAV<lambda_2d41944a1d46af3157314b8a01080d33>@@AEAV<lambda_8f455de75cd7d7f24b4096f044d8b9e6>@@$$QEAV<lambda_aa500f224e6afead328df44964fe2772>@@@Z 000000014001f8e0 f   libucrtd:per_thread_data.obj
 0001:0001e920       ??$?RV<lambda_74a0ef281e44d15e1136f792f539efb3>@@AEAV<lambda_e157831efee4ea0afb0a2ace5dd5fd0d>@@V<lambda_04ddeca75b7c13fd67716e8dfcef87ee>@@@?$__crt_seh_guarded_call@X@@QEAAX$$QEAV<lambda_74a0ef281e44d15e1136f792f539efb3>@@AEAV<lambda_e157831efee4ea0afb0a2ace5dd5fd0d>@@$$QEAV<lambda_04ddeca75b7c13fd67716e8dfcef87ee>@@@Z 000000014001f920 f   libucrtd:per_thread_data.obj
 0001:0001e960       ??$?RV<lambda_aa87e3671a710a21b5dc78c0bdf72e11>@@AEAV<lambda_92619d2358a28f41a33ba319515a20b9>@@V<lambda_6992ecaafeb10aed2b74cb1fae11a551>@@@?$__crt_seh_guarded_call@X@@QEAAX$$QEAV<lambda_aa87e3671a710a21b5dc78c0bdf72e11>@@AEAV<lambda_92619d2358a28f41a33ba319515a20b9>@@$$QEAV<lambda_6992ecaafeb10aed2b74cb1fae11a551>@@@Z 000000014001f960 f   libucrtd:per_thread_data.obj
 0001:0001e9a0       ??$__acrt_lock_and_call@V<lambda_8d0ee55de4b1038c4002e0adecdf1839>@@@@YAXW4__acrt_lock_id@@$$QEAV<lambda_8d0ee55de4b1038c4002e0adecdf1839>@@@Z 000000014001f9a0 f   libucrtd:per_thread_data.obj
 0001:0001ea00       ??$__acrt_lock_and_call@V<lambda_8f455de75cd7d7f24b4096f044d8b9e6>@@@@YAXW4__acrt_lock_id@@$$QEAV<lambda_8f455de75cd7d7f24b4096f044d8b9e6>@@@Z 000000014001fa00 f   libucrtd:per_thread_data.obj
 0001:0001ea60       ??$__acrt_lock_and_call@V<lambda_92619d2358a28f41a33ba319515a20b9>@@@@YAXW4__acrt_lock_id@@$$QEAV<lambda_92619d2358a28f41a33ba319515a20b9>@@@Z 000000014001fa60 f   libucrtd:per_thread_data.obj
 0001:0001eac0       ??$__acrt_lock_and_call@V<lambda_e157831efee4ea0afb0a2ace5dd5fd0d>@@@@YAXW4__acrt_lock_id@@$$QEAV<lambda_e157831efee4ea0afb0a2ace5dd5fd0d>@@@Z 000000014001fac0 f   libucrtd:per_thread_data.obj
 0001:0001eb20       ??R<lambda_8d0ee55de4b1038c4002e0adecdf1839>@@QEBA@XZ 000000014001fb20 f   libucrtd:per_thread_data.obj
 0001:0001eb40       ??R<lambda_8f455de75cd7d7f24b4096f044d8b9e6>@@QEBA@XZ 000000014001fb40 f   libucrtd:per_thread_data.obj
 0001:0001eb60       ??R<lambda_92619d2358a28f41a33ba319515a20b9>@@QEBA@XZ 000000014001fb60 f   libucrtd:per_thread_data.obj
 0001:0001eb90       ??R<lambda_e157831efee4ea0afb0a2ace5dd5fd0d>@@QEBA@XZ 000000014001fb90 f   libucrtd:per_thread_data.obj
 0001:0001ec00       ?construct_ptd@@YAXQEAU__acrt_ptd@@QEAPEAU__crt_locale_data@@@Z 000000014001fc00 f   libucrtd:per_thread_data.obj
 0001:0001ece0       ?construct_ptd_array@@YAXQEAU__acrt_ptd@@@Z 000000014001fce0 f   libucrtd:per_thread_data.obj
 0001:0001ed50       ?destroy_fls@@YAXPEAX@Z    000000014001fd50 f   libucrtd:per_thread_data.obj
 0001:0001ed90       ?destroy_ptd@@YAXQEAU__acrt_ptd@@@Z 000000014001fd90 f   libucrtd:per_thread_data.obj
 0001:0001eec0       ?destroy_ptd_array@@YAXQEAU__acrt_ptd@@@Z 000000014001fec0 f   libucrtd:per_thread_data.obj
 0001:0001ef10       ?internal_get_ptd_head@@YAPEAU__acrt_ptd@@XZ 000000014001ff10 f   libucrtd:per_thread_data.obj
 0001:0001f060       ?internal_getptd_noexit@@YAPEAU__acrt_ptd@@AEBV__crt_scoped_get_last_error_reset@@_K@Z 0000000140020060 f   libucrtd:per_thread_data.obj
 0001:0001f0a0       ?internal_getptd_noexit@@YAPEAU__acrt_ptd@@XZ 00000001400200a0 f   libucrtd:per_thread_data.obj
 0001:0001f0e0       ?replace_current_thread_locale_nolock@@YAXQEAU__acrt_ptd@@QEAU__crt_locale_data@@@Z 00000001400200e0 f   libucrtd:per_thread_data.obj
 0001:0001f1a0       ?try_get_ptd_head@@YAPEAU__acrt_ptd@@XZ 00000001400201a0 f   libucrtd:per_thread_data.obj
 0001:0001f3f0       ??$common_tcscat_s@_W@@YAHQEA_W_KQEB_W@Z 00000001400203f0 f   libucrtd:wcscat_s.obj
 0001:0001fab0       ??$common_tcscpy_s@_W@@YAHQEA_W_KQEB_W@Z 0000000140020ab0 f   libucrtd:wcscpy_s.obj
 0001:0001ffe0       ??$common_tcsncpy_s@_W@@YAHQEA_W_KQEB_W1@Z 0000000140020fe0 f   libucrtd:wcsncpy_s.obj
 0001:000206d0       ??$common_strnlen@$00G@@YA_KQEBG_K@Z 00000001400216d0 f   libucrtd:strnlen.obj
 0001:00020730       ??$common_strnlen@$0A@E@@YA_KQEBE_K@Z 0000000140021730 f   libucrtd:strnlen.obj
 0001:00020790       ??$common_strnlen@$0A@G@@YA_KQEBG_K@Z 0000000140021790 f   libucrtd:strnlen.obj
 0001:000207f0       ??$common_strnlen_c@$00G@@YA_KQEBG_K@Z 00000001400217f0 f   libucrtd:strnlen.obj
 0001:00020870       ??$common_strnlen_c@$0A@E@@YA_KQEBE_K@Z 0000000140021870 f   libucrtd:strnlen.obj
 0001:000208f0       ??$common_strnlen_c@$0A@G@@YA_KQEBG_K@Z 00000001400218f0 f   libucrtd:strnlen.obj
 0001:00020970       ??$common_strnlen_simd@$00$00G@@YA_KQEBG_K@Z 0000000140021970 f   libucrtd:strnlen.obj
 0001:00020c00       ??$common_strnlen_simd@$00$0A@G@@YA_KQEBG_K@Z 0000000140021c00 f   libucrtd:strnlen.obj
 0001:00020ee0       ??$common_strnlen_simd@$0A@$00E@@YA_KQEBE_K@Z 0000000140021ee0 f   libucrtd:strnlen.obj
 0001:00021150       ??$common_strnlen_simd@$0A@$00G@@YA_KQEBG_K@Z 0000000140022150 f   libucrtd:strnlen.obj
 0001:000213e0       ??$common_strnlen_simd@$0A@$0A@E@@YA_KQEBE_K@Z 00000001400223e0 f   libucrtd:strnlen.obj
 0001:000216a0       ??$common_strnlen_simd@$0A@$0A@G@@YA_KQEBG_K@Z 00000001400226a0 f   libucrtd:strnlen.obj
 0001:00021980       ??$last_reached@$00@@YA_NQEBX0@Z 0000000140022980 f   libucrtd:strnlen.obj
 0001:00021990       ??$last_reached@$0A@@@YA_NQEBX0@Z 0000000140022990 f   libucrtd:strnlen.obj
 0001:00021bd0       ??$common_show_message_box@_W@@YAHQEB_W0I@Z 0000000140022bd0 f   libucrtd:crtmbox.obj
 0001:00021f40       ?<lambda_invoker_cdecl>@<lambda_a1ce4c8ae42411fd470c77163914f50e>@@CAHPEBX0@Z 0000000140022f40 f   libucrtd:argv_wildcards.obj
 0001:00022370       ??$common_expand_argv_wildcards@D@@YAHQEAPEADQEAPEAPEAD@Z 0000000140023370 f   libucrtd:argv_wildcards.obj
 0001:000227a0       ??$copy_and_add_argument_to_buffer@D@@YAHQEBD0_KAEAV?$argument_list@D@?A0x5f5c8891@@@Z 00000001400237a0 f   libucrtd:argv_wildcards.obj
 0001:00022950       ??$expand_argument_wildcards@D@@YAHQEAD0AEAV?$argument_list@D@?A0x5f5c8891@@@Z 0000000140023950 f   libucrtd:argv_wildcards.obj
 0001:00022e40       ??0?$argument_list@D@?A0x5f5c8891@@QEAA@XZ 0000000140023e40 f   libucrtd:argv_wildcards.obj
 0001:00022ed0       ??1?$argument_list@D@?A0x5f5c8891@@QEAA@XZ 0000000140023ed0 f   libucrtd:argv_wildcards.obj
 0001:00022f40       ??B<lambda_a1ce4c8ae42411fd470c77163914f50e>@@QEBAP6AHPEBX0@ZXZ 0000000140023f40 f   libucrtd:argv_wildcards.obj
 0001:00022fa0       ??R<lambda_a1ce4c8ae42411fd470c77163914f50e>@@QEBAHPEBX0@Z 0000000140023fa0 f   libucrtd:argv_wildcards.obj
 0001:00022fe0       ??R<lambda_cfae5a0e6efa98e0d1aa03c4cec8f74e>@@QEBA@D@Z 0000000140023fe0 f   libucrtd:argv_wildcards.obj
 0001:000232f0       ?append@?$argument_list@D@?A0x5f5c8891@@QEAAHQEAD@Z 00000001400242f0 f   libucrtd:argv_wildcards.obj
 0001:00023430       ?end@?$argument_list@D@?A0x5f5c8891@@QEBAPEAPEADXZ 0000000140024430 f   libucrtd:argv_wildcards.obj
 0001:00023440       ?expand_if_necessary@?$argument_list@D@?A0x5f5c8891@@AEAAHXZ 0000000140024440 f   libucrtd:argv_wildcards.obj
 0001:00023620       ?get_file_name@@YAPEADQEAV?$__crt_win32_buffer@DU__crt_win32_buffer_internal_dynamic_resizing@@@@QEA_W@Z 0000000140024620 f   libucrtd:argv_wildcards.obj
 0001:00023670       ?get_wide@@YAPEA_WQEAV?$__crt_win32_buffer@_WU__crt_win32_buffer_internal_dynamic_resizing@@@@QEAD@Z 0000000140024670 f   libucrtd:argv_wildcards.obj
 0001:000236c0       ?previous_character@@YAPEADQEAD0@Z 00000001400246c0 f   libucrtd:argv_wildcards.obj
 0001:00023750       ?size@?$argument_list@D@?A0x5f5c8891@@QEBA_KXZ 0000000140024750 f   libucrtd:argv_wildcards.obj
 0001:00023cb0       ??$?RV<lambda_efa02eb69bf647d2f7ff0dd6f1103f72>@@AEAV<lambda_bd5a608237428601b7e45fbdc72b1ae8>@@V<lambda_728235dc0fc2b1f82d1fa5b3e7102d8f>@@@?$__crt_seh_guarded_call@X@@QEAAX$$QEAV<lambda_efa02eb69bf647d2f7ff0dd6f1103f72>@@AEAV<lambda_bd5a608237428601b7e45fbdc72b1ae8>@@$$QEAV<lambda_728235dc0fc2b1f82d1fa5b3e7102d8f>@@@Z 0000000140024cb0 f   libucrtd:mbctype.obj
 0001:00023cf0       ??$__acrt_lock_and_call@V<lambda_bd5a608237428601b7e45fbdc72b1ae8>@@@@YAXW4__acrt_lock_id@@$$QEAV<lambda_bd5a608237428601b7e45fbdc72b1ae8>@@@Z 0000000140024cf0 f   libucrtd:mbctype.obj
 0001:00023e30       ??R<lambda_bd5a608237428601b7e45fbdc72b1ae8>@@QEBA@XZ 0000000140024e30 f   libucrtd:mbctype.obj
 0001:00023f60       ?CPtoLocaleName@@YAPEB_WH@Z 0000000140024f60 f   libucrtd:mbctype.obj
 0001:00024000       ?getSystemCP@@YAHH@Z       0000000140025000 f   libucrtd:mbctype.obj
 0001:000240e0       ?setSBCS@@YAXPEAU__crt_multibyte_data@@@Z 00000001400250e0 f   libucrtd:mbctype.obj
 0001:000241e0       ?setSBUpLow@@YAXPEAU__crt_multibyte_data@@@Z 00000001400251e0 f   libucrtd:mbctype.obj
 0001:000245d0       ?setmbcp_internal@@YAHH_NQEAU__acrt_ptd@@QEAPEAU__crt_multibyte_data@@@Z 00000001400255d0 f   libucrtd:mbctype.obj
 0001:00024850       ?update_thread_multibyte_data_internal@@YAPEAU__crt_multibyte_data@@QEAU__acrt_ptd@@QEAPEAU1@@Z 0000000140025850 f   libucrtd:mbctype.obj
 0001:00024fa0       memcpy_s                   0000000140025fa0 f   libucrtd:cfout.obj
 0001:00024fa0       memcpy_s                   0000000140025fa0 f   libucrtd:mbctype.obj
 0001:000250e0       ?x_ismbbtype_l@@YAHPEAU__crt_locale_pointers@@IHH@Z 00000001400260e0 f   libucrtd:ismbbyte.obj
 0001:00025200       ?filter_mbtowcs_flags@@YAKIK@Z 0000000140026200 f   libucrtd:multibytetowidechar.obj
 0001:000252ec       $LN32                      00000001400262ec     libucrtd:multibytetowidechar.obj
 0001:00025370       ?filter_wcstomb_flags@@YAKIK@Z 0000000140026370 f   libucrtd:widechartomultibyte.obj
 0001:0002545c       $LN32                      000000014002645c     libucrtd:widechartomultibyte.obj
 0001:000255b0       ??1?$__crt_unique_handle_t@Uenvironment_strings_traits@?A0x1bf47908@@@@QEAA@XZ 00000001400265b0 f   libucrtd:get_environment_from_os.obj
 0001:000255d0       ?close@?$__crt_unique_handle_t@Uenvironment_strings_traits@?A0x1bf47908@@@@QEAAXXZ 00000001400265d0 f   libucrtd:get_environment_from_os.obj
 0001:00025610       ?close@environment_strings_traits@?A0x1bf47908@@SA_NPEA_W@Z 0000000140026610 f   libucrtd:get_environment_from_os.obj
 0001:00025630       ?find_end_of_double_null_terminated_sequence@@YAPEB_WQEB_W@Z 0000000140026630 f   libucrtd:get_environment_from_os.obj
 0001:00025680       ?is_valid@?$__crt_unique_handle_t@Uenvironment_strings_traits@?A0x1bf47908@@@@QEBA_NXZ 0000000140026680 f   libucrtd:get_environment_from_os.obj
 0001:00025aa0       ??$get_cached_win_policy@Udeveloper_information_policy_properties@?1??__acrt_get_developer_information_policy@@YA?AW4developer_information_policy@@XZ@@@YA?AW4developer_information_policy@@W4AppPolicyShowDeveloperDiagnostic@@@Z 0000000140026aa0 f   libucrtd:win_policies.obj
 0001:00025b60       ??$get_cached_win_policy@Uwindowing_model_policy_properties@?1??__acrt_get_windowing_model_policy@@YA?AW4windowing_model_policy@@XZ@@@YA?AW4windowing_model_policy@@W4AppPolicyWindowingModel@@@Z 0000000140026b60 f   libucrtd:win_policies.obj
 0001:00025c20       ??$get_win_policy@Uprocess_end_policy_properties@?1??__acrt_get_process_end_policy@@YA?AW4process_end_policy@@XZ@@@YA?AW4process_end_policy@@W4AppPolicyProcessTerminationMethod@@@Z 0000000140026c20 f   libucrtd:win_policies.obj
 0001:00025c60       ?appmodel_get_policy@developer_information_policy_properties@?1??__acrt_get_developer_information_policy@@YA?AW4developer_information_policy@@XZ@SAJPEAW4AppPolicyShowDeveloperDiagnostic@@@Z 0000000140026c60 f   libucrtd:win_policies.obj
 0001:00025c80       ?appmodel_get_policy@process_end_policy_properties@?1??__acrt_get_process_end_policy@@YA?AW4process_end_policy@@XZ@SAJPEAW4AppPolicyProcessTerminationMethod@@@Z 0000000140026c80 f   libucrtd:win_policies.obj
 0001:00025ca0       ?appmodel_get_policy@windowing_model_policy_properties@?1??__acrt_get_windowing_model_policy@@YA?AW4windowing_model_policy@@XZ@SAJPEAW4AppPolicyWindowingModel@@@Z 0000000140026ca0 f   libucrtd:win_policies.obj
 0001:00025cc0       ?appmodel_policy_to_policy_type@developer_information_policy_properties@?1??__acrt_get_developer_information_policy@@YA?AW4developer_information_policy@@XZ@SA?AW43@J@Z 0000000140026cc0 f   libucrtd:win_policies.obj
 0001:00025ce0       ?appmodel_policy_to_policy_type@process_end_policy_properties@?1??__acrt_get_process_end_policy@@YA?AW4process_end_policy@@XZ@SA?AW43@W4AppPolicyProcessTerminationMethod@@@Z 0000000140026ce0 f   libucrtd:win_policies.obj
 0001:00025d00       ?appmodel_policy_to_policy_type@windowing_model_policy_properties@?1??__acrt_get_windowing_model_policy@@YA?AW4windowing_model_policy@@XZ@SA?AW43@J@Z 0000000140026d00 f   libucrtd:win_policies.obj
 0001:00026550       ?get_std_handle_id@@YAKH@Z 0000000140027550 f   libucrtd:ioinit.obj
 0001:000265a0       ?initialize_inherited_file_handles_nolock@@YAXXZ 00000001400275a0 f   libucrtd:ioinit.obj
 0001:00026750       ?initialize_stdio_handles_nolock@@YAXXZ 0000000140027750 f   libucrtd:ioinit.obj
 0001:00026cb0       ??$free_crt_array@D$01@@YAXAEAY01PEAD@Z 0000000140027cb0 f   libucrtd:inittime.obj
 0001:00026cb0       ??$free_crt_array@_W$01@@YAXAEAY01PEA_W@Z 0000000140027cb0 f   libucrtd:inittime.obj
 0001:00026cd0       ??$free_crt_array@D$06@@YAXAEAY06PEAD@Z 0000000140027cd0 f   libucrtd:inittime.obj
 0001:00026cd0       ??$free_crt_array@_W$06@@YAXAEAY06PEA_W@Z 0000000140027cd0 f   libucrtd:inittime.obj
 0001:00026cf0       ??$free_crt_array@D$0M@@@YAXAEAY0M@PEAD@Z 0000000140027cf0 f   libucrtd:inittime.obj
 0001:00026cf0       ??$free_crt_array@_W$0M@@@YAXAEAY0M@PEA_W@Z 0000000140027cf0 f   libucrtd:inittime.obj
 0001:00026d10       ?free_crt_array_internal@@YAXQEAPEBX_K@Z 0000000140027d10 f   libucrtd:inittime.obj
 0001:00027df0       ?try_get_AppPolicyGetProcessTerminationMethod@@YAP6AJPEAXPEAW4AppPolicyProcessTerminationMethod@@@ZXZ 0000000140028df0 f   libucrtd:winapi_thunks.obj
 0001:00027e20       ?try_get_AppPolicyGetShowDeveloperDiagnostic@@YAP6AJPEAXPEAW4AppPolicyShowDeveloperDiagnostic@@@ZXZ 0000000140028e20 f   libucrtd:winapi_thunks.obj
 0001:00027e50       ?try_get_AppPolicyGetWindowingModel@@YAP6AJPEAXPEAW4AppPolicyWindowingModel@@@ZXZ 0000000140028e50 f   libucrtd:winapi_thunks.obj
 0001:00027e80       ?try_get_AreFileApisANSI@@YAP6AHXZXZ 0000000140028e80 f   libucrtd:winapi_thunks.obj
 0001:00027eb0       ?try_get_GetActiveWindow@@YAP6APEAUHWND__@@XZXZ 0000000140028eb0 f   libucrtd:winapi_thunks.obj
 0001:00027ee0       ?try_get_GetLastActivePopup@@YAP6APEAUHWND__@@PEAU1@@ZXZ 0000000140028ee0 f   libucrtd:winapi_thunks.obj
 0001:00027f10       ?try_get_GetProcessWindowStation@@YAP6APEAUHWINSTA__@@XZXZ 0000000140028f10 f   libucrtd:winapi_thunks.obj
 0001:00027f40       ?try_get_GetUserObjectInformationW@@YAP6AHPEAXH0KPEAK@ZXZ 0000000140028f40 f   libucrtd:winapi_thunks.obj
 0001:00027f70       ?try_get_InitializeCriticalSectionEx@@YAP6AHPEAU_RTL_CRITICAL_SECTION@@KK@ZXZ 0000000140028f70 f   libucrtd:winapi_thunks.obj
 0001:00027fa0       ?try_get_LCMapStringEx@@YAP6AHPEB_WK0HPEA_WHPEAU_nlsversioninfo@@PEAX_J@ZXZ 0000000140028fa0 f   libucrtd:winapi_thunks.obj
 0001:00027fd0       ?try_get_LocaleNameToLCID@@YAP6AKPEB_WK@ZXZ 0000000140028fd0 f   libucrtd:winapi_thunks.obj
 0001:00028000       ?try_get_MessageBoxA@@YAP6AHPEAUHWND__@@PEBD1I@ZXZ 0000000140029000 f   libucrtd:winapi_thunks.obj
 0001:00028030       ?try_get_MessageBoxW@@YAP6AHPEAUHWND__@@PEB_W1I@ZXZ 0000000140029030 f   libucrtd:winapi_thunks.obj
 0001:00028060       ?try_get_first_available_module@@YAPEAUHINSTANCE__@@QEBW4module_id@?A0x391cf84c@@0@Z 0000000140029060 f   libucrtd:winapi_thunks.obj
 0001:000280c0       ?try_get_function@@YAPEAXW4function_id@?A0x391cf84c@@QEBDQEBW4module_id@2@2@Z 00000001400290c0 f   libucrtd:winapi_thunks.obj
 0001:00028260       ?try_get_module@@YAPEAUHINSTANCE__@@W4module_id@?A0x391cf84c@@@Z 0000000140029260 f   libucrtd:winapi_thunks.obj
 0001:000283c0       ?try_get_proc_address_from_first_available_module@@YAPEAXQEBDQEBW4module_id@?A0x391cf84c@@1@Z 00000001400293c0 f   libucrtd:winapi_thunks.obj
 0001:00028410       ?try_load_library_from_system_directory@@YAPEAUHINSTANCE__@@QEB_W@Z 0000000140029410 f   libucrtd:winapi_thunks.obj
 0001:00028ee0       ??$?RV<lambda_450d765d439847d4c735a33c368b5fc0>@@AEAV<lambda_44731a7d0e6d81c3e6aa82d741081786>@@V<lambda_601a2a7da3b7a96e9554ac7215c4b07c>@@@?$__crt_seh_guarded_call@P6AXH@Z@@QEAAP6AXH@Z$$QEAV<lambda_450d765d439847d4c735a33c368b5fc0>@@AEAV<lambda_44731a7d0e6d81c3e6aa82d741081786>@@$$QEAV<lambda_601a2a7da3b7a96e9554ac7215c4b07c>@@@Z 0000000140029ee0 f   libucrtd:signal.obj
 0001:00028f30       ??$__acrt_lock_and_call@V<lambda_44731a7d0e6d81c3e6aa82d741081786>@@@@YAP6AXH@ZW4__acrt_lock_id@@$$QEAV<lambda_44731a7d0e6d81c3e6aa82d741081786>@@@Z 0000000140029f30 f   libucrtd:signal.obj
 0001:00028f90       ??R<lambda_44731a7d0e6d81c3e6aa82d741081786>@@QEBA@XZ 0000000140029f90 f   libucrtd:signal.obj
 0001:00028fc0       ?get_global_action_nolock@@YAPEAP6AXH@ZH@Z 0000000140029fc0 f   libucrtd:signal.obj
 0001:00029050       ?siglookup@@YAPEAU__crt_signal_action_t@@HQEAU1@@Z 000000014002a050 f   libucrtd:signal.obj
 0001:0002961c       $LN63                      000000014002a61c     libucrtd:signal.obj
 0001:00029780       ?select_heap@@YAPEAXQEAX@Z 000000014002a780 f   libucrtd:free_base.obj
 0001:000298a0       ?is_contraction_possible@@YA_N_K@Z 000000014002a8a0 f   libucrtd:expand.obj
 0001:00029da0       ?fe_to_nearest@@YA_NQEBN_KF@Z 000000014002ada0 f   libucrtd:cvt.obj
 0001:00029ef0       ?fp_format_a@@YAHQEBNPEAD_KQEAD2H_NIW4__acrt_rounding_mode@@AEAV__crt_cached_ptd_host@@@Z 000000014002aef0 f   libucrtd:cvt.obj
 0001:0002a740       ?fp_format_e@@YAHQEBNQEAD_K12H_NIW4__acrt_rounding_mode@@AEAV__crt_cached_ptd_host@@@Z 000000014002b740 f   libucrtd:cvt.obj
 0001:0002a920       ?fp_format_e_internal@@YAHQEAD_KH_NIQEAU_strflt@@2AEAV__crt_cached_ptd_host@@@Z 000000014002b920 f   libucrtd:cvt.obj
 0001:0002ad50       ?fp_format_f@@YAHQEBNQEAD_K12HW4__acrt_rounding_mode@@AEAV__crt_cached_ptd_host@@@Z 000000014002bd50 f   libucrtd:cvt.obj
 0001:0002aee0       ?fp_format_f_internal@@YAHQEAD_KHQEAU_strflt@@_NAEAV__crt_cached_ptd_host@@@Z 000000014002bee0 f   libucrtd:cvt.obj
 0001:0002b120       ?fp_format_g@@YAHQEBNQEAD_K12H_NIW4__acrt_rounding_mode@@AEAV__crt_cached_ptd_host@@@Z 000000014002c120 f   libucrtd:cvt.obj
 0001:0002b380       ?fp_format_nan_or_infinity@@YAHW4__acrt_fp_class@@_NPEAD_K1@Z 000000014002c380 f   libucrtd:cvt.obj
 0001:0002b4f0       ?shift_bytes@@YAXQEAD_K0H@Z 000000014002c4f0 f   libucrtd:cvt.obj
 0001:0002b540       ?should_round_up@@YA_NQEBN_KFW4__acrt_rounding_mode@@@Z 000000014002c540 f   libucrtd:cvt.obj
 0001:0002bd08       $LN46                      000000014002cd08     libucrtd:cvt.obj
 0001:0002bd2c       $LN45                      000000014002cd2c     libucrtd:cvt.obj
 0001:0002e310       ?shortsort@@YAXPEAD0_KP6AHPEBX2@Z@Z 000000014002f310 f   libucrtd:qsort.obj
 0001:0002e410       ?swap@@YAXPEAD0_K@Z        000000014002f410 f   libucrtd:qsort.obj
 0001:0002ec80       ??$common_tcsncpy_s@D@@YAHQEAD_KQEBD1@Z 000000014002fc80 f   libucrtd:strncpy_s.obj
 0001:0002f350       fallbackMethod             0000000140030350 f   libucrtd:strpbrk.obj
 0001:0002fcb4       $LN87                      0000000140030cb4     libucrtd:strpbrk.obj
 0001:0002fcf0       $LN86                      0000000140030cf0     libucrtd:strpbrk.obj
 0001:0002fd30       $LN85                      0000000140030d30     libucrtd:strpbrk.obj
 0001:00030030       ?__acrt_LCMapStringA_stat@@YAHPEAU__crt_locale_pointers@@PEB_WKPEBDHPEADHHH@Z 0000000140031030 f   libucrtd:lcmapstringa.obj
 0001:000306e0       ?initialize_multibyte@@YAHXZ 00000001400316e0 f   libucrtd:multibyte_initializer.obj
 0001:00030710       ??$common_xtox@KD@@YAHKQEAD_KI_N@Z 0000000140031710 f   libucrtd:xtoa.obj
 0001:00030950       ??$common_xtox@K_W@@YAHKQEA_W_KI_N@Z 0000000140031950 f   libucrtd:xtoa.obj
 0001:00030ba0       ??$common_xtox_s@KD@@YAHKQEAD_KI_N@Z 0000000140031ba0 f   libucrtd:xtoa.obj
 0001:00030f50       ??$common_xtox_s@K_W@@YAHKQEA_W_KI_N@Z 0000000140031f50 f   libucrtd:xtoa.obj
 0001:00031490       ?GetTableIndexFromLocaleName@@YAHPEB_W@Z 0000000140032490 f   libucrtd:lcidtoname_downlevel.obj
 0001:000316b0       ??$?RV<lambda_842d9ff0dc9ef11c61343bbaebe7f885>@@AEAV<lambda_c5860995281e5c4ce005b3de8f5874ee>@@V<lambda_d90129c13df834fdcbf8d2b88dafcf2d>@@@?$__crt_seh_guarded_call@X@@QEAAX$$QEAV<lambda_842d9ff0dc9ef11c61343bbaebe7f885>@@AEAV<lambda_c5860995281e5c4ce005b3de8f5874ee>@@$$QEAV<lambda_d90129c13df834fdcbf8d2b88dafcf2d>@@@Z 00000001400326b0 f   libucrtd:fflush.obj
 0001:000316f0       ??$?RV<lambda_886d6c58226a84441f68b9f2b8217b83>@@AEAV<lambda_ab61a845afdef5b7c387490eaf3616ee>@@V<lambda_f7f22ab5edc0698d5f6905b0d3f44752>@@@?$__crt_seh_guarded_call@X@@QEAAX$$QEAV<lambda_886d6c58226a84441f68b9f2b8217b83>@@AEAV<lambda_ab61a845afdef5b7c387490eaf3616ee>@@$$QEAV<lambda_f7f22ab5edc0698d5f6905b0d3f44752>@@@Z 00000001400326f0 f   libucrtd:fflush.obj
 0001:00031730       ??$__acrt_lock_and_call@V<lambda_ab61a845afdef5b7c387490eaf3616ee>@@@@YAXW4__acrt_lock_id@@$$QEAV<lambda_ab61a845afdef5b7c387490eaf3616ee>@@@Z 0000000140032730 f   libucrtd:fflush.obj
 0001:00031790       ??$__acrt_lock_stream_and_call@V<lambda_c5860995281e5c4ce005b3de8f5874ee>@@@@YAXQEAU_iobuf@@$$QEAV<lambda_c5860995281e5c4ce005b3de8f5874ee>@@@Z 0000000140032790 f   libucrtd:fflush.obj
 0001:000317f0       ??0<lambda_842d9ff0dc9ef11c61343bbaebe7f885>@@QEAA@AEBQEAU_iobuf@@@Z 00000001400327f0 f   libucrtd:fflush.obj
 0001:000317f0       ??0<lambda_d90129c13df834fdcbf8d2b88dafcf2d>@@QEAA@AEBQEAU_iobuf@@@Z 00000001400327f0 f   libucrtd:fflush.obj
 0001:00031810       ??0<lambda_c5860995281e5c4ce005b3de8f5874ee>@@QEAA@AEBV__crt_stdio_stream@@AEAHAEB_N1@Z 0000000140032810 f   libucrtd:fflush.obj
 0001:00031870       ??R<lambda_842d9ff0dc9ef11c61343bbaebe7f885>@@QEBA@XZ 0000000140032870 f   libucrtd:fflush.obj
 0001:00031890       ??R<lambda_ab61a845afdef5b7c387490eaf3616ee>@@QEBA@XZ 0000000140032890 f   libucrtd:fflush.obj
 0001:00031980       ??R<lambda_c5860995281e5c4ce005b3de8f5874ee>@@QEBA@XZ 0000000140032980 f   libucrtd:fflush.obj
 0001:00031a30       ??R<lambda_d90129c13df834fdcbf8d2b88dafcf2d>@@QEBA@XZ 0000000140032a30 f   libucrtd:fflush.obj
 0001:00031aa0       ?_fflush_nolock_internal@@YAHQEAU_iobuf@@AEAV__crt_cached_ptd_host@@@Z 0000000140032aa0 f   libucrtd:fflush.obj
 0001:00031b40       ?common_flush_all@@YAH_N@Z 0000000140032b40 f   libucrtd:fflush.obj
 0001:00031bb0       ?common_flush_all_should_try_to_flush_stream@@YA_NV__crt_stdio_stream@@QEAH@Z 0000000140032bb0 f   libucrtd:fflush.obj
 0001:00031c60       ?is_stream_allocated@@YA_NJ@Z 0000000140032c60 f   libucrtd:fflush.obj
 0001:00031c90       ?is_stream_flushable@@YA_NJ@Z 0000000140032c90 f   libucrtd:fflush.obj
 0001:00031cc0       ?is_stream_flushable_or_commitable@@YA_NJ@Z 0000000140032cc0 f   libucrtd:fflush.obj
 0001:00031f10       ?check_trailing@@YA_NPEBDW4__acrt_has_trailing_digits@@@Z 0000000140032f10 f   libucrtd:_fptostr.obj
 0001:00031f60       ?should_round_up@@YA_NQEBD0HW4__acrt_has_trailing_digits@@W4__acrt_rounding_mode@@@Z 0000000140032f60 f   libucrtd:_fptostr.obj
 0001:00032610       ??$convert_to_fos_high_precision@N@@YA?AW4__acrt_has_trailing_digits@@NIW4__acrt_precision_style@@QEAHQEAD_K@Z 0000000140033610 f   libucrtd:cfout.obj
 0001:00032d30       ??0fp_control_word_guard@?A0x71ca7cfb@@QEAA@II@Z 0000000140033d30 f   libucrtd:cfout.obj
 0001:00032d90       ??0scoped_fp_state_reset@?A0x71ca7cfb@@QEAA@XZ 0000000140033d90 f   libucrtd:cfout.obj
 0001:00032de0       ??1fp_control_word_guard@?A0x71ca7cfb@@QEAA@XZ 0000000140033de0 f   libucrtd:cfout.obj
 0001:00032e10       ??1scoped_fp_state_reset@?A0x71ca7cfb@@QEAA@XZ 0000000140033e10 f   libucrtd:cfout.obj
 0001:00034c30       ??R<lambda_599026849492e2a71b24cce8b46aab16>@@QEBA_KPEBD@Z 0000000140035c30 f   libucrtd:mbrtowc.obj
 0001:000352c0       ?_mbstowcs_internal@@YAHPEA_KPEA_W_KPEBD2AEAV__crt_cached_ptd_host@@@Z 00000001400362c0 f   libucrtd:mbstowcs.obj
 0001:000358a0       ?_mbstowcs_l_helper@@YA_KPEA_WPEBD_KAEAV__crt_cached_ptd_host@@@Z 00000001400368a0 f   libucrtd:mbstowcs.obj
 0001:00035e50       ?_wcstombs_internal@@YAHPEA_KPEAD_KPEB_W2AEAV__crt_cached_ptd_host@@@Z 0000000140036e50 f   libucrtd:wcstombs.obj
 0001:00036420       ?_wcstombs_l_helper@@YA_KPEADPEB_W_KAEAV__crt_cached_ptd_host@@@Z 0000000140037420 f   libucrtd:wcstombs.obj
 0001:00036bb0       ?wcsncnt@@YA_KPEB_W_K@Z    0000000140037bb0 f   libucrtd:wcstombs.obj
 0001:00036cc0       ??$common_tcscat_s@D@@YAHQEAD_KQEBD@Z 0000000140037cc0 f   libucrtd:strcat_s.obj
 0001:000373c0       ??$?RV<lambda_7d29013d608e9f25a034de83c9b9e983>@@AEAV<lambda_3e4146214822e0ea86c47ff907aef2ff>@@V<lambda_b869e5a4e1069fcb5c3da79c0d999133>@@@?$__crt_seh_guarded_call@H@@QEAAH$$QEAV<lambda_7d29013d608e9f25a034de83c9b9e983>@@AEAV<lambda_3e4146214822e0ea86c47ff907aef2ff>@@$$QEAV<lambda_b869e5a4e1069fcb5c3da79c0d999133>@@@Z 00000001400383c0 f   libucrtd:commit.obj
 0001:00037410       ??$__acrt_lowio_lock_fh_and_call@V<lambda_3e4146214822e0ea86c47ff907aef2ff>@@@@YAHH$$QEAV<lambda_3e4146214822e0ea86c47ff907aef2ff>@@@Z 0000000140038410 f   libucrtd:commit.obj
 0001:00037470       ??R<lambda_3e4146214822e0ea86c47ff907aef2ff>@@QEBA@XZ 0000000140038470 f   libucrtd:commit.obj
 0001:00037540       ??R<lambda_19eaff14c5fe7be5b1b106a862eb1091>@@QEBA@XZ 0000000140038540 f   libucrtd:close.obj
 0001:00037540       ??R<lambda_7d29013d608e9f25a034de83c9b9e983>@@QEBA@XZ 0000000140038540 f   libucrtd:commit.obj
 0001:00037560       ??R<lambda_3ce37f5b621ab310299ea5f68cbdf3bb>@@QEBA@XZ 0000000140038560 f   libucrtd:close.obj
 0001:00037560       ??R<lambda_b869e5a4e1069fcb5c3da79c0d999133>@@QEBA@XZ 0000000140038560 f   libucrtd:commit.obj
 0001:00037760       ?write_binary_nolock@@YA?AUwrite_result@?A0x17268360@@HQEBDI@Z 0000000140038760 f   libucrtd:write.obj
 0001:00037830       ?write_double_translated_ansi_nolock@@YA?AUwrite_result@?A0x17268360@@HQEBDIAEAV__crt_cached_ptd_host@@@Z 0000000140038830 f   libucrtd:write.obj
 0001:00038590       ?write_double_translated_unicode_nolock@@YA?AUwrite_result@?A0x17268360@@QEBDI@Z 0000000140039590 f   libucrtd:write.obj
 0001:000386f0       ?write_requires_double_translation_nolock@@YA_NHAEAV__crt_cached_ptd_host@@@Z 00000001400396f0 f   libucrtd:write.obj
 0001:00038800       ?write_text_ansi_nolock@@YA?AUwrite_result@?A0x17268360@@HQEBDI@Z 0000000140039800 f   libucrtd:write.obj
 0001:00038a30       ?write_text_utf16le_nolock@@YA?AUwrite_result@?A0x17268360@@HQEBDI@Z 0000000140039a30 f   libucrtd:write.obj
 0001:00038c80       ?write_text_utf8_nolock@@YA?AUwrite_result@?A0x17268360@@HQEBDI@Z 0000000140039c80 f   libucrtd:write.obj
 0001:00039a00       $$000000                   000000014003aa00     libucrtd:log10.obj
 0001:0003a540       ??$to_abstract_status@W4__acrt_fenv_machine_sse_status@@@@YA?AW4__acrt_fenv_abstract_status@@W4__acrt_fenv_machine_sse_status@@@Z 000000014003b540 f   libucrtd:_fenvutils.obj
 0001:0003a560       ??$translate_control_exception_mask@W4__acrt_fenv_abstract_control@@W4__acrt_fenv_machine_sse_control@@@@YA?AW4__acrt_fenv_abstract_control@@W4__acrt_fenv_machine_sse_control@@@Z 000000014003b560 f   libucrtd:_fenvutils.obj
 0001:0003a650       ??$translate_control_exception_mask@W4__acrt_fenv_machine_sse_control@@W4__acrt_fenv_abstract_control@@@@YA?AW4__acrt_fenv_machine_sse_control@@W4__acrt_fenv_abstract_control@@@Z 000000014003b650 f   libucrtd:_fenvutils.obj
 0001:0003a740       ??$translate_control_rounding_control@W4__acrt_fenv_abstract_control@@W4__acrt_fenv_machine_sse_control@@@@YA?AW4__acrt_fenv_abstract_control@@W4__acrt_fenv_machine_sse_control@@@Z 000000014003b740 f   libucrtd:_fenvutils.obj
 0001:0003a7b0       ??$translate_control_rounding_control@W4__acrt_fenv_machine_sse_control@@W4__acrt_fenv_abstract_control@@@@YA?AW4__acrt_fenv_machine_sse_control@@W4__acrt_fenv_abstract_control@@@Z 000000014003b7b0 f   libucrtd:_fenvutils.obj
 0001:0003a820       ??$translate_status@W4__acrt_fenv_abstract_status@@W4__acrt_fenv_machine_sse_status@@@@YA?AW4__acrt_fenv_abstract_status@@W4__acrt_fenv_machine_sse_status@@@Z 000000014003b820 f   libucrtd:_fenvutils.obj
 0001:0003a910       ??$translate_status@W4__acrt_fenv_machine_sse_status@@W4__acrt_fenv_abstract_status@@@@YA?AW4__acrt_fenv_machine_sse_status@@W4__acrt_fenv_abstract_status@@@Z 000000014003b910 f   libucrtd:_fenvutils.obj
 0001:0003abe0       ?get_machine_sse_control@@YA?AW4__acrt_fenv_machine_sse_control@@XZ 000000014003bbe0 f   libucrtd:_fenvutils.obj
 0001:0003ac00       ?get_machine_sse_status@@YA?AW4__acrt_fenv_machine_sse_status@@XZ 000000014003bc00 f   libucrtd:_fenvutils.obj
 0001:0003ac20       ?set_machine_sse_control@@YAXW4__acrt_fenv_machine_sse_control@@@Z 000000014003bc20 f   libucrtd:_fenvutils.obj
 0001:0003ac80       ?set_machine_sse_status@@YAXW4__acrt_fenv_machine_sse_status@@@Z 000000014003bc80 f   libucrtd:_fenvutils.obj
 0001:0003acd0       ?to_abstract_control@@YA?AW4__acrt_fenv_abstract_control@@W4__acrt_fenv_machine_sse_control@@@Z 000000014003bcd0 f   libucrtd:_fenvutils.obj
 0001:0003ad30       ?to_machine_sse_control@@YA?AW4__acrt_fenv_machine_sse_control@@W4__acrt_fenv_abstract_control@@@Z 000000014003bd30 f   libucrtd:_fenvutils.obj
 0001:0003ada0       ?to_machine_sse_status@@YA?AW4__acrt_fenv_machine_sse_status@@W4__acrt_fenv_abstract_status@@@Z 000000014003bda0 f   libucrtd:_fenvutils.obj
 0001:0003adc0       ?translate_control_denormal_control_from_sse@@YA?AW4__acrt_fenv_abstract_control@@W4__acrt_fenv_machine_sse_control@@@Z 000000014003bdc0 f   libucrtd:_fenvutils.obj
 0001:0003ae40       ?translate_control_denormal_control_to_sse@@YA?AW4__acrt_fenv_machine_sse_control@@W4__acrt_fenv_abstract_control@@@Z 000000014003be40 f   libucrtd:_fenvutils.obj
 0001:0003b400       ?_fclose_internal@@YAHQEAU_iobuf@@AEAV__crt_cached_ptd_host@@@Z 000000014003c400 f   libucrtd:fclose.obj
 0001:0003b560       ?_fclose_nolock_internal@@YAHQEAU_iobuf@@AEAV__crt_cached_ptd_host@@@Z 000000014003c560 f   libucrtd:fclose.obj
 0001:0003b750       ??$common_lseek_nolock@_J@@YA_JH_JHAEAV__crt_cached_ptd_host@@@Z 000000014003c750 f   libucrtd:lseek.obj
 0001:0003b880       ?common_lseek_do_seek_nolock@@YA_JQEAX_JHAEAV__crt_cached_ptd_host@@@Z 000000014003c880 f   libucrtd:lseek.obj
 0001:0003bcf0       _log_special_common        000000014003ccf0 f   libucrtd:log_special.obj
 0001:0003be10       _call_matherr              000000014003ce10 f   libucrtd:libm_error.obj
 0001:0003bea0       _exception_enabled         000000014003cea0 f   libucrtd:libm_error.obj
 0001:0003c1c0       _abstract_cw               000000014003d1c0 f   libucrtd:ieee.obj
 0001:0003c310       _abstract_sw               000000014003d310 f   libucrtd:ieee.obj
 0001:0003c3f0       _hw_cw                     000000014003d3f0 f   libucrtd:ieee.obj
 0001:0003c540       common_control87           000000014003d540 f   libucrtd:ieee.obj
 0001:0003c660       ??$?RV<lambda_19eaff14c5fe7be5b1b106a862eb1091>@@AEAV<lambda_af29824b49a67d335554598d6cad2be6>@@V<lambda_3ce37f5b621ab310299ea5f68cbdf3bb>@@@?$__crt_seh_guarded_call@H@@QEAAH$$QEAV<lambda_19eaff14c5fe7be5b1b106a862eb1091>@@AEAV<lambda_af29824b49a67d335554598d6cad2be6>@@$$QEAV<lambda_3ce37f5b621ab310299ea5f68cbdf3bb>@@@Z 000000014003d660 f   libucrtd:close.obj
 0001:0003c6b0       ??$__acrt_lowio_lock_fh_and_call@V<lambda_af29824b49a67d335554598d6cad2be6>@@@@YAHH$$QEAV<lambda_af29824b49a67d335554598d6cad2be6>@@@Z 000000014003d6b0 f   libucrtd:close.obj
 0001:0003c710       ??R<lambda_af29824b49a67d335554598d6cad2be6>@@QEBA@XZ 000000014003d710 f   libucrtd:close.obj
 0001:0003c7e0       ?close_os_handle_nolock@@YAKH@Z 000000014003d7e0 f   libucrtd:close.obj
 0001:0003cde0       ?combine_second_surrogate@?A0xc60ee810@@YA_U_SPEAU_Mbstatet@@@Z 000000014003dde0 f   libucrtd:c16rtomb.obj
 0001:0003ce00       ?has_surrogate@?A0xc60ee810@@YA_NPEAU_Mbstatet@@@Z 000000014003de00 f   libucrtd:c16rtomb.obj
 0001:0003ce30       ?is_first_surrogate@?A0xc60ee810@@YA_N_S@Z 000000014003de30 f   libucrtd:c16rtomb.obj
 0001:0003ce70       ?is_second_surrogate@?A0xc60ee810@@YA_N_S@Z 000000014003de70 f   libucrtd:c16rtomb.obj
 0001:0003ceb0       ?store_first_surrogate@?A0xc60ee810@@YAX_SPEAU_Mbstatet@@@Z 000000014003deb0 f   libucrtd:c16rtomb.obj
 0001:0003cef0       ??$console_output_reopen_and_retry@V<lambda_61c1b8a38cedca4df5fdc542e6ccae6d>@@@@YAHAEBV<lambda_61c1b8a38cedca4df5fdc542e6ccae6d>@@@Z 000000014003def0 f   libucrtd:initcon.obj
 0001:0003cf50       ??0<lambda_61c1b8a38cedca4df5fdc542e6ccae6d>@@QEAA@AEBQEBXAEBKAEBQEAK@Z 000000014003df50 f   libucrtd:initcon.obj
 0001:0003cfa0       ??R<lambda_61c1b8a38cedca4df5fdc542e6ccae6d>@@QEBA@XZ 000000014003dfa0 f   libucrtd:initcon.obj
 0001:0003cfe0       ?__dcrt_lowio_initialize_console_output@@YAXXZ 000000014003dfe0 f   libucrtd:initcon.obj
 0001:0003d950       $$000000                   000000014003e950     libucrtd:fpsr.obj
 0001:0003e240       $$000000                   000000014003f240     LIBCMTD:guard_dispatch.obj
 0001:0003e260       $$000000                   000000014003f260     LIBCMTD:guard_xfg_dispatch.obj
 0001:0003e2a0       $$000000                   000000014003f2a0     libvcruntimed:memcpy.obj
 0001:0003e2b0       $$000000                   000000014003f2b0     libvcruntimed:memcpy.obj
 0001:0003e2de       MoveSmall0                 000000014003f2de     libvcruntimed:memcpy.obj
 0001:0003e2e0       MoveSmall15                000000014003f2e0     libvcruntimed:memcpy.obj
 0001:0003e300       MoveSmall11                000000014003f300     libvcruntimed:memcpy.obj
 0001:0003e318       MoveSmall2                 000000014003f318     libvcruntimed:memcpy.obj
 0001:0003e320       MoveSmall7                 000000014003f320     libvcruntimed:memcpy.obj
 0001:0003e338       MoveSmall14                000000014003f338     libvcruntimed:memcpy.obj
 0001:0003e34f       MoveSmall3                 000000014003f34f     libvcruntimed:memcpy.obj
 0001:0003e360       MoveSmall13                000000014003f360     libvcruntimed:memcpy.obj
 0001:0003e376       MoveSmall10                000000014003f376     libvcruntimed:memcpy.obj
 0001:0003e385       MoveSmall9                 000000014003f385     libvcruntimed:memcpy.obj
 0001:0003e393       MoveSmall12                000000014003f393     libvcruntimed:memcpy.obj
 0001:0003e3a0       MoveSmall6                 000000014003f3a0     libvcruntimed:memcpy.obj
 0001:0003e3af       MoveSmall5                 000000014003f3af     libvcruntimed:memcpy.obj
 0001:0003e3bd       MoveSmall8                 000000014003f3bd     libvcruntimed:memcpy.obj
 0001:0003e3c4       MoveSmall1                 000000014003f3c4     libvcruntimed:memcpy.obj
 0001:0003e3ca       MoveSmall4                 000000014003f3ca     libvcruntimed:memcpy.obj
 0001:0003e3d0       MoveAbove15                000000014003f3d0     libvcruntimed:memcpy.obj
 0001:0003e3ed       MoveAbove32                000000014003f3ed     libvcruntimed:memcpy.obj
 0001:0003e42d       MoveWithYMM                000000014003f42d     libvcruntimed:memcpy.obj
 0001:0003e480       YmmLoop                    000000014003f480     libvcruntimed:memcpy.obj
 0001:0003e508       MovUpTo256WithYMM          000000014003f508     libvcruntimed:memcpy.obj
 0001:0003e525       Mov8YmmBlocks              000000014003f525     libvcruntimed:memcpy.obj
 0001:0003e539       Mov7YmmBlocks              000000014003f539     libvcruntimed:memcpy.obj
 0001:0003e54d       Mov6YmmBlocks              000000014003f54d     libvcruntimed:memcpy.obj
 0001:0003e561       Mov5YmmBlocks              000000014003f561     libvcruntimed:memcpy.obj
 0001:0003e575       Mov4YmmBlocks              000000014003f575     libvcruntimed:memcpy.obj
 0001:0003e583       Mov3YmmBlocks              000000014003f583     libvcruntimed:memcpy.obj
 0001:0003e591       Mov2YmmBlocks              000000014003f591     libvcruntimed:memcpy.obj
 0001:0003e59f       Mov1YmmBlocks              000000014003f59f     libvcruntimed:memcpy.obj
 0001:0003e5a6       Mov0YmmBlocks              000000014003f5a6     libvcruntimed:memcpy.obj
 0001:0003e5b0       YmmLoopNT                  000000014003f5b0     libvcruntimed:memcpy.obj
 0001:0003e655       Mov8YmmBlocksNT            000000014003f655     libvcruntimed:memcpy.obj
 0001:0003e669       Mov7YmmBlocksNT            000000014003f669     libvcruntimed:memcpy.obj
 0001:0003e67d       Mov6YmmBlocksNT            000000014003f67d     libvcruntimed:memcpy.obj
 0001:0003e691       Mov5YmmBlocksNT            000000014003f691     libvcruntimed:memcpy.obj
 0001:0003e6a5       Mov4YmmBlocksNT            000000014003f6a5     libvcruntimed:memcpy.obj
 0001:0003e6b3       Mov3YmmBlocksNT            000000014003f6b3     libvcruntimed:memcpy.obj
 0001:0003e6c1       Mov2YmmBlocksNT            000000014003f6c1     libvcruntimed:memcpy.obj
 0001:0003e6cf       Mov1YmmBlocksNT            000000014003f6cf     libvcruntimed:memcpy.obj
 0001:0003e6d6       Mov0YmmBlocksNT            000000014003f6d6     libvcruntimed:memcpy.obj
 0001:0003e6f0       NoAVX                      000000014003f6f0     libvcruntimed:memcpy.obj
 0001:0003e706       MoveWithXMM                000000014003f706     libvcruntimed:memcpy.obj
 0001:0003e740       XmmLoop                    000000014003f740     libvcruntimed:memcpy.obj
 0001:0003e7ac       MovUpTo128WithXMM          000000014003f7ac     libvcruntimed:memcpy.obj
 0001:0003e7c9       Mov8XmmBlocks              000000014003f7c9     libvcruntimed:memcpy.obj
 0001:0003e7d7       Mov7XmmBlocks              000000014003f7d7     libvcruntimed:memcpy.obj
 0001:0003e7e5       Mov6XmmBlocks              000000014003f7e5     libvcruntimed:memcpy.obj
 0001:0003e7f3       Mov5XmmBlocks              000000014003f7f3     libvcruntimed:memcpy.obj
 0001:0003e801       Mov4XmmBlocks              000000014003f801     libvcruntimed:memcpy.obj
 0001:0003e80f       Mov3XmmBlocks              000000014003f80f     libvcruntimed:memcpy.obj
 0001:0003e81d       Mov2XmmBlocks              000000014003f81d     libvcruntimed:memcpy.obj
 0001:0003e82b       Mov1XmmBlocks              000000014003f82b     libvcruntimed:memcpy.obj
 0001:0003e832       Mov0XmmBlocks              000000014003f832     libvcruntimed:memcpy.obj
 0001:0003e840       CopyDown                   000000014003f840     libvcruntimed:memcpy.obj
 0001:0003e85b       XmmMovAlign                000000014003f85b     libvcruntimed:memcpy.obj
 0001:0003e873       XmmMovLargeTest            000000014003f873     libvcruntimed:memcpy.obj
 0001:0003e890       XmmMovLargeOuter           000000014003f890     libvcruntimed:memcpy.obj
 0001:0003e897       XmmMovLargeInner           000000014003f897     libvcruntimed:memcpy.obj
 0001:0003e8ed       XmmMovSmallTest            000000014003f8ed     libvcruntimed:memcpy.obj
 0001:0003e900       XmmMovSmallLoop            000000014003f900     libvcruntimed:memcpy.obj
 0001:0003e910       XmmMovTrailing             000000014003f910     libvcruntimed:memcpy.obj
 0001:0003e919       XmmMovReturn               000000014003f919     libvcruntimed:memcpy.obj
 0001:0003e940       $$000000                   000000014003f940     libvcruntimed:memset.obj
 0001:0003e950       $$000000                   000000014003f950     libvcruntimed:memset.obj
 0001:0003e991       SetSmall15                 000000014003f991     libvcruntimed:memset.obj
 0001:0003e995       SetSmall7                  000000014003f995     libvcruntimed:memset.obj
 0001:0003e999       SetSmall3                  000000014003f999     libvcruntimed:memset.obj
 0001:0003e99e       SetSmall1                  000000014003f99e     libvcruntimed:memset.obj
 0001:0003e9a2       SetSmall0                  000000014003f9a2     libvcruntimed:memset.obj
 0001:0003e9a3       SetSmall14                 000000014003f9a3     libvcruntimed:memset.obj
 0001:0003e9a7       SetSmall6                  000000014003f9a7     libvcruntimed:memset.obj
 0001:0003e9ab       SetSmall2                  000000014003f9ab     libvcruntimed:memset.obj
 0001:0003e9b0       MoveSmall0                 000000014003f9b0     libvcruntimed:memset.obj
 0001:0003e9c0       SetSmall13                 000000014003f9c0     libvcruntimed:memset.obj
 0001:0003e9c4       SetSmall5                  000000014003f9c4     libvcruntimed:memset.obj
 0001:0003e9d0       SetSmall12                 000000014003f9d0     libvcruntimed:memset.obj
 0001:0003e9d4       SetSmall4                  000000014003f9d4     libvcruntimed:memset.obj
 0001:0003e9d9       SetSmall11                 000000014003f9d9     libvcruntimed:memset.obj
 0001:0003e9e7       SetSmall9                  000000014003f9e7     libvcruntimed:memset.obj
 0001:0003e9f0       SetSmall10                 000000014003f9f0     libvcruntimed:memset.obj
 0001:0003e9fa       SetSmall8                  000000014003f9fa     libvcruntimed:memset.obj
 0001:0003ea00       SetAbove15                 000000014003fa00     libvcruntimed:memset.obj
 0001:0003ea16       SetAbove32                 000000014003fa16     libvcruntimed:memset.obj
 0001:0003ea42       SetWithYMM                 000000014003fa42     libvcruntimed:memset.obj
 0001:0003ea80       YmmLoop                    000000014003fa80     libvcruntimed:memset.obj
 0001:0003eaca       SetUpTo256WithYMM          000000014003faca     libvcruntimed:memset.obj
 0001:0003eae7       Set8YmmBlocks              000000014003fae7     libvcruntimed:memset.obj
 0001:0003eaf1       Set7YmmBlocks              000000014003faf1     libvcruntimed:memset.obj
 0001:0003eafb       Set6YmmBlocks              000000014003fafb     libvcruntimed:memset.obj
 0001:0003eb05       Set5YmmBlocks              000000014003fb05     libvcruntimed:memset.obj
 0001:0003eb0f       Set4YmmBlocks              000000014003fb0f     libvcruntimed:memset.obj
 0001:0003eb16       Set3YmmBlocks              000000014003fb16     libvcruntimed:memset.obj
 0001:0003eb1d       Set2YmmBlocks              000000014003fb1d     libvcruntimed:memset.obj
 0001:0003eb24       Set1YmmBlocks              000000014003fb24     libvcruntimed:memset.obj
 0001:0003eb2b       Set0YmmBlocks              000000014003fb2b     libvcruntimed:memset.obj
 0001:0003eb33       SetWithYMMNT               000000014003fb33     libvcruntimed:memset.obj
 0001:0003eb40       YmmLoopNT                  000000014003fb40     libvcruntimed:memset.obj
 0001:0003eba7       Set8YmmBlocksNT            000000014003fba7     libvcruntimed:memset.obj
 0001:0003ebb1       Set7YmmBlocksNT            000000014003fbb1     libvcruntimed:memset.obj
 0001:0003ebbb       Set6YmmBlocksNT            000000014003fbbb     libvcruntimed:memset.obj
 0001:0003ebc5       Set5YmmBlocksNT            000000014003fbc5     libvcruntimed:memset.obj
 0001:0003ebcf       Set4YmmBlocksNT            000000014003fbcf     libvcruntimed:memset.obj
 0001:0003ebd6       Set3YmmBlocksNT            000000014003fbd6     libvcruntimed:memset.obj
 0001:0003ebdd       Set2YmmBlocksNT            000000014003fbdd     libvcruntimed:memset.obj
 0001:0003ebe4       Set1YmmBlocksNT            000000014003fbe4     libvcruntimed:memset.obj
 0001:0003ebeb       Set0YmmBlocksNT            000000014003fbeb     libvcruntimed:memset.obj
 0001:0003ec00       NoAVX                      000000014003fc00     libvcruntimed:memset.obj
 0001:0003ec16       SetWithXMM                 000000014003fc16     libvcruntimed:memset.obj
 0001:0003ec40       XmmLoop                    000000014003fc40     libvcruntimed:memset.obj
 0001:0003ec7e       SetUpTo128WithXMM          000000014003fc7e     libvcruntimed:memset.obj
 0001:0003ec9b       Set8XmmBlocks              000000014003fc9b     libvcruntimed:memset.obj
 0001:0003eca2       Set7XmmBlocks              000000014003fca2     libvcruntimed:memset.obj
 0001:0003eca9       Set6XmmBlocks              000000014003fca9     libvcruntimed:memset.obj
 0001:0003ecb0       Set5XmmBlocks              000000014003fcb0     libvcruntimed:memset.obj
 0001:0003ecb7       Set4XmmBlocks              000000014003fcb7     libvcruntimed:memset.obj
 0001:0003ecbe       Set3XmmBlocks              000000014003fcbe     libvcruntimed:memset.obj
 0001:0003ecc5       Set2XmmBlocks              000000014003fcc5     libvcruntimed:memset.obj
 0001:0003eccc       Set1XmmBlocks              000000014003fccc     libvcruntimed:memset.obj
 0001:0003ecd3       Set0XmmBlocks              000000014003fcd3     libvcruntimed:memset.obj
 0001:0003ecf0       ?filt$0@?0??__scrt_common_main_seh@@YAHXZ@4HA 000000014003fcf0 f   LIBCMTD:exe_winmain.obj
 0001:0003ed20       __scrt_is_nonwritable_in_current_image$filt$0 000000014003fd20 f   LIBCMTD:utility.obj
 0001:0003ed60       __DestructExceptionObject$filt$0 000000014003fd60 f   libvcruntimed:ehhelpers.obj
 0001:0003ed90       ?filt$0@?0???$_CallSETranslator@V__FrameHandler3@@@@YAHPEAUEHExceptionRecord@@PEA_KPEAU_CONTEXT@@PEAU_xDISPATCHER_CONTEXT@@PEBU_s_FuncInfo@@K1H@Z@4HA 000000014003fd90 f   libvcruntimed:risctrnsctrl.obj
 0001:0003ee00       ?filt$0@?0??is_bad_read_pointer@@YA_NQEBX_K@Z@4HA 000000014003fe00 f   libucrtd:debug_heap.obj
 0001:0003ee00       terminate$filt$0           000000014003fe00 f   libucrtd:terminate.obj
 0001:0003ee00       ?filt$0@?0???$BuildCatchObjectHelperInternal@V__FrameHandler3@@@@YAHPEAUEHExceptionRecord@@PEAXPEBU_s_HandlerType@@PEBU_s_CatchableType@@@Z@4HA 000000014003fe00 f   libvcruntimed:frame.obj
 0001:0003ee00       ?filt$0@?0???$BuildCatchObjectInternal@V__FrameHandler3@@@@YAXPEAUEHExceptionRecord@@PEAXPEBU_s_HandlerType@@PEBU_s_CatchableType@@@Z@4HA 000000014003fe00 f   libvcruntimed:frame.obj
 0001:0003ee20       ?filt$0@?0??CxxCallCatchBlock@__FrameHandler3@@SAPEAXPEAU_EXCEPTION_RECORD@@@Z@4HA 000000014003fe20 f   libvcruntimed:frame.obj
 0001:0003ee49       ?fin$1@?0??CxxCallCatchBlock@__FrameHandler3@@SAPEAXPEAU_EXCEPTION_RECORD@@@Z@4HA 000000014003fe49 f   libvcruntimed:frame.obj
 0001:0003eef0       ?filt$0@?0??FrameUnwindToState@__FrameHandler3@@SAXPEA_KPEAU_xDISPATCHER_CONTEXT@@PEBU_s_FuncInfo@@H@Z@4HA 000000014003fef0 f   libvcruntimed:frame.obj
 0001:0003ef11       ?fin$1@?0??FrameUnwindToState@__FrameHandler3@@SAXPEA_KPEAU_xDISPATCHER_CONTEXT@@PEBU_s_FuncInfo@@H@Z@4HA 000000014003ff11 f   libvcruntimed:frame.obj
 0001:0003ef50       ?fin$0@?0???$?RV<lambda_0ae27a3a962d80f24befdcbee591983d>@@AEAV<lambda_8d0ee55de4b1038c4002e0adecdf1839>@@V<lambda_dc504788e8f1664fe9b84e20bfb512f2>@@@?$__crt_seh_guarded_call@X@@QEAAX$$QEAV<lambda_0ae27a3a962d80f24befdcbee591983d>@@AEAV<lambda_8d0ee55de4b1038c4002e0adecdf1839>@@$$QEAV<lambda_dc504788e8f1664fe9b84e20bfb512f2>@@@Z@4HA 000000014003ff50 f   libucrtd:per_thread_data.obj
 0001:0003ef50       ?fin$0@?0???$?RV<lambda_2d41944a1d46af3157314b8a01080d33>@@AEAV<lambda_8f455de75cd7d7f24b4096f044d8b9e6>@@V<lambda_aa500f224e6afead328df44964fe2772>@@@?$__crt_seh_guarded_call@X@@QEAAX$$QEAV<lambda_2d41944a1d46af3157314b8a01080d33>@@AEAV<lambda_8f455de75cd7d7f24b4096f044d8b9e6>@@$$QEAV<lambda_aa500f224e6afead328df44964fe2772>@@@Z@4HA 000000014003ff50 f   libucrtd:per_thread_data.obj
 0001:0003ef50       ?fin$0@?0???$?RV<lambda_74a0ef281e44d15e1136f792f539efb3>@@AEAV<lambda_e157831efee4ea0afb0a2ace5dd5fd0d>@@V<lambda_04ddeca75b7c13fd67716e8dfcef87ee>@@@?$__crt_seh_guarded_call@X@@QEAAX$$QEAV<lambda_74a0ef281e44d15e1136f792f539efb3>@@AEAV<lambda_e157831efee4ea0afb0a2ace5dd5fd0d>@@$$QEAV<lambda_04ddeca75b7c13fd67716e8dfcef87ee>@@@Z@4HA 000000014003ff50 f   libucrtd:per_thread_data.obj
 0001:0003ef50       ?fin$0@?0???$?RV<lambda_aa87e3671a710a21b5dc78c0bdf72e11>@@AEAV<lambda_92619d2358a28f41a33ba319515a20b9>@@V<lambda_6992ecaafeb10aed2b74cb1fae11a551>@@@?$__crt_seh_guarded_call@X@@QEAAX$$QEAV<lambda_aa87e3671a710a21b5dc78c0bdf72e11>@@AEAV<lambda_92619d2358a28f41a33ba319515a20b9>@@$$QEAV<lambda_6992ecaafeb10aed2b74cb1fae11a551>@@@Z@4HA 000000014003ff50 f   libucrtd:per_thread_data.obj
 0001:0003ef50       ?fin$0@?0???$?RV<lambda_410d79af7f07d98d83a3f525b3859a53>@@AEAV<lambda_3e16ef9562a7dcce91392c22ab16ea36>@@V<lambda_38119f0e861e05405d8a144b9b982f0a>@@@?$__crt_seh_guarded_call@X@@QEAAX$$QEAV<lambda_410d79af7f07d98d83a3f525b3859a53>@@AEAV<lambda_3e16ef9562a7dcce91392c22ab16ea36>@@$$QEAV<lambda_38119f0e861e05405d8a144b9b982f0a>@@@Z@4HA 000000014003ff50 f   libucrtd:wsetlocale.obj
 0001:0003ef50       ?fin$0@?0???$?RV<lambda_efa02eb69bf647d2f7ff0dd6f1103f72>@@AEAV<lambda_bd5a608237428601b7e45fbdc72b1ae8>@@V<lambda_728235dc0fc2b1f82d1fa5b3e7102d8f>@@@?$__crt_seh_guarded_call@X@@QEAAX$$QEAV<lambda_efa02eb69bf647d2f7ff0dd6f1103f72>@@AEAV<lambda_bd5a608237428601b7e45fbdc72b1ae8>@@$$QEAV<lambda_728235dc0fc2b1f82d1fa5b3e7102d8f>@@@Z@4HA 000000014003ff50 f   libucrtd:mbctype.obj
 0001:0003ef50       ?fin$0@?0???$?RV<lambda_d80eeec6fff315bfe5c115232f3240e3>@@AEAV<lambda_6e4b09c48022b2350581041d5f6b0c4c>@@V<lambda_2358e3775559c9db80273638284d5e45>@@@?$__crt_seh_guarded_call@X@@QEAAX$$QEAV<lambda_d80eeec6fff315bfe5c115232f3240e3>@@AEAV<lambda_6e4b09c48022b2350581041d5f6b0c4c>@@$$QEAV<lambda_2358e3775559c9db80273638284d5e45>@@@Z@4HA 000000014003ff50 f   libucrtd:exit.obj
 0001:0003ef50       ?fin$0@?0???$?RV<lambda_886d6c58226a84441f68b9f2b8217b83>@@AEAV<lambda_ab61a845afdef5b7c387490eaf3616ee>@@V<lambda_f7f22ab5edc0698d5f6905b0d3f44752>@@@?$__crt_seh_guarded_call@X@@QEAAX$$QEAV<lambda_886d6c58226a84441f68b9f2b8217b83>@@AEAV<lambda_ab61a845afdef5b7c387490eaf3616ee>@@$$QEAV<lambda_f7f22ab5edc0698d5f6905b0d3f44752>@@@Z@4HA 000000014003ff50 f   libucrtd:fflush.obj
 0001:0003ef70       ?filt$0@?0???R<lambda_6e4b09c48022b2350581041d5f6b0c4c>@@QEBA@XZ@4HA 000000014003ff70 f   libucrtd:exit.obj
 0001:0003efa0       ?fin$0@?0???$?RV<lambda_450d765d439847d4c735a33c368b5fc0>@@AEAV<lambda_44731a7d0e6d81c3e6aa82d741081786>@@V<lambda_601a2a7da3b7a96e9554ac7215c4b07c>@@@?$__crt_seh_guarded_call@P6AXH@Z@@QEAAP6AXH@Z$$QEAV<lambda_450d765d439847d4c735a33c368b5fc0>@@AEAV<lambda_44731a7d0e6d81c3e6aa82d741081786>@@$$QEAV<lambda_601a2a7da3b7a96e9554ac7215c4b07c>@@@Z@4HA 000000014003ffa0 f   libucrtd:signal.obj
 0001:0003efa0       ?fin$0@?0???$?RV<lambda_6a47f4c8fd0152770a780fc1d70204eb>@@AEAV<lambda_d121dba8a4adeaf3a9819e48611155df>@@V<lambda_6aaa2265f5b6a89667e7d7630012e97a>@@@?$__crt_seh_guarded_call@H@@QEAAH$$QEAV<lambda_6a47f4c8fd0152770a780fc1d70204eb>@@AEAV<lambda_d121dba8a4adeaf3a9819e48611155df>@@$$QEAV<lambda_6aaa2265f5b6a89667e7d7630012e97a>@@@Z@4HA 000000014003ffa0 f   libucrtd:onexit.obj
 0001:0003efa0       ?fin$0@?0???$?RV<lambda_80060f20ac3990516b753a27f211934c>@@AEAV<lambda_208ce30acdd7200aa596f2796f4d5154>@@V<lambda_fd91b99c0687e8936f1d70d7d9b78e69>@@@?$__crt_seh_guarded_call@H@@QEAAH$$QEAV<lambda_80060f20ac3990516b753a27f211934c>@@AEAV<lambda_208ce30acdd7200aa596f2796f4d5154>@@$$QEAV<lambda_fd91b99c0687e8936f1d70d7d9b78e69>@@@Z@4HA 000000014003ffa0 f   libucrtd:onexit.obj
 0001:0003efc0       ?dtor$0@?0???R<lambda_d121dba8a4adeaf3a9819e48611155df>@@QEBA@XZ@4HA 000000014003ffc0 f   libucrtd:onexit.obj
 0001:0003efe0       ?fin$0@?0??heap_alloc_dbg_internal@@YAPEAX_KHQEBDH@Z@4HA 000000014003ffe0 f   libucrtd:debug_heap.obj
 0001:0003efe0       _CrtMemCheckpoint$fin$0    000000014003ffe0 f   libucrtd:debug_heap.obj
 0001:0003f000       ?fin$0@?0??validate_heap_if_required_nolock@@YAXXZ@4HA 0000000140040000 f   libucrtd:debug_heap.obj
 0001:0003f020       _CrtCheckMemory$fin$0      0000000140040020 f   libucrtd:debug_heap.obj
 0001:0003f020       _CrtMemDumpAllObjectsSince$fin$0 0000000140040020 f   libucrtd:debug_heap.obj
 0001:0003f020       _CrtSetDbgFlag$fin$0       0000000140040020 f   libucrtd:debug_heap.obj
 0001:0003f020       _msize_dbg$fin$0           0000000140040020 f   libucrtd:debug_heap.obj
 0001:0003f020       _realloc_dbg$fin$0         0000000140040020 f   libucrtd:debug_heap.obj
 0001:0003f040       _free_dbg$fin$0            0000000140040040 f   libucrtd:debug_heap.obj
 0001:0003f040       _query_new_handler$fin$0   0000000140040040 f   libucrtd:new_handler.obj
 0001:0003f060       ?fin$0@?0??update_thread_multibyte_data_internal@@YAPEAU__crt_multibyte_data@@QEAU__acrt_ptd@@QEAPEAU1@@Z@4HA 0000000140040060 f   libucrtd:mbctype.obj
 0001:0003f080       __acrt_lowio_ensure_fh_exists$fin$0 0000000140040080 f   libucrtd:osfinfo.obj
 0001:0003f0a0       __acrt_initialize_lowio$fin$0 00000001400400a0 f   libucrtd:ioinit.obj
 0001:0003f0c0       __acrt_update_thread_locale_data$fin$0 00000001400400c0 f   libucrtd:locale_refcounting.obj
 0001:0003f0e0       raise$fin$0                00000001400400e0 f   libucrtd:signal.obj
 0001:0003f110       _VCrtDbgReportA$fin$0      0000000140040110 f   libucrtd:dbgrptt.obj
 0001:0003f12b       _VCrtDbgReportA$fin$1      000000014004012b f   libucrtd:dbgrptt.obj
 0001:0003f150       _VCrtDbgReportW$fin$0      0000000140040150 f   libucrtd:dbgrptt.obj
 0001:0003f16b       _VCrtDbgReportW$fin$1      000000014004016b f   libucrtd:dbgrptt.obj
 0001:0003f190       ?dtor$0@?0??shortsort@@YAXPEAD0_KP6AHPEBX2@Z@Z@4HA 0000000140040190 f   libucrtd:qsort.obj
 0001:0003f1b0       ?fin$0@?0???$?RV<lambda_842d9ff0dc9ef11c61343bbaebe7f885>@@AEAV<lambda_c5860995281e5c4ce005b3de8f5874ee>@@V<lambda_d90129c13df834fdcbf8d2b88dafcf2d>@@@?$__crt_seh_guarded_call@X@@QEAAX$$QEAV<lambda_842d9ff0dc9ef11c61343bbaebe7f885>@@AEAV<lambda_c5860995281e5c4ce005b3de8f5874ee>@@$$QEAV<lambda_d90129c13df834fdcbf8d2b88dafcf2d>@@@Z@4HA 00000001400401b0 f   libucrtd:fflush.obj
 0001:0003f1d0       _fcloseall$fin$0           00000001400401d0 f   libucrtd:closeall.obj
 0001:0003f1f0       ?fin$0@?0???$?RV<lambda_19eaff14c5fe7be5b1b106a862eb1091>@@AEAV<lambda_af29824b49a67d335554598d6cad2be6>@@V<lambda_3ce37f5b621ab310299ea5f68cbdf3bb>@@@?$__crt_seh_guarded_call@H@@QEAAH$$QEAV<lambda_19eaff14c5fe7be5b1b106a862eb1091>@@AEAV<lambda_af29824b49a67d335554598d6cad2be6>@@$$QEAV<lambda_3ce37f5b621ab310299ea5f68cbdf3bb>@@@Z@4HA 00000001400401f0 f   libucrtd:close.obj
 0001:0003f1f0       ?fin$0@?0???$?RV<lambda_7d29013d608e9f25a034de83c9b9e983>@@AEAV<lambda_3e4146214822e0ea86c47ff907aef2ff>@@V<lambda_b869e5a4e1069fcb5c3da79c0d999133>@@@?$__crt_seh_guarded_call@H@@QEAAH$$QEAV<lambda_7d29013d608e9f25a034de83c9b9e983>@@AEAV<lambda_3e4146214822e0ea86c47ff907aef2ff>@@$$QEAV<lambda_b869e5a4e1069fcb5c3da79c0d999133>@@@Z@4HA 00000001400401f0 f   libucrtd:commit.obj
 0001:0003f210       _write_internal$fin$0      0000000140040210 f   libucrtd:write.obj
 0001:0003f230       ?fin$0@?0??_fclose_internal@@YAHQEAU_iobuf@@AEAV__crt_cached_ptd_host@@@Z@4HA 0000000140040230 f   libucrtd:fclose.obj
 0001:0003f260       common_control87$filt$0    0000000140040260 f   libucrtd:ieee.obj
 0001:0003f2b0       _ctrlfp$filt$0             00000001400402b0 f   libucrtd:fpctrl.obj
 0001:0003f300       _IsNonwritableInCurrentImage$filt$0 0000000140040300 f   LIBCMTD:pesect.obj
 0002:000003c0       ?pre_cpp_initializer@@3P6AXXZEA 00000001400413c0     LIBCMTD:exe_winmain.obj
 0002:000003d8       ?pre_c_initializer@@3P6AHXZEA 00000001400413d8     LIBCMTD:exe_winmain.obj
 0002:000003e0       ?post_pgo_initializer@@3P6AHXZEA 00000001400413e0     LIBCMTD:exe_winmain.obj
 0002:00000450       $SG98736                   0000000140041450     win32_handmade.obj
 0002:00000468       $SG98737                   0000000140041468     win32_handmade.obj
 0002:00000480       $SG98749                   0000000140041480     win32_handmade.obj
 0002:00000490       $SG98751                   0000000140041490     win32_handmade.obj
 0002:000004a0       $SG98753                   00000001400414a0     win32_handmade.obj
 0002:000004b0       $SG98755                   00000001400414b0     win32_handmade.obj
 0002:000004c0       $SG98756                   00000001400414c0     win32_handmade.obj
 0002:000004d0       $SG98775                   00000001400414d0     win32_handmade.obj
 0002:000004e0       $SG98778                   00000001400414e0     win32_handmade.obj
 0002:000004f8       $SG98787                   00000001400414f8     win32_handmade.obj
 0002:00000518       $SG98789                   0000000140041518     win32_handmade.obj
 0002:00000540       $SG98831                   0000000140041540     win32_handmade.obj
 0002:00000578       $SG98909                   0000000140041578     win32_handmade.obj
 0002:00000580       $SG98910                   0000000140041580     win32_handmade.obj
 0002:00000588       $SG98911                   0000000140041588     win32_handmade.obj
 0002:000005a0       $SG99180                   00000001400415a0     win32_handmade.obj
 0002:000005b0       $SG99181                   00000001400415b0     win32_handmade.obj
 0002:000005c8       $SG99182                   00000001400415c8     win32_handmade.obj
 0002:000005d8       $SG99185                   00000001400415d8     win32_handmade.obj
 0002:00000620       GS_ExceptionPointers       0000000140041620     LIBCMTD:gs_report.obj
 0002:00000690       ?tokenTable@@3QBUStringLiteral@@B 0000000140041690     libvcruntimed:undname.obj
 0002:000007a0       ?nameTable@@3QBUStringLiteral@@B 00000001400417a0     libvcruntimed:undname.obj
 0002:00000cd0       ?rttiTable@@3QBUStringLiteral@@B 0000000140041cd0     libvcruntimed:undname.obj
 0002:00000d20       ?IndirectionName@@3QBUStringLiteral@@B 0000000140041d20     libvcruntimed:undname.obj
 0002:00000d80       ?PrefixName@@3QBUStringLiteral@@B 0000000140041d80     libvcruntimed:undname.obj
 0002:00001470       ?module_names@?A0x14174aea@@3QBQEB_WB 0000000140042470     libvcruntimed:winapi_downlevel.obj
 0002:000016e0       ?candidate_modules@?1??try_get_FlsAlloc@@YAP6AKP6AXPEAX@Z@ZXZ@4QBW4module_id@?A0x14174aea@@B 00000001400426e0     libvcruntimed:winapi_downlevel.obj
 0002:000016f8       ?candidate_modules@?1??try_get_FlsFree@@YAP6AHK@ZXZ@4QBW4module_id@?A0x14174aea@@B 00000001400426f8     libvcruntimed:winapi_downlevel.obj
 0002:00001708       ?candidate_modules@?1??try_get_FlsGetValue@@YAP6APEAXK@ZXZ@4QBW4module_id@?A0x14174aea@@B 0000000140042708     libvcruntimed:winapi_downlevel.obj
 0002:00001720       ?candidate_modules@?1??try_get_FlsSetValue@@YAP6AHKPEAX@ZXZ@4QBW4module_id@?A0x14174aea@@B 0000000140042720     libvcruntimed:winapi_downlevel.obj
 0002:00001738       ?candidate_modules@?1??try_get_InitializeCriticalSectionEx@@YAP6AHPEAU_RTL_CRITICAL_SECTION@@KK@ZXZ@4QBW4module_id@?A0x14174aea@@B 0000000140042738     libvcruntimed:winapi_downlevel.obj
 0002:00001760       ?ExceptionTemplate@?1??UnwindNestedFrames@__FrameHandler3@@SAXPEA_KPEAUEHExceptionRecord@@PEAU_CONTEXT@@0PEAXPEBU_s_FuncInfo@@HHPEBU_s_HandlerType@@PEAU_xDISPATCHER_CONTEXT@@E@Z@4U_EXCEPTION_RECORD@@B 0000000140042760     libvcruntimed:risctrnsctrl.obj
 0002:00001e70       $cppxdata$??$common_configure_argv@D@@YAHW4_crt_argv_mode@@@Z 0000000140042e70     libucrtd:argv_parsing.obj
 0002:00002010       $cppxdata$??$uninitialize@A6AXAEAPEAPEAD@_E@?$dual_state_global@PEAPEAD@__crt_state_management@@QEAAXA6AXAEAPEAPEAD@_E@Z 0000000140043010     libucrtd:environment_initialization.obj
 0002:00002038       $cppxdata$??$uninitialize@A6AXAEAPEAPEA_W@_E@?$dual_state_global@PEAPEA_W@__crt_state_management@@QEAAXA6AXAEAPEAPEA_W@_E@Z 0000000140043038     libucrtd:environment_initialization.obj
 0002:000021e8       $cppxdata$?try_cor_exit_process@@YAXI@Z 00000001400431e8     libucrtd:exit.obj
 0002:00002210       $cppxdata$?common_exit@@YAXHW4_crt_exit_cleanup_mode@@W4_crt_exit_return_mode@@@Z 0000000140043210     libucrtd:exit.obj
 0002:00002238       $cppxdata$??$__acrt_lock_and_call@V<lambda_6e4b09c48022b2350581041d5f6b0c4c>@@@@YAXW4__acrt_lock_id@@$$QEAV<lambda_6e4b09c48022b2350581041d5f6b0c4c>@@@Z 0000000140043238     libucrtd:exit.obj
 0002:000024c0       $cppxdata$??$uninitialize@V<lambda_363eea9039da1e8169e2d060c7fe5cbc>@@@?$dual_state_global@PEAU__crt_locale_data@@@__crt_state_management@@QEAAX$$QEAV<lambda_363eea9039da1e8169e2d060c7fe5cbc>@@@Z 00000001400434c0     libucrtd:wsetlocale.obj
 0002:000024e8       $cppxdata$??$__acrt_lock_and_call@V<lambda_3e16ef9562a7dcce91392c22ab16ea36>@@@@YAXW4__acrt_lock_id@@$$QEAV<lambda_3e16ef9562a7dcce91392c22ab16ea36>@@@Z 00000001400434e8     libucrtd:wsetlocale.obj
 0002:000026c8       $cppxdata$??$__acrt_lock_and_call@V<lambda_208ce30acdd7200aa596f2796f4d5154>@@@@YAHW4__acrt_lock_id@@$$QEAV<lambda_208ce30acdd7200aa596f2796f4d5154>@@@Z 00000001400436c8     libucrtd:onexit.obj
 0002:000026f0       $cppxdata$??R<lambda_d121dba8a4adeaf3a9819e48611155df>@@QEBA@XZ 00000001400436f0     libucrtd:onexit.obj
 0002:00002718       $cppxdata$??$__acrt_lock_and_call@V<lambda_d121dba8a4adeaf3a9819e48611155df>@@@@YAHW4__acrt_lock_id@@$$QEAV<lambda_d121dba8a4adeaf3a9819e48611155df>@@@Z 0000000140043718     libucrtd:onexit.obj
 0002:00002780       __acrt_initializers        0000000140043780     libucrtd:initialization.obj
 0002:00002880       $cppxdata$??$uninitialize@V<lambda_af27fe6ede5d83bbdbd622796c194e9c>@@@?$dual_state_global@PEAU__crt_multibyte_data@@@__crt_state_management@@QEAAX$$QEAV<lambda_af27fe6ede5d83bbdbd622796c194e9c>@@@Z 0000000140043880     libucrtd:initialization.obj
 0002:000028a8       ?block_use_names@@3QBQEBDB 00000001400438a8     libucrtd:debug_heap.obj
 0002:000028f8       $cppxdata$?realloc_dbg_nolock@@YAPEAXQEAXQEA_KHQEBDH_N@Z 00000001400438f8     libucrtd:debug_heap.obj
 0002:00002920       $cppxdata$?free_dbg_nolock@@YAXQEAXH@Z 0000000140043920     libucrtd:debug_heap.obj
 0002:00002948       $cppxdata$?dump_all_object_since_nolock@@YAXQEBU_CrtMemState@@@Z 0000000140043948     libucrtd:debug_heap.obj
 0002:00003b90       $cppxdata$??0?$output_adapter_data@DV?$string_output_adapter@D@__crt_stdio_output@@@__crt_stdio_output@@IEAA@AEBV?$string_output_adapter@D@1@_KQEBDAEAV__crt_cached_ptd_host@@QEAD@Z 0000000140044b90     libucrtd:output.obj
 0002:00003bb8       $cppxdata$??0?$output_adapter_data@_WV?$string_output_adapter@_W@__crt_stdio_output@@@__crt_stdio_output@@IEAA@AEBV?$string_output_adapter@_W@1@_KQEB_WAEAV__crt_cached_ptd_host@@QEAD@Z 0000000140044bb8     libucrtd:output.obj
 0002:00003be0       $cppxdata$?find_next_state@?$output_processor@DV?$string_output_adapter@D@__crt_stdio_output@@V?$format_validation_base@DV?$string_output_adapter@D@__crt_stdio_output@@@2@@__crt_stdio_output@@AEBA?AW4state@2@DW432@@Z 0000000140044be0     libucrtd:output.obj
 0002:00003c08       $cppxdata$?find_next_state@?$output_processor@_WV?$string_output_adapter@_W@__crt_stdio_output@@V?$format_validation_base@_WV?$string_output_adapter@_W@__crt_stdio_output@@@2@@__crt_stdio_output@@AEBA?AW4state@2@_WW432@@Z 0000000140044c08     libucrtd:output.obj
 0002:00005c68       ?report_type_messages@@3QBQEB_WB 0000000140046c68     libucrtd:dbgrpt.obj
 0002:00005cc8       ?more_info_string@@3QEB_WEB 0000000140046cc8     libucrtd:dbgrpt.obj
 0002:00005fce       ?empty_string@?1???$common_message_window@D@@YAHHQEAXQEBD111@Z@4QBDB 0000000140046fce     libucrtd:dbgrpt.obj
 0002:00006248       ?empty_string@?1???$common_message_window@_W@@YAHHQEAXQEB_W111@Z@4QB_WB 0000000140047248     libucrtd:dbgrpt.obj
 0002:00006250       $cppxdata$?construct_ptd@@YAXQEAU__acrt_ptd@@QEAPEAU__crt_locale_data@@@Z 0000000140047250     libucrtd:per_thread_data.obj
 0002:00006278       $cppxdata$??$__acrt_lock_and_call@V<lambda_8d0ee55de4b1038c4002e0adecdf1839>@@@@YAXW4__acrt_lock_id@@$$QEAV<lambda_8d0ee55de4b1038c4002e0adecdf1839>@@@Z 0000000140047278     libucrtd:per_thread_data.obj
 0002:000062a0       $cppxdata$??$__acrt_lock_and_call@V<lambda_92619d2358a28f41a33ba319515a20b9>@@@@YAXW4__acrt_lock_id@@$$QEAV<lambda_92619d2358a28f41a33ba319515a20b9>@@@Z 00000001400472a0     libucrtd:per_thread_data.obj
 0002:000062c8       $cppxdata$?destroy_ptd@@YAXQEAU__acrt_ptd@@@Z 00000001400472c8     libucrtd:per_thread_data.obj
 0002:000062f0       $cppxdata$??$__acrt_lock_and_call@V<lambda_e157831efee4ea0afb0a2ace5dd5fd0d>@@@@YAXW4__acrt_lock_id@@$$QEAV<lambda_e157831efee4ea0afb0a2ace5dd5fd0d>@@@Z 00000001400472f0     libucrtd:per_thread_data.obj
 0002:00006318       $cppxdata$??$__acrt_lock_and_call@V<lambda_8f455de75cd7d7f24b4096f044d8b9e6>@@@@YAXW4__acrt_lock_id@@$$QEAV<lambda_8f455de75cd7d7f24b4096f044d8b9e6>@@@Z 0000000140047318     libucrtd:per_thread_data.obj
 0002:00006530       ?errtable@@3QBUerrentry@?A0x31fdb9ec@@B 0000000140047530     libucrtd:errno.obj
 0002:000066c0       $cppxdata$??1?$__crt_win32_buffer@DU__crt_win32_buffer_internal_dynamic_resizing@@@@QEAA@XZ 00000001400476c0     libucrtd:argv_wildcards.obj
 0002:000066c0       $cppxdata$??1?$__crt_win32_buffer@_WU__crt_win32_buffer_internal_dynamic_resizing@@@@QEAA@XZ 00000001400476c0     libucrtd:argv_wildcards.obj
 0002:000066e8       $cppxdata$??$tcspbrk@AEAPEADAEAY02$$CBD@?$__crt_char_traits@D@@SAPEADAEAPEADAEAY02$$CBD@Z 00000001400476e8     libucrtd:argv_wildcards.obj
 0002:00006710       $cppxdata$??$expand_argument_wildcards@D@@YAHQEAD0AEAV?$argument_list@D@?A0x5f5c8891@@@Z 0000000140047710     libucrtd:argv_wildcards.obj
 0002:00006b28       $cppxdata$??1?$__crt_win32_buffer@DU__crt_win32_buffer_no_resizing@@@@QEAA@XZ 0000000140047b28     libucrtd:getmodulefilenamea.obj
 0002:00006b50       ?_mb_locale_names@@3QBQEB_WB 0000000140047b50     libucrtd:mbctype.obj
 0002:00006bb0       $cppxdata$?setmbcp_internal@@YAHH_NQEAU__acrt_ptd@@QEAPEAU__crt_multibyte_data@@@Z 0000000140047bb0     libucrtd:mbctype.obj
 0002:00006bd8       $cppxdata$??$__acrt_lock_and_call@V<lambda_bd5a608237428601b7e45fbdc72b1ae8>@@@@YAXW4__acrt_lock_id@@$$QEAV<lambda_bd5a608237428601b7e45fbdc72b1ae8>@@@Z 0000000140047bd8     libucrtd:mbctype.obj
 0002:00007fa0       ?module_names@?A0x391cf84c@@3QBQEB_WB 0000000140048fa0     libucrtd:winapi_thunks.obj
 0002:00008574       ?candidate_modules@?1??try_get_AreFileApisANSI@@YAP6AHXZXZ@4QBW4module_id@?A0x391cf84c@@B 0000000140049574     libucrtd:winapi_thunks.obj
 0002:00008588       ?candidate_modules@?1??try_get_GetActiveWindow@@YAP6APEAUHWND__@@XZXZ@4QBW4module_id@?A0x391cf84c@@B 0000000140049588     libucrtd:winapi_thunks.obj
 0002:000085a0       ?candidate_modules@?1??try_get_GetLastActivePopup@@YAP6APEAUHWND__@@PEAU2@@ZXZ@4QBW4module_id@?A0x391cf84c@@B 00000001400495a0     libucrtd:winapi_thunks.obj
 0002:000085c0       ?candidate_modules@?1??try_get_GetProcessWindowStation@@YAP6APEAUHWINSTA__@@XZXZ@4QBW4module_id@?A0x391cf84c@@B 00000001400495c0     libucrtd:winapi_thunks.obj
 0002:000085e0       ?candidate_modules@?1??try_get_GetUserObjectInformationW@@YAP6AHPEAXH0KPEAK@ZXZ@4QBW4module_id@?A0x391cf84c@@B 00000001400495e0     libucrtd:winapi_thunks.obj
 0002:00008608       ?candidate_modules@?1??try_get_InitializeCriticalSectionEx@@YAP6AHPEAU_RTL_CRITICAL_SECTION@@KK@ZXZ@4QBW4module_id@?A0x391cf84c@@B 0000000140049608     libucrtd:winapi_thunks.obj
 0002:00008610       ?candidate_modules@?1??try_get_LCMapStringEx@@YAP6AHPEB_WK0HPEA_WHPEAU_nlsversioninfo@@PEAX_J@ZXZ@4QBW4module_id@?A0x391cf84c@@B 0000000140049610     libucrtd:winapi_thunks.obj
 0002:00008628       ?candidate_modules@?1??try_get_LocaleNameToLCID@@YAP6AKPEB_WK@ZXZ@4QBW4module_id@?A0x391cf84c@@B 0000000140049628     libucrtd:winapi_thunks.obj
 0002:00008648       ?candidate_modules@?1??try_get_MessageBoxA@@YAP6AHPEAUHWND__@@PEBD1I@ZXZ@4QBW4module_id@?A0x391cf84c@@B 0000000140049648     libucrtd:winapi_thunks.obj
 0002:00008660       ?candidate_modules@?1??try_get_MessageBoxW@@YAP6AHPEAUHWND__@@PEB_W1I@ZXZ@4QBW4module_id@?A0x391cf84c@@B 0000000140049660     libucrtd:winapi_thunks.obj
 0002:00008674       ?candidate_modules@?1??try_get_AppPolicyGetProcessTerminationMethod@@YAP6AJPEAXPEAW4AppPolicyProcessTerminationMethod@@@ZXZ@4QBW4module_id@?A0x391cf84c@@B 0000000140049674     libucrtd:winapi_thunks.obj
 0002:000086a0       ?candidate_modules@?1??try_get_AppPolicyGetShowDeveloperDiagnostic@@YAP6AJPEAXPEAW4AppPolicyShowDeveloperDiagnostic@@@ZXZ@4QBW4module_id@?A0x391cf84c@@B 00000001400496a0     libucrtd:winapi_thunks.obj
 0002:000086cc       ?candidate_modules@?1??try_get_AppPolicyGetWindowingModel@@YAP6AJPEAXPEAW4AppPolicyWindowingModel@@@ZXZ@4QBW4module_id@?A0x391cf84c@@B 00000001400496cc     libucrtd:winapi_thunks.obj
 0002:000086f0       $cppxdata$??$__acrt_lock_and_call@V<lambda_44731a7d0e6d81c3e6aa82d741081786>@@@@YAP6AXH@ZW4__acrt_lock_id@@$$QEAV<lambda_44731a7d0e6d81c3e6aa82d741081786>@@@Z 00000001400496f0     libucrtd:signal.obj
 0002:000088c0       ?strings@?1??fp_format_nan_or_infinity@@YAHW4__acrt_fp_class@@_NPEAD_K1@Z@4QAY03QEBDA 00000001400498c0     libucrtd:cvt.obj
 0002:0000a138       $cppxdata$?shortsort@@YAXPEAD0_KP6AHPEBX2@Z@Z 000000014004b138     libucrtd:qsort.obj
 0002:0000a520       ?LcidToLocaleNameTable@?A0x881e4c05@@3QBULcidToLocaleName@1@B 000000014004b520     libucrtd:lcidtoname_downlevel.obj
 0002:0000bf70       ?LocaleNameToIndexTable@?A0x881e4c05@@3QBULocaleNameIndex@1@B 000000014004cf70     libucrtd:lcidtoname_downlevel.obj
 0002:0000d880       $cppxdata$?common_flush_all@@YAH_N@Z 000000014004e880     libucrtd:fflush.obj
 0002:0000d8a8       $cppxdata$??$__acrt_lock_stream_and_call@V<lambda_c5860995281e5c4ce005b3de8f5874ee>@@@@YAXQEAU_iobuf@@$$QEAV<lambda_c5860995281e5c4ce005b3de8f5874ee>@@@Z 000000014004e8a8     libucrtd:fflush.obj
 0002:0000d8d0       $cppxdata$??$__acrt_lock_and_call@V<lambda_ab61a845afdef5b7c387490eaf3616ee>@@@@YAXW4__acrt_lock_id@@$$QEAV<lambda_ab61a845afdef5b7c387490eaf3616ee>@@@Z 000000014004e8d0     libucrtd:fflush.obj
 0002:0000ea58       $cppxdata$?_mbstowcs_l_helper@@YA_KPEA_WPEBD_KAEAV__crt_cached_ptd_host@@@Z 000000014004fa58     libucrtd:mbstowcs.obj
 0002:0000ee00       $cppxdata$??$__acrt_lowio_lock_fh_and_call@V<lambda_3e4146214822e0ea86c47ff907aef2ff>@@@@YAHH$$QEAV<lambda_3e4146214822e0ea86c47ff907aef2ff>@@@Z 000000014004fe00     libucrtd:commit.obj
 0002:0000eea0       $cppxdata$?write_double_translated_ansi_nolock@@YA?AUwrite_result@?A0x17268360@@HQEBDIAEAV__crt_cached_ptd_host@@@Z 000000014004fea0     libucrtd:write.obj
 0002:0000f150       __real_ninf                0000000140050150     libucrtd:log10.obj
 0002:0000f160       __real_inf                 0000000140050160     libucrtd:log10.obj
 0002:0000f170       __real_neg_qnan            0000000140050170     libucrtd:log10.obj
 0002:0000f180       __real_qnanbit             0000000140050180     libucrtd:log10.obj
 0002:0000f190       __int_1023                 0000000140050190     libucrtd:log10.obj
 0002:0000f1a0       __mask_001                 00000001400501a0     libucrtd:log10.obj
 0002:0000f1b0       __mask_mant                00000001400501b0     libucrtd:log10.obj
 0002:0000f1c0       __mask_mant_top8           00000001400501c0     libucrtd:log10.obj
 0002:0000f1d0       __mask_mant9               00000001400501d0     libucrtd:log10.obj
 0002:0000f1e0       __real_log10_e             00000001400501e0     libucrtd:log10.obj
 0002:0000f1f0       __real_log10_e_lead        00000001400501f0     libucrtd:log10.obj
 0002:0000f200       __real_log10_e_tail        0000000140050200     libucrtd:log10.obj
 0002:0000f210       __real_log10_2_lead        0000000140050210     libucrtd:log10.obj
 0002:0000f220       __real_log10_2_tail        0000000140050220     libucrtd:log10.obj
 0002:0000f230       __real_two                 0000000140050230     libucrtd:log10.obj
 0002:0000f240       __real_one                 0000000140050240     libucrtd:log10.obj
 0002:0000f250       __real_half                0000000140050250     libucrtd:log10.obj
 0002:0000f260       __mask_100                 0000000140050260     libucrtd:log10.obj
 0002:0000f270       __real_1_over_512          0000000140050270     libucrtd:log10.obj
 0002:0000f280       __real_1_over_2            0000000140050280     libucrtd:log10.obj
 0002:0000f290       __real_1_over_3            0000000140050290     libucrtd:log10.obj
 0002:0000f2a0       __real_1_over_4            00000001400502a0     libucrtd:log10.obj
 0002:0000f2b0       __real_1_over_5            00000001400502b0     libucrtd:log10.obj
 0002:0000f2c0       __real_1_over_6            00000001400502c0     libucrtd:log10.obj
 0002:0000f2d0       __real_neg_1023            00000001400502d0     libucrtd:log10.obj
 0002:0000f2e0       __mask_2045                00000001400502e0     libucrtd:log10.obj
 0002:0000f2f0       __real_threshold           00000001400502f0     libucrtd:log10.obj
 0002:0000f300       __real_near_one_lt         0000000140050300     libucrtd:log10.obj
 0002:0000f310       __real_near_one_gt         0000000140050310     libucrtd:log10.obj
 0002:0000f320       __real_min_norm            0000000140050320     libucrtd:log10.obj
 0002:0000f330       __real_notsign             0000000140050330     libucrtd:log10.obj
 0002:0000f340       __real_ca1                 0000000140050340     libucrtd:log10.obj
 0002:0000f350       __real_ca2                 0000000140050350     libucrtd:log10.obj
 0002:0000f360       __real_ca3                 0000000140050360     libucrtd:log10.obj
 0002:0000f370       __real_ca4                 0000000140050370     libucrtd:log10.obj
 0002:0000f380       __mask_lower               0000000140050380     libucrtd:log10.obj
 0002:0000f390       __flag_x_zero              0000000140050390     libucrtd:log10.obj
 0002:0000f394       __flag_x_neg               0000000140050394     libucrtd:log10.obj
 0002:0000f398       __flag_x_nan               0000000140050398     libucrtd:log10.obj
 0002:00010eb8       $cppxdata$??$__acrt_lowio_lock_fh_and_call@V<lambda_af29824b49a67d335554598d6cad2be6>@@@@YAHH$$QEAV<lambda_af29824b49a67d335554598d6cad2be6>@@@Z 0000000140051eb8     libucrtd:close.obj
 0002:00010f60       $cppxdata$??$console_output_reopen_and_retry@V<lambda_61c1b8a38cedca4df5fdc542e6ccae6d>@@@@YAHAEBV<lambda_61c1b8a38cedca4df5fdc542e6ccae6d>@@@Z 0000000140051f60     libucrtd:initcon.obj
 0002:00010fa0       __real@433fffffffffffff    0000000140051fa0     libucrtd:fpsr.obj
 0002:00010fa8       __real@c33fffffffffffff    0000000140051fa8     libucrtd:fpsr.obj
 0002:00011170       MoveSmall                  0000000140052170     libvcruntimed:memcpy.obj
 0002:000111b0       MoveSmallYmm               00000001400521b0     libvcruntimed:memcpy.obj
 0002:000111d4       MoveSmallYmmNT             00000001400521d4     libvcruntimed:memcpy.obj
 0002:000111f8       MoveSmallXmm               00000001400521f8     libvcruntimed:memcpy.obj
 0002:00011220       SetSmall                   0000000140052220     libvcruntimed:memset.obj
 0002:00011260       SetSmallYmm                0000000140052260     libvcruntimed:memset.obj
 0002:00011284       SetSmallYmmNT              0000000140052284     libvcruntimed:memset.obj
 0002:000112a8       SetSmallXmm                00000001400522a8     libvcruntimed:memset.obj
 0002:00011908       $unwind$WinMain            0000000140052908     win32_handmade.obj
 0002:0001191c       $unwind$?CatStrings@@YAX_KPEAD0101@Z 000000014005291c     win32_handmade.obj
 0002:00011924       $unwind$?Win32GetEXEFileName@@YAXPEAUwin32_state@@@Z 0000000140052924     win32_handmade.obj
 0002:0001192c       $unwind$?StringLength@@YAHPEAD@Z 000000014005292c     win32_handmade.obj
 0002:00011934       $unwind$?Win32BuildEXEPathFileName@@YAXPEAUwin32_state@@PEADH1@Z 0000000140052934     win32_handmade.obj
 0002:0001193c       $unwind$?DEBUGPlatformFreeFileMemory@@YAXPEAUthread_context@@PEAX@Z 000000014005293c     win32_handmade.obj
 0002:00011944       $unwind$?DEBUGPlatformReadEntireFile@@YA?AUdebug_read_file_result@@PEAUthread_context@@PEAD@Z 0000000140052944     win32_handmade.obj
 0002:00011950       $unwind$?DEBUGPlatformWriteEntireFile@@YAHPEAUthread_context@@PEADIPEAX@Z 0000000140052950     win32_handmade.obj
 0002:00011958       $unwind$?Win32LoadGameCode@@YA?AUwin32_game_code@@PEAD0@Z 0000000140052958     win32_handmade.obj
 0002:00011964       $unwind$?Win32UnloadGameCode@@YAXPEAUwin32_game_code@@@Z 0000000140052964     win32_handmade.obj
 0002:0001196c       $unwind$?Win32LoadXInput@@YAXXZ 000000014005296c     win32_handmade.obj
 0002:00011974       $unwind$?Win32InitDSound@@YAXPEAUHWND__@@HH@Z 0000000140052974     win32_handmade.obj
 0002:00011988       $unwind$?Win32GetWindowDimension@@YA?AUwin32_window_dimension@@PEAUHWND__@@@Z 0000000140052988     win32_handmade.obj
 0002:00011998       $unwind$?Win32ResizeDIBSection@@YAXPEAUwin32_offscreen_buffer@@HH@Z 0000000140052998     win32_handmade.obj
 0002:000119a0       $unwind$?Win32DisplayBufferInWindow@@YAXPEAUwin32_offscreen_buffer@@PEAUHDC__@@HH@Z 00000001400529a0     win32_handmade.obj
 0002:000119a8       $unwind$?Win32MainWindowCallback@@YA_JPEAUHWND__@@I_K_J@Z 00000001400529a8     win32_handmade.obj
 0002:000119b8       $unwind$?Win32ClearBuffer@@YAXPEAUwin32_sound_output@@@Z 00000001400529b8     win32_handmade.obj
 0002:000119c0       $unwind$?Win32ProcessXInputDigitalButton@@YAXKPEAUgame_button_state@@K0@Z 00000001400529c0     win32_handmade.obj
 0002:000119c8       $unwind$?Win32FillSoundBuffer@@YAXPEAUwin32_sound_output@@KKPEAUgame_sound_output_buffer@@@Z 00000001400529c8     win32_handmade.obj
 0002:000119d0       $unwind$?Win32ProcessXInputStickValue@@YAMFF@Z 00000001400529d0     win32_handmade.obj
 0002:000119d8       $unwind$?Win32GetInputFileLocation@@YAXPEAUwin32_state@@HHHPEAD@Z 00000001400529d8     win32_handmade.obj
 0002:000119e8       $unwind$?Win32GetReplayBuffer@@YAPEAUwin32_replay_buffer@@PEAUwin32_state@@I@Z 00000001400529e8     win32_handmade.obj
 0002:000119f0       $unwind$?Win32BeginRecordingInput@@YAXPEAUwin32_state@@H@Z 00000001400529f0     win32_handmade.obj
 0002:00011a04       $unwind$?Win32EndRecordingInput@@YAXPEAUwin32_state@@@Z 0000000140052a04     win32_handmade.obj
 0002:00011a0c       $unwind$?Win32BeginInputPlayBack@@YAXPEAUwin32_state@@H@Z 0000000140052a0c     win32_handmade.obj
 0002:00011a20       $unwind$?Win32EndInputPlayBack@@YAXPEAUwin32_state@@@Z 0000000140052a20     win32_handmade.obj
 0002:00011a28       $unwind$?Win32RecordInput@@YAXPEAUwin32_state@@PEAUgame_input@@@Z 0000000140052a28     win32_handmade.obj
 0002:00011a30       $unwind$?Win32PlayBackInput@@YAXPEAUwin32_state@@PEAUgame_input@@@Z 0000000140052a30     win32_handmade.obj
 0002:00011a38       $unwind$?Win32ProcessPendingMessages@@YAXPEAUwin32_state@@PEAUgame_controller_input@@@Z 0000000140052a38     win32_handmade.obj
 0002:00011a40       $unwind$?SafeTruncateUInt64@@YAI_K@Z 0000000140052a40     win32_handmade.obj
 0002:00011a40       $unwind$?detach@?$__crt_unique_heap_ptr@DU__crt_internal_free_policy@@@@QEAAPEADXZ 0000000140052a40     libucrtd:environment_initialization.obj
 0002:00011a40       $unwind$?is_valid@?$__crt_unique_heap_ptr@PEADU__crt_internal_free_policy@@@@QEBA_NXZ 0000000140052a40     libucrtd:environment_initialization.obj
 0002:00011a40       $unwind$?has_surrogate@?A0xc60ee810@@YA_NPEAU_Mbstatet@@@Z 0000000140052a40     libucrtd:c16rtomb.obj
 0002:00011a40       $unwind$?is_first_surrogate@?A0xc60ee810@@YA_N_S@Z 0000000140052a40     libucrtd:c16rtomb.obj
 0002:00011a40       $unwind$?is_second_surrogate@?A0xc60ee810@@YA_N_S@Z 0000000140052a40     libucrtd:c16rtomb.obj
 0002:00011a40       $unwind$?is_zero@__crt_strtox@@YA_NAEBUbig_integer@1@@Z 0000000140052a40     libucrtd:cfout.obj
 0002:00011a40       $unwind$?__acrt_fp_classify@@YA?AW4__acrt_fp_class@@AEBN@Z 0000000140052a40     libucrtd:cvt.obj
 0002:00011a40       $unwind$?__acrt_fp_is_negative@@YA_NAEBN@Z 0000000140052a40     libucrtd:cvt.obj
 0002:00011a40       $unwind$_CrtSetDumpClient  0000000140052a40     libucrtd:debug_heap.obj
 0002:00011a40       $unwind$__acrt_get_locale_data_prefix 0000000140052a40     libucrtd:debug_heap.obj
 0002:00011a40       $unwind$?detach@?$__crt_unique_heap_ptr@U__acrt_ptd@@U__crt_internal_free_policy@@@@QEAAPEAU__acrt_ptd@@XZ 0000000140052a40     libucrtd:per_thread_data.obj
 0002:00011a40       $unwind$?is_valid@?$__crt_unique_heap_ptr@U__acrt_ptd@@U__crt_internal_free_policy@@@@QEBA_NXZ 0000000140052a40     libucrtd:per_thread_data.obj
 0002:00011a40       $unwind$_MallocaComputeSize 0000000140052a40     libucrtd:getstringtypea.obj
 0002:00011a40       $unwind$??B?$__crt_scoped_stack_ptr@_W@@QEBA_NXZ 0000000140052a40     libucrtd:lcmapstringa.obj
 0002:00011a40       $unwind$?detach@?$__crt_unique_heap_ptr@U__crt_multibyte_data@@U__crt_internal_free_policy@@@@QEAAPEAU__crt_multibyte_data@@XZ 0000000140052a40     libucrtd:wsetlocale.obj
 0002:00011a40       $unwind$?is_valid@?$__crt_unique_heap_ptr@U__crt_multibyte_data@@U__crt_internal_free_policy@@@@QEBA_NXZ 0000000140052a40     libucrtd:wsetlocale.obj
 0002:00011a40       $unwind$?detach@?$__crt_unique_heap_ptr@U__crt_lowio_handle_data@@U__crt_internal_free_policy@@@@QEAAPEAU__crt_lowio_handle_data@@XZ 0000000140052a40     libucrtd:osfinfo.obj
 0002:00011a40       $unwind$?is_valid@?$__crt_unique_heap_ptr@U__crt_lowio_handle_data@@U__crt_internal_free_policy@@@@QEBA_NXZ 0000000140052a40     libucrtd:osfinfo.obj
 0002:00011a40       $unwind$?setSBCS@@YAXPEAU__crt_multibyte_data@@@Z 0000000140052a40     libucrtd:mbctype.obj
 0002:00011a40       $unwind$__acrt_should_sync_with_global_locale 0000000140052a40     libucrtd:mbctype.obj
 0002:00011a40       $unwind$?detach@?$__crt_unique_heap_ptr@EU__crt_internal_free_policy@@@@QEAAPEAEXZ 0000000140052a40     libucrtd:argv_parsing.obj
 0002:00011a40       $unwind$?detach@?$__crt_unique_heap_ptr@PEADU__crt_internal_free_policy@@@@QEAAPEAPEADXZ 0000000140052a40     libucrtd:argv_parsing.obj
 0002:00011a40       $unwind$?is_valid@?$__crt_unique_heap_ptr@EU__crt_internal_free_policy@@@@QEBA_NXZ 0000000140052a40     libucrtd:argv_parsing.obj
 0002:00011a40       $unwind$?__crt_fast_encode_pointer@@YA?AU__crt_fast_encoded_nullptr_t@@$$T@Z 0000000140052a40     libucrtd:exit.obj
 0002:00011a40       $unwind$?__crt_interlocked_read_32@@YAHPEDH@Z 0000000140052a40     libucrtd:exit.obj
 0002:00011a40       $unwind$?detach@?$__crt_unique_heap_ptr@P6AXXZU__crt_internal_free_policy@@@@QEAAPEAP6AXXZXZ 0000000140052a40     libucrtd:onexit.obj
 0002:00011a40       $unwind$?detach@?$__crt_unique_heap_ptr@PEAU__crt_stdio_stream_data@@U__crt_internal_free_policy@@@@QEAAPEAPEAU__crt_stdio_stream_data@@XZ 0000000140052a40     libucrtd:_file.obj
 0002:00011a40       $unwind$??$read_va_arg@C@__crt_stdio_output@@YACAEAPEAD@Z 0000000140052a40     libucrtd:output.obj
 0002:00011a40       $unwind$??$read_va_arg@E@__crt_stdio_output@@YAEAEAPEAD@Z 0000000140052a40     libucrtd:output.obj
 0002:00011a40       $unwind$??$read_va_arg@F@__crt_stdio_output@@YAFAEAPEAD@Z 0000000140052a40     libucrtd:output.obj
 0002:00011a40       $unwind$??$read_va_arg@G@__crt_stdio_output@@YAGAEAPEAD@Z 0000000140052a40     libucrtd:output.obj
 0002:00011a40       $unwind$??$read_va_arg@H@__crt_stdio_output@@YAHAEAPEAD@Z 0000000140052a40     libucrtd:output.obj
 0002:00011a40       $unwind$??$read_va_arg@I@__crt_stdio_output@@YAIAEAPEAD@Z 0000000140052a40     libucrtd:output.obj
 0002:00011a40       $unwind$??$read_va_arg@PEAD@__crt_stdio_output@@YAPEADAEAPEAD@Z 0000000140052a40     libucrtd:output.obj
 0002:00011a40       $unwind$??$read_va_arg@PEAUansi_string@?1??type_case_Z@?$output_processor@DV?$string_output_adapter@D@__crt_stdio_output@@V?$format_validation_base@DV?$string_output_adapter@D@__crt_stdio_output@@@2@@__crt_stdio_output@@AEAA_NXZ@@__crt_stdio_output@@YAPEAUansi_string@?1??type_case_Z@?$output_processor@DV?$string_output_adapter@D@__crt_stdio_output@@V?$format_validation_base@DV?$string_output_adapter@D@__crt_stdio_output@@@2@@0@AEAA_NXZ@AEAPEAD@Z 0000000140052a40     libucrtd:output.obj
 0002:00011a40       $unwind$??$read_va_arg@PEAUansi_string@?1??type_case_Z@?$output_processor@_WV?$string_output_adapter@_W@__crt_stdio_output@@V?$format_validation_base@_WV?$string_output_adapter@_W@__crt_stdio_output@@@2@@__crt_stdio_output@@AEAA_NXZ@@__crt_stdio_output@@YAPEAUansi_string@?1??type_case_Z@?$output_processor@_WV?$string_output_adapter@_W@__crt_stdio_output@@V?$format_validation_base@_WV?$string_output_adapter@_W@__crt_stdio_output@@@2@@0@AEAA_NXZ@AEAPEAD@Z 0000000140052a40     libucrtd:output.obj
 0002:00011a40       $unwind$??$read_va_arg@PEAX@__crt_stdio_output@@YAPEAXAEAPEAD@Z 0000000140052a40     libucrtd:output.obj
 0002:00011a40       $unwind$??$read_va_arg@U_CRT_DOUBLE@@@__crt_stdio_output@@YA?AU_CRT_DOUBLE@@AEAPEAD@Z 0000000140052a40     libucrtd:output.obj
 0002:00011a40       $unwind$??$read_va_arg@_J@__crt_stdio_output@@YA_JAEAPEAD@Z 0000000140052a40     libucrtd:output.obj
 0002:00011a40       $unwind$??$read_va_arg@_K@__crt_stdio_output@@YA_KAEAPEAD@Z 0000000140052a40     libucrtd:output.obj
 0002:00011a40       $unwind$??$read_va_arg@_W@__crt_stdio_output@@YA_WAEAPEAD@Z 0000000140052a40     libucrtd:output.obj
 0002:00011a40       $unwind$?advance_to_next_pass@?$standard_base@DV?$string_output_adapter@D@__crt_stdio_output@@@__crt_stdio_output@@IEAA_NXZ 0000000140052a40     libucrtd:output.obj
 0002:00011a40       $unwind$?advance_to_next_pass@?$standard_base@_WV?$string_output_adapter@_W@__crt_stdio_output@@@__crt_stdio_output@@IEAA_NXZ 0000000140052a40     libucrtd:output.obj
 0002:00011a40       $unwind$?get@?$c_string_character_source@D@__crt_strtox@@QEAADXZ 0000000140052a40     libucrtd:output.obj
 0002:00011a40       $unwind$?get@?$c_string_character_source@_W@__crt_strtox@@QEAA_WXZ 0000000140052a40     libucrtd:output.obj
 0002:00011a40       $unwind$?valid@__crt_stdio_stream@@QEBA_NXZ 0000000140052a40     libucrtd:output.obj
 0002:00011a40       $unwind$_handle_nan        0000000140052a40     libucrtd:libm_error.obj
 0002:00011a40       $unwind$ReadNoFence64      0000000140052a40     LIBCMTD:guard_support.obj
 0002:00011a40       $unwind$?isEHs@__FrameHandler3@@SA_NPEBU_s_FuncInfo@@@Z 0000000140052a40     libvcruntimed:frame.obj
 0002:00011a40       $unwind$?isNoExcept@__FrameHandler3@@SA_NPEBU_s_FuncInfo@@@Z 0000000140052a40     libvcruntimed:frame.obj
 0002:00011a40       $unwind$?what@exception@std@@UEBAPEBDXZ 0000000140052a40     libvcruntimed:frame.obj
 0002:00011a40       $unwind$?detach@?$__crt_unique_heap_ptr@U__vcrt_ptd@@U__crt_internal_free_policy@@@@QEAAPEAU__vcrt_ptd@@XZ 0000000140052a40     libvcruntimed:per_thread_data.obj
 0002:00011a40       $unwind$?is_valid@?$__crt_unique_heap_ptr@U__vcrt_ptd@@U__crt_internal_free_policy@@@@QEBA_NXZ 0000000140052a40     libvcruntimed:per_thread_data.obj
 0002:00011a40       $unwind$?detach@?$__crt_unique_heap_ptr@DU__crt_public_free_policy@@@@QEAAPEADXZ 0000000140052a40     libvcruntimed:std_exception.obj
 0002:00011a40       $unwind$?is_valid@?$__crt_unique_heap_ptr@DU__crt_public_free_policy@@@@QEBA_NXZ 0000000140052a40     libvcruntimed:std_exception.obj
 0002:00011a40       $unwind$?__crt_interlocked_read_64@@YA_JPED_J@Z 0000000140052a40     libvcruntimed:std_type_info.obj
 0002:00011a40       $unwind$?is_valid@?$__crt_unique_heap_ptr@DU__crt_internal_free_policy@@@@QEBA_NXZ 0000000140052a40     libvcruntimed:std_type_info.obj
 0002:00011a48       $unwind$?GetController@@YAPEAUgame_controller_input@@PEAUgame_input@@H@Z 0000000140052a48     win32_handmade.obj
 0002:00011a48       $unwind$?siglookup@@YAPEAU__crt_signal_action_t@@HQEAU1@@Z 0000000140052a48     libucrtd:signal.obj
 0002:00011a48       $unwind$??R<lambda_cfae5a0e6efa98e0d1aa03c4cec8f74e>@@QEBA@D@Z 0000000140052a48     libucrtd:argv_wildcards.obj
 0002:00011a48       $unwind$?set_flags@__crt_stdio_stream@@QEBA_NJ@Z 0000000140052a48     libucrtd:_sftbuf.obj
 0002:00011a48       $unwind$?unset_flags@__crt_stdio_stream@@QEBA_NJ@Z 0000000140052a48     libucrtd:_sftbuf.obj
 0002:00011a48       $unwind$?check@?$cached@H@__crt_cached_ptd_host@@QEBA_NH@Z 0000000140052a48     libucrtd:output.obj
 0002:00011a48       $unwind$?has_flag@?$output_processor@DV?$string_output_adapter@D@__crt_stdio_output@@V?$format_validation_base@DV?$string_output_adapter@D@__crt_stdio_output@@@2@@__crt_stdio_output@@AEBA_NI@Z 0000000140052a48     libucrtd:output.obj
 0002:00011a48       $unwind$?has_flag@?$output_processor@_WV?$string_output_adapter@_W@__crt_stdio_output@@V?$format_validation_base@_WV?$string_output_adapter@_W@__crt_stdio_output@@@2@@__crt_stdio_output@@AEBA_NI@Z 0000000140052a48     libucrtd:output.obj
 0002:00011a50       $unwind$?Win32GetLastWriteTime@@YA?AU_FILETIME@@PEAD@Z 0000000140052a50     win32_handmade.obj
 0002:00011a60       $unwind$?Win32GetWallClock@@YA?AT_LARGE_INTEGER@@XZ 0000000140052a60     win32_handmade.obj
 0002:00011a60       $unwind$?initialize_multibyte@@YAHXZ 0000000140052a60     libucrtd:multibyte_initializer.obj
 0002:00011a60       $unwind$initialize_pointers 0000000140052a60     libucrtd:initialization.obj
 0002:00011a60       $unwind$__acrt_initialize_locks 0000000140052a60     libucrtd:locks.obj
 0002:00011a60       $unwind$__acrt_app_verifier_enabled 0000000140052a60     libucrtd:peb_access.obj
 0002:00011a60       $unwind$__acrt_is_secure_process 0000000140052a60     libucrtd:peb_access.obj
 0002:00011a60       $unwind$?internal_getptd_noexit@@YAPEAU__acrt_ptd@@XZ 0000000140052a60     libucrtd:per_thread_data.obj
 0002:00011a60       $unwind$?try_get_ptd_head@@YAPEAU__acrt_ptd@@XZ 0000000140052a60     libucrtd:per_thread_data.obj
 0002:00011a60       $unwind$__acrt_getptd      0000000140052a60     libucrtd:per_thread_data.obj
 0002:00011a60       $unwind$__acrt_getptd_head 0000000140052a60     libucrtd:per_thread_data.obj
 0002:00011a60       $unwind$?should_write_error_to_console@@YA_NXZ 0000000140052a60     libucrtd:report_runtime_error.obj
 0002:00011a60       $unwind$__acrt_AreFileApisANSI 0000000140052a60     libucrtd:winapi_thunks.obj
 0002:00011a60       $unwind$__acrt_can_show_message_box 0000000140052a60     libucrtd:winapi_thunks.obj
 0002:00011a60       $unwind$__acrt_initialize_multibyte 0000000140052a60     libucrtd:mbctype.obj
 0002:00011a60       $unwind$__acrt_update_thread_multibyte_data 0000000140052a60     libucrtd:mbctype.obj
 0002:00011a60       $unwind$__doserrno         0000000140052a60     libucrtd:errno.obj
 0002:00011a60       $unwind$_errno             0000000140052a60     libucrtd:errno.obj
 0002:00011a60       $unwind$_invalid_parameter_noinfo 0000000140052a60     libucrtd:invalid_parameter.obj
 0002:00011a60       $unwind$abort              0000000140052a60     libucrtd:abort.obj
 0002:00011a60       $unwind$?is_managed_app@@YA_NXZ 0000000140052a60     libucrtd:exit.obj
 0002:00011a60       $unwind$__acrt_uninitialize_stdio 0000000140052a60     libucrtd:_file.obj
 0002:00011a60       $unwind$_clrfp             0000000140052a60     libucrtd:fpctrl.obj
 0002:00011a60       $unwind$_statfp            0000000140052a60     libucrtd:fpctrl.obj
 0002:00011a60       $unwind$_clearfp           0000000140052a60     libucrtd:ieee.obj
 0002:00011a60       $unwind$?get_machine_sse_control@@YA?AW4__acrt_fenv_machine_sse_control@@XZ 0000000140052a60     libucrtd:_fenvutils.obj
 0002:00011a60       $unwind$?get_machine_sse_status@@YA?AW4__acrt_fenv_machine_sse_status@@XZ 0000000140052a60     libucrtd:_fenvutils.obj
 0002:00011a60       $unwind$__acrt_fenv_get_control 0000000140052a60     libucrtd:_fenvutils.obj
 0002:00011a60       $unwind$__acrt_fenv_get_status 0000000140052a60     libucrtd:_fenvutils.obj
 0002:00011a60       $unwind$__acrt_has_user_matherr 0000000140052a60     libucrtd:matherr.obj
 0002:00011a60       $unwind$__scrt_initialize_default_local_stdio_options 0000000140052a60     LIBCMTD:default_local_stdio_options.obj
 0002:00011a60       $unwind$?invoke_main@@YAHXZ 0000000140052a60     LIBCMTD:exe_winmain.obj
 0002:00011a60       $unwind$?set_commode@__scrt_file_policy@@SAXXZ 0000000140052a60     LIBCMTD:exe_winmain.obj
 0002:00011a60       $unwind$__security_init_cookie 0000000140052a60     LIBCMTD:gs_support.obj
 0002:00011a60       $unwind$_guard_icall_checks_enforced 0000000140052a60     LIBCMTD:guard_support.obj
 0002:00011a60       $unwind$__scrt_is_managed_app 0000000140052a60     LIBCMTD:utility_desktop.obj
 0002:00011a60       $unwind$__vcrt_initialize_locks 0000000140052a60     libvcruntimed:locks.obj
 0002:00011a60       $unwind$__vcrt_uninitialize_locks 0000000140052a60     libvcruntimed:locks.obj
 0002:00011a60       $unwind$__vcrt_getptd      0000000140052a60     libvcruntimed:per_thread_data.obj
 0002:00011a68       $unwind$?Win32GetSecondsElapsed@@YAMT_LARGE_INTEGER@@0@Z 0000000140052a68     win32_handmade.obj
 0002:00011a68       $unwind$?initialize@?$dual_state_global@PEAPEAD@__crt_state_management@@QEAAXQEAPEAD@Z 0000000140052a68     libucrtd:environment_initialization.obj
 0002:00011a68       $unwind$?store_first_surrogate@?A0xc60ee810@@YAX_SPEAU_Mbstatet@@@Z 0000000140052a68     libucrtd:c16rtomb.obj
 0002:00011a68       $unwind$??8__crt_strtox@@YA_NAEBUbig_integer@0@0@Z 0000000140052a68     libucrtd:cfout.obj
 0002:00011a68       $unwind$?wcsncnt@@YA_KPEB_W_K@Z 0000000140052a68     libucrtd:wcstombs.obj
 0002:00011a68       $unwind$?initialize@?$dual_state_global@P6AH_K@Z@__crt_state_management@@QEAAXQ6AH_K@Z@Z 0000000140052a68     libucrtd:new_handler.obj
 0002:00011a68       $unwind$?initialize@?$dual_state_global@PEAU__crt_locale_data@@@__crt_state_management@@QEAAXQEAU__crt_locale_data@@@Z 0000000140052a68     libucrtd:initialization.obj
 0002:00011a68       $unwind$?initialize@?$dual_state_global@PEAU__crt_multibyte_data@@@__crt_state_management@@QEAAXQEAU__crt_multibyte_data@@@Z 0000000140052a68     libucrtd:mbctype.obj
 0002:00011a68       $unwind$?initialize@?$dual_state_global@P6AXH@Z@__crt_state_management@@QEAAXQ6AXH@Z@Z 0000000140052a68     libucrtd:signal.obj
 0002:00011a68       $unwind$__strncnt          0000000140052a68     libucrtd:strncnt.obj
 0002:00011a68       $unwind$??$last_reached@$0A@@@YA_NQEBX0@Z 0000000140052a68     libucrtd:strnlen.obj
 0002:00011a68       $unwind$?compare_equals@?$__crt_simd_traits@$0A@E@@SA?AT__m128i@@T2@0@Z 0000000140052a68     libucrtd:strnlen.obj
 0002:00011a68       $unwind$?compare_equals@?$__crt_simd_traits@$0A@G@@SA?AT__m128i@@T2@0@Z 0000000140052a68     libucrtd:strnlen.obj
 0002:00011a68       $unwind$?initialize@?$dual_state_global@P6AHPEAU_exception@@@Z@__crt_state_management@@QEAAXQ6AHPEAU_exception@@@Z@Z 0000000140052a68     libucrtd:matherr.obj
 0002:00011a68       $unwind$__AdjustPointer    0000000140052a68     libvcruntimed:ehhelpers.obj
 0002:00011a68       $unwind$??8iterator@HandlerMap@__FrameHandler3@@QEBA_NAEBV012@@Z 0000000140052a68     libvcruntimed:frame.obj
 0002:00011a68       $unwind$??Miterator@TryBlockMap@__FrameHandler3@@QEBA_NAEBV012@@Z 0000000140052a68     libvcruntimed:frame.obj
 0002:00011a70       $unwind$??$ensure_buffer_is_big_enough@D@formatting_buffer@__crt_stdio_output@@QEAA_N_KAEAV__crt_cached_ptd_host@@@Z 0000000140052a70     libucrtd:output.obj
 0002:00011a70       $unwind$??$ensure_buffer_is_big_enough@_W@formatting_buffer@__crt_stdio_output@@QEAA_N_KAEAV__crt_cached_ptd_host@@@Z 0000000140052a70     libucrtd:output.obj
 0002:00011a70       $unwind$__ascii_wcsnicmp   0000000140052a70     libucrtd:wcsnicmp.obj
 0002:00011a70       $unwind$__GSHandlerCheckCommon 0000000140052a70     LIBCMTD:gshandler.obj
 0002:00011a78       $unwind$?shift_bytes@@YAXQEAD_K0H@Z 0000000140052a78     libucrtd:cvt.obj
 0002:00011a78       $unwind$??$message_box@$$TAEBQEB_WAEBQEB_WK@?$__crt_char_traits@_W@@SAH$$QEA$$TAEBQEB_W1$$QEAK@Z 0000000140052a78     libucrtd:crtmbox.obj
 0002:00011a78       $unwind$??$message_box@PEAUHWND__@@AEBQEB_WAEBQEB_WAEBI@?$__crt_char_traits@_W@@SAH$$QEAPEAUHWND__@@AEBQEB_W1AEBI@Z 0000000140052a78     libucrtd:crtmbox.obj
 0002:00011a78       $unwind$_invoke_watson     0000000140052a78     libucrtd:invalid_parameter.obj
 0002:00011a78       $unwind$??$tcsncpy_s@AEAPEAD_KAEAPEADAEB_K@?$__crt_char_traits@D@@SAHAEAPEAD$$QEA_K0AEB_K@Z 0000000140052a78     libucrtd:argv_wildcards.obj
 0002:00011a78       $unwind$??$tcsncpy_s@PEADAEB_KAEBQEBDAEB_K@?$__crt_char_traits@D@@SAH$$QEAPEADAEB_KAEBQEBD1@Z 0000000140052a78     libucrtd:argv_wildcards.obj
 0002:00011a78       $unwind$??$tcsncpy_s@PEAD_KAEBQEBDAEB_K@?$__crt_char_traits@D@@SAH$$QEAPEAD$$QEA_KAEBQEBDAEB_K@Z 0000000140052a78     libucrtd:argv_wildcards.obj
 0002:00011a78       $unwind$strncpy_s          0000000140052a78     libucrtd:strncpy_s.obj
 0002:00011a78       $unwind$wcsncpy_s          0000000140052a78     libucrtd:wcsncpy_s.obj
 0002:00011a78       $unwind$__GSHandlerCheck   0000000140052a78     LIBCMTD:gshandler.obj
 0002:00011a78       $unwind$?BuildCatchObject@__FrameHandler3@@SAXPEAUEHExceptionRecord@@PEAXPEBU_s_HandlerType@@PEBU_s_CatchableType@@@Z 0000000140052a78     libvcruntimed:frame.obj
 0002:00011a80       $xdatasym                  0000000140052a80     LIBCMTD:chkstk.obj
 0002:00011a88       $xdatasym                  0000000140052a88     LIBCMTD:amdsecgs.obj
 0002:00011a90       $unwind$__dcrt_lowio_ensure_console_output_initialized 0000000140052a90     libucrtd:initcon.obj
 0002:00011a90       $unwind$__dcrt_terminate_console_output 0000000140052a90     libucrtd:initcon.obj
 0002:00011a90       $unwind$??$get_environment_from_os@$$V@?$__crt_char_traits@D@@SAPEADXZ 0000000140052a90     libucrtd:environment_initialization.obj
 0002:00011a90       $unwind$__dcrt_uninitialize_environments_nolock 0000000140052a90     libucrtd:environment_initialization.obj
 0002:00011a90       $unwind$_initialize_narrow_environment 0000000140052a90     libucrtd:environment_initialization.obj
 0002:00011a90       $unwind$__acrt_initialize_heap 0000000140052a90     libucrtd:heap_handle.obj
 0002:00011a90       $unwind$_query_new_mode    0000000140052a90     libucrtd:new_mode.obj
 0002:00011a90       $unwind$__acrt_initialize  0000000140052a90     libucrtd:initialization.obj
 0002:00011a90       $unwind$initialize_c       0000000140052a90     libucrtd:initialization.obj
 0002:00011a90       $unwind$initialize_global_variables 0000000140052a90     libucrtd:initialization.obj
 0002:00011a90       $unwind$__acrt_getptd_noexit 0000000140052a90     libucrtd:per_thread_data.obj
 0002:00011a90       $unwind$__acrt_initialize_ptd 0000000140052a90     libucrtd:per_thread_data.obj
 0002:00011a90       $unwind$__acrt_get_developer_information_policy 0000000140052a90     libucrtd:win_policies.obj
 0002:00011a90       $unwind$__acrt_get_process_end_policy 0000000140052a90     libucrtd:win_policies.obj
 0002:00011a90       $unwind$__acrt_get_windowing_model_policy 0000000140052a90     libucrtd:win_policies.obj
 0002:00011a90       $unwind$?try_get_AppPolicyGetProcessTerminationMethod@@YAP6AJPEAXPEAW4AppPolicyProcessTerminationMethod@@@ZXZ 0000000140052a90     libucrtd:winapi_thunks.obj
 0002:00011a90       $unwind$?try_get_AppPolicyGetShowDeveloperDiagnostic@@YAP6AJPEAXPEAW4AppPolicyShowDeveloperDiagnostic@@@ZXZ 0000000140052a90     libucrtd:winapi_thunks.obj
 0002:00011a90       $unwind$?try_get_AppPolicyGetWindowingModel@@YAP6AJPEAXPEAW4AppPolicyWindowingModel@@@ZXZ 0000000140052a90     libucrtd:winapi_thunks.obj
 0002:00011a90       $unwind$?try_get_AreFileApisANSI@@YAP6AHXZXZ 0000000140052a90     libucrtd:winapi_thunks.obj
 0002:00011a90       $unwind$?try_get_GetActiveWindow@@YAP6APEAUHWND__@@XZXZ 0000000140052a90     libucrtd:winapi_thunks.obj
 0002:00011a90       $unwind$?try_get_GetLastActivePopup@@YAP6APEAUHWND__@@PEAU1@@ZXZ 0000000140052a90     libucrtd:winapi_thunks.obj
 0002:00011a90       $unwind$?try_get_GetProcessWindowStation@@YAP6APEAUHWINSTA__@@XZXZ 0000000140052a90     libucrtd:winapi_thunks.obj
 0002:00011a90       $unwind$?try_get_GetUserObjectInformationW@@YAP6AHPEAXH0KPEAK@ZXZ 0000000140052a90     libucrtd:winapi_thunks.obj
 0002:00011a90       $unwind$?try_get_InitializeCriticalSectionEx@@YAP6AHPEAU_RTL_CRITICAL_SECTION@@KK@ZXZ 0000000140052a90     libucrtd:winapi_thunks.obj
 0002:00011a90       $unwind$?try_get_LCMapStringEx@@YAP6AHPEB_WK0HPEA_WHPEAU_nlsversioninfo@@PEAX_J@ZXZ 0000000140052a90     libucrtd:winapi_thunks.obj
 0002:00011a90       $unwind$?try_get_LocaleNameToLCID@@YAP6AKPEB_WK@ZXZ 0000000140052a90     libucrtd:winapi_thunks.obj
 0002:00011a90       $unwind$?try_get_MessageBoxA@@YAP6AHPEAUHWND__@@PEBD1I@ZXZ 0000000140052a90     libucrtd:winapi_thunks.obj
 0002:00011a90       $unwind$?try_get_MessageBoxW@@YAP6AHPEAUHWND__@@PEB_W1I@ZXZ 0000000140052a90     libucrtd:winapi_thunks.obj
 0002:00011a90       $unwind$__fpecode          0000000140052a90     libucrtd:signal.obj
 0002:00011a90       $unwind$__acrt_initialize_command_line 0000000140052a90     libucrtd:argv_data.obj
 0002:00011a90       $unwind$_get_narrow_winmain_command_line 0000000140052a90     libucrtd:argv_winmain.obj
 0002:00011a90       $unwind$?should_call_terminate_process@@YA_NXZ 0000000140052a90     libucrtd:exit.obj
 0002:00011a90       $unwind$_c_exit            0000000140052a90     libucrtd:exit.obj
 0002:00011a90       $unwind$_cexit             0000000140052a90     libucrtd:exit.obj
 0002:00011a90       $unwind$_flushall          0000000140052a90     libucrtd:fflush.obj
 0002:00011a90       $unwind$fegetround         0000000140052a90     libucrtd:fegetround.obj
 0002:00011a90       $unwind$?__scrt_common_main@@YAHXZ 0000000140052a90     LIBCMTD:exe_winmain.obj
 0002:00011a90       $unwind$?configure_argv@__scrt_narrow_argv_policy@@SAHXZ 0000000140052a90     LIBCMTD:exe_winmain.obj
 0002:00011a90       $unwind$?initialize_environment@__scrt_narrow_environment_policy@@SAHXZ 0000000140052a90     LIBCMTD:exe_winmain.obj
 0002:00011a90       $unwind$?post_pgo_initialization@@YAHXZ 0000000140052a90     LIBCMTD:exe_winmain.obj
 0002:00011a90       $unwind$?pre_c_initialization@@YAHXZ 0000000140052a90     LIBCMTD:exe_winmain.obj
 0002:00011a90       $unwind$?pre_cpp_initialization@@YAXXZ 0000000140052a90     LIBCMTD:exe_winmain.obj
 0002:00011a90       $unwind$?set_app_type@__scrt_winmain_policy@@SAXXZ 0000000140052a90     LIBCMTD:exe_winmain.obj
 0002:00011a90       $unwind$?set_fmode@__scrt_file_policy@@SAXXZ 0000000140052a90     LIBCMTD:exe_winmain.obj
 0002:00011a90       $unwind$__report_rangecheckfailure 0000000140052a90     LIBCMTD:gs_report.obj
 0002:00011a90       $unwind$?__scrt_initialize_type_info@@YAXXZ 0000000140052a90     LIBCMTD:tncleanup.obj
 0002:00011a90       $unwind$__scrt_initialize_mta 0000000140052a90     LIBCMTD:utility_desktop.obj
 0002:00011a90       $unwind$__scrt_set_unhandled_exception_filter 0000000140052a90     LIBCMTD:utility_desktop.obj
 0002:00011a90       $unwind$__current_exception 0000000140052a90     libvcruntimed:ehhelpers.obj
 0002:00011a90       $unwind$__current_exception_context 0000000140052a90     libvcruntimed:ehhelpers.obj
 0002:00011a90       $xdatasym$_CallSettingFrame 0000000140052a90     libvcruntimed:handlers.obj
 0002:00011a90       $unwind$__vcrt_initialize  0000000140052a90     libvcruntimed:initialization.obj
 0002:00011a90       $unwind$__vcrt_initialize_ptd 0000000140052a90     libvcruntimed:per_thread_data.obj
 0002:00011a90       $unwind$__vcrt_uninitialize_ptd 0000000140052a90     libvcruntimed:per_thread_data.obj
 0002:00011a90       $unwind$_GetImageBase      0000000140052a90     libvcruntimed:risctrnsctrl.obj
 0002:00011a90       $unwind$_GetThrowImageBase 0000000140052a90     libvcruntimed:risctrnsctrl.obj
 0002:00011a90       $unwind$?try_get_FlsAlloc@@YAP6AKP6AXPEAX@Z@ZXZ 0000000140052a90     libvcruntimed:winapi_downlevel.obj
 0002:00011a90       $unwind$?try_get_FlsFree@@YAP6AHK@ZXZ 0000000140052a90     libvcruntimed:winapi_downlevel.obj
 0002:00011a90       $unwind$?try_get_FlsGetValue@@YAP6APEAXK@ZXZ 0000000140052a90     libvcruntimed:winapi_downlevel.obj
 0002:00011a90       $unwind$?try_get_FlsSetValue@@YAP6AHKPEAX@ZXZ 0000000140052a90     libvcruntimed:winapi_downlevel.obj
 0002:00011a90       $unwind$?try_get_InitializeCriticalSectionEx@@YAP6AHPEAU_RTL_CRITICAL_SECTION@@KK@ZXZ 0000000140052a90     libvcruntimed:winapi_downlevel.obj
 0002:00011a98       $unwind$?__scrt_common_main_seh@@YAHXZ 0000000140052a98     LIBCMTD:exe_winmain.obj
 0002:00011ab8       $unwind$?filt$0@?0??is_bad_read_pointer@@YA_NQEBX_K@Z@4HA 0000000140052ab8     libucrtd:debug_heap.obj
 0002:00011ab8       $unwind$_free_dbg$fin$0    0000000140052ab8     libucrtd:debug_heap.obj
 0002:00011ab8       $unwind$_query_new_handler$fin$0 0000000140052ab8     libucrtd:new_handler.obj
 0002:00011ab8       $unwind$?fin$0@?0???$?RV<lambda_0ae27a3a962d80f24befdcbee591983d>@@AEAV<lambda_8d0ee55de4b1038c4002e0adecdf1839>@@V<lambda_dc504788e8f1664fe9b84e20bfb512f2>@@@?$__crt_seh_guarded_call@X@@QEAAX$$QEAV<lambda_0ae27a3a962d80f24befdcbee591983d>@@AEAV<lambda_8d0ee55de4b1038c4002e0adecdf1839>@@$$QEAV<lambda_dc504788e8f1664fe9b84e20bfb512f2>@@@Z@4HA 0000000140052ab8     libucrtd:per_thread_data.obj
 0002:00011ab8       $unwind$?fin$0@?0???$?RV<lambda_2d41944a1d46af3157314b8a01080d33>@@AEAV<lambda_8f455de75cd7d7f24b4096f044d8b9e6>@@V<lambda_aa500f224e6afead328df44964fe2772>@@@?$__crt_seh_guarded_call@X@@QEAAX$$QEAV<lambda_2d41944a1d46af3157314b8a01080d33>@@AEAV<lambda_8f455de75cd7d7f24b4096f044d8b9e6>@@$$QEAV<lambda_aa500f224e6afead328df44964fe2772>@@@Z@4HA 0000000140052ab8     libucrtd:per_thread_data.obj
 0002:00011ab8       $unwind$?fin$0@?0???$?RV<lambda_74a0ef281e44d15e1136f792f539efb3>@@AEAV<lambda_e157831efee4ea0afb0a2ace5dd5fd0d>@@V<lambda_04ddeca75b7c13fd67716e8dfcef87ee>@@@?$__crt_seh_guarded_call@X@@QEAAX$$QEAV<lambda_74a0ef281e44d15e1136f792f539efb3>@@AEAV<lambda_e157831efee4ea0afb0a2ace5dd5fd0d>@@$$QEAV<lambda_04ddeca75b7c13fd67716e8dfcef87ee>@@@Z@4HA 0000000140052ab8     libucrtd:per_thread_data.obj
 0002:00011ab8       $unwind$?fin$0@?0???$?RV<lambda_aa87e3671a710a21b5dc78c0bdf72e11>@@AEAV<lambda_92619d2358a28f41a33ba319515a20b9>@@V<lambda_6992ecaafeb10aed2b74cb1fae11a551>@@@?$__crt_seh_guarded_call@X@@QEAAX$$QEAV<lambda_aa87e3671a710a21b5dc78c0bdf72e11>@@AEAV<lambda_92619d2358a28f41a33ba319515a20b9>@@$$QEAV<lambda_6992ecaafeb10aed2b74cb1fae11a551>@@@Z@4HA 0000000140052ab8     libucrtd:per_thread_data.obj
 0002:00011ab8       $unwind$__acrt_update_thread_locale_data$fin$0 0000000140052ab8     libucrtd:locale_refcounting.obj
 0002:00011ab8       $unwind$?fin$0@?0???$?RV<lambda_410d79af7f07d98d83a3f525b3859a53>@@AEAV<lambda_3e16ef9562a7dcce91392c22ab16ea36>@@V<lambda_38119f0e861e05405d8a144b9b982f0a>@@@?$__crt_seh_guarded_call@X@@QEAAX$$QEAV<lambda_410d79af7f07d98d83a3f525b3859a53>@@AEAV<lambda_3e16ef9562a7dcce91392c22ab16ea36>@@$$QEAV<lambda_38119f0e861e05405d8a144b9b982f0a>@@@Z@4HA 0000000140052ab8     libucrtd:wsetlocale.obj
 0002:00011ab8       $unwind$?fin$0@?0???$?RV<lambda_19eaff14c5fe7be5b1b106a862eb1091>@@AEAV<lambda_af29824b49a67d335554598d6cad2be6>@@V<lambda_3ce37f5b621ab310299ea5f68cbdf3bb>@@@?$__crt_seh_guarded_call@H@@QEAAH$$QEAV<lambda_19eaff14c5fe7be5b1b106a862eb1091>@@AEAV<lambda_af29824b49a67d335554598d6cad2be6>@@$$QEAV<lambda_3ce37f5b621ab310299ea5f68cbdf3bb>@@@Z@4HA 0000000140052ab8     libucrtd:close.obj
 0002:00011ab8       $unwind$?fin$0@?0???$?RV<lambda_7d29013d608e9f25a034de83c9b9e983>@@AEAV<lambda_3e4146214822e0ea86c47ff907aef2ff>@@V<lambda_b869e5a4e1069fcb5c3da79c0d999133>@@@?$__crt_seh_guarded_call@H@@QEAAH$$QEAV<lambda_7d29013d608e9f25a034de83c9b9e983>@@AEAV<lambda_3e4146214822e0ea86c47ff907aef2ff>@@$$QEAV<lambda_b869e5a4e1069fcb5c3da79c0d999133>@@@Z@4HA 0000000140052ab8     libucrtd:commit.obj
 0002:00011ab8       $unwind$__acrt_initialize_lowio$fin$0 0000000140052ab8     libucrtd:ioinit.obj
 0002:00011ab8       $unwind$?fin$0@?0???$?RV<lambda_efa02eb69bf647d2f7ff0dd6f1103f72>@@AEAV<lambda_bd5a608237428601b7e45fbdc72b1ae8>@@V<lambda_728235dc0fc2b1f82d1fa5b3e7102d8f>@@@?$__crt_seh_guarded_call@X@@QEAAX$$QEAV<lambda_efa02eb69bf647d2f7ff0dd6f1103f72>@@AEAV<lambda_bd5a608237428601b7e45fbdc72b1ae8>@@$$QEAV<lambda_728235dc0fc2b1f82d1fa5b3e7102d8f>@@@Z@4HA 0000000140052ab8     libucrtd:mbctype.obj
 0002:00011ab8       $unwind$?fin$0@?0??update_thread_multibyte_data_internal@@YAPEAU__crt_multibyte_data@@QEAU__acrt_ptd@@QEAPEAU1@@Z@4HA 0000000140052ab8     libucrtd:mbctype.obj
 0002:00011ab8       $unwind$?fin$0@?0???$?RV<lambda_450d765d439847d4c735a33c368b5fc0>@@AEAV<lambda_44731a7d0e6d81c3e6aa82d741081786>@@V<lambda_601a2a7da3b7a96e9554ac7215c4b07c>@@@?$__crt_seh_guarded_call@P6AXH@Z@@QEAAP6AXH@Z$$QEAV<lambda_450d765d439847d4c735a33c368b5fc0>@@AEAV<lambda_44731a7d0e6d81c3e6aa82d741081786>@@$$QEAV<lambda_601a2a7da3b7a96e9554ac7215c4b07c>@@@Z@4HA 0000000140052ab8     libucrtd:signal.obj
 0002:00011ab8       $unwind$terminate$filt$0   0000000140052ab8     libucrtd:terminate.obj
 0002:00011ab8       $unwind$?filt$0@?0???R<lambda_6e4b09c48022b2350581041d5f6b0c4c>@@QEBA@XZ@4HA 0000000140052ab8     libucrtd:exit.obj
 0002:00011ab8       $unwind$?fin$0@?0???$?RV<lambda_d80eeec6fff315bfe5c115232f3240e3>@@AEAV<lambda_6e4b09c48022b2350581041d5f6b0c4c>@@V<lambda_2358e3775559c9db80273638284d5e45>@@@?$__crt_seh_guarded_call@X@@QEAAX$$QEAV<lambda_d80eeec6fff315bfe5c115232f3240e3>@@AEAV<lambda_6e4b09c48022b2350581041d5f6b0c4c>@@$$QEAV<lambda_2358e3775559c9db80273638284d5e45>@@@Z@4HA 0000000140052ab8     libucrtd:exit.obj
 0002:00011ab8       $unwind$?dtor$0@?0???R<lambda_d121dba8a4adeaf3a9819e48611155df>@@QEBA@XZ@4HA 0000000140052ab8     libucrtd:onexit.obj
 0002:00011ab8       $unwind$?fin$0@?0???$?RV<lambda_6a47f4c8fd0152770a780fc1d70204eb>@@AEAV<lambda_d121dba8a4adeaf3a9819e48611155df>@@V<lambda_6aaa2265f5b6a89667e7d7630012e97a>@@@?$__crt_seh_guarded_call@H@@QEAAH$$QEAV<lambda_6a47f4c8fd0152770a780fc1d70204eb>@@AEAV<lambda_d121dba8a4adeaf3a9819e48611155df>@@$$QEAV<lambda_6aaa2265f5b6a89667e7d7630012e97a>@@@Z@4HA 0000000140052ab8     libucrtd:onexit.obj
 0002:00011ab8       $unwind$?fin$0@?0???$?RV<lambda_80060f20ac3990516b753a27f211934c>@@AEAV<lambda_208ce30acdd7200aa596f2796f4d5154>@@V<lambda_fd91b99c0687e8936f1d70d7d9b78e69>@@@?$__crt_seh_guarded_call@H@@QEAAH$$QEAV<lambda_80060f20ac3990516b753a27f211934c>@@AEAV<lambda_208ce30acdd7200aa596f2796f4d5154>@@$$QEAV<lambda_fd91b99c0687e8936f1d70d7d9b78e69>@@@Z@4HA 0000000140052ab8     libucrtd:onexit.obj
 0002:00011ab8       $unwind$_fcloseall$fin$0   0000000140052ab8     libucrtd:closeall.obj
 0002:00011ab8       $unwind$?fin$0@?0???$?RV<lambda_842d9ff0dc9ef11c61343bbaebe7f885>@@AEAV<lambda_c5860995281e5c4ce005b3de8f5874ee>@@V<lambda_d90129c13df834fdcbf8d2b88dafcf2d>@@@?$__crt_seh_guarded_call@X@@QEAAX$$QEAV<lambda_842d9ff0dc9ef11c61343bbaebe7f885>@@AEAV<lambda_c5860995281e5c4ce005b3de8f5874ee>@@$$QEAV<lambda_d90129c13df834fdcbf8d2b88dafcf2d>@@@Z@4HA 0000000140052ab8     libucrtd:fflush.obj
 0002:00011ab8       $unwind$?fin$0@?0???$?RV<lambda_886d6c58226a84441f68b9f2b8217b83>@@AEAV<lambda_ab61a845afdef5b7c387490eaf3616ee>@@V<lambda_f7f22ab5edc0698d5f6905b0d3f44752>@@@?$__crt_seh_guarded_call@X@@QEAAX$$QEAV<lambda_886d6c58226a84441f68b9f2b8217b83>@@AEAV<lambda_ab61a845afdef5b7c387490eaf3616ee>@@$$QEAV<lambda_f7f22ab5edc0698d5f6905b0d3f44752>@@@Z@4HA 0000000140052ab8     libucrtd:fflush.obj
 0002:00011ab8       $unwind$?dtor$0@?0??shortsort@@YAXPEAD0_KP6AHPEBX2@Z@Z@4HA 0000000140052ab8     libucrtd:qsort.obj
 0002:00011ab8       $unwind$_ctrlfp$filt$0     0000000140052ab8     libucrtd:fpctrl.obj
 0002:00011ab8       $unwind$?filt$0@?0??__scrt_common_main_seh@@YAHXZ@4HA 0000000140052ab8     LIBCMTD:exe_winmain.obj
 0002:00011ab8       $unwind$_IsNonwritableInCurrentImage$filt$0 0000000140052ab8     LIBCMTD:pesect.obj
 0002:00011ab8       $unwind$__scrt_is_nonwritable_in_current_image$filt$0 0000000140052ab8     LIBCMTD:utility.obj
 0002:00011ab8       $unwind$__DestructExceptionObject$filt$0 0000000140052ab8     libvcruntimed:ehhelpers.obj
 0002:00011ab8       $unwind$?filt$0@?0???$BuildCatchObjectHelperInternal@V__FrameHandler3@@@@YAHPEAUEHExceptionRecord@@PEAXPEBU_s_HandlerType@@PEBU_s_CatchableType@@@Z@4HA 0000000140052ab8     libvcruntimed:frame.obj
 0002:00011ab8       $unwind$?filt$0@?0???$BuildCatchObjectInternal@V__FrameHandler3@@@@YAXPEAUEHExceptionRecord@@PEAXPEBU_s_HandlerType@@PEBU_s_CatchableType@@@Z@4HA 0000000140052ab8     libvcruntimed:frame.obj
 0002:00011ab8       $unwind$?filt$0@?0??CxxCallCatchBlock@__FrameHandler3@@SAPEAXPEAU_EXCEPTION_RECORD@@@Z@4HA 0000000140052ab8     libvcruntimed:frame.obj
 0002:00011ab8       $unwind$?filt$0@?0??FrameUnwindToState@__FrameHandler3@@SAXPEA_KPEAU_xDISPATCHER_CONTEXT@@PEBU_s_FuncInfo@@H@Z@4HA 0000000140052ab8     libvcruntimed:frame.obj
 0002:00011ab8       $unwind$?fin$1@?0??CxxCallCatchBlock@__FrameHandler3@@SAPEAXPEAU_EXCEPTION_RECORD@@@Z@4HA 0000000140052ab8     libvcruntimed:frame.obj
 0002:00011ab8       $unwind$?fin$1@?0??FrameUnwindToState@__FrameHandler3@@SAXPEA_KPEAU_xDISPATCHER_CONTEXT@@PEBU_s_FuncInfo@@H@Z@4HA 0000000140052ab8     libvcruntimed:frame.obj
 0002:00011ac0       $unwind$??$tcslen@AEAPEAD@?$__crt_char_traits@D@@SA_KAEAPEAD@Z 0000000140052ac0     libucrtd:environment_initialization.obj
 0002:00011ac0       $unwind$??$uninitialize_environment_internal@D@@YAXAEAPEAPEAD@Z 0000000140052ac0     libucrtd:environment_initialization.obj
 0002:00011ac0       $unwind$??$uninitialize_environment_internal@_W@@YAXAEAPEAPEA_W@Z 0000000140052ac0     libucrtd:environment_initialization.obj
 0002:00011ac0       $unwind$??B?$__crt_unique_heap_ptr@PEADU__crt_internal_free_policy@@@@QEBA_NXZ 0000000140052ac0     libucrtd:environment_initialization.obj
 0002:00011ac0       $unwind$?value@?$dual_state_global@PEAPEAD@__crt_state_management@@QEAAAEAPEAPEADXZ 0000000140052ac0     libucrtd:environment_initialization.obj
 0002:00011ac0       $unwind$??1?$__crt_unique_handle_t@Uenvironment_strings_traits@?A0x1bf47908@@@@QEAA@XZ 0000000140052ac0     libucrtd:get_environment_from_os.obj
 0002:00011ac0       $unwind$?close@?$__crt_unique_handle_t@Uenvironment_strings_traits@?A0x1bf47908@@@@QEAAXXZ 0000000140052ac0     libucrtd:get_environment_from_os.obj
 0002:00011ac0       $unwind$?close@environment_strings_traits@?A0x1bf47908@@SA_NPEA_W@Z 0000000140052ac0     libucrtd:get_environment_from_os.obj
 0002:00011ac0       $unwind$??0big_integer@__crt_strtox@@QEAA@XZ 0000000140052ac0     libucrtd:cfout.obj
 0002:00011ac0       $unwind$??0scoped_fp_state_reset@?A0x71ca7cfb@@QEAA@XZ 0000000140052ac0     libucrtd:cfout.obj
 0002:00011ac0       $unwind$??1scoped_fp_state_reset@?A0x71ca7cfb@@QEAA@XZ 0000000140052ac0     libucrtd:cfout.obj
 0002:00011ac0       $unwind$??1_LocaleUpdate@@QEAA@XZ 0000000140052ac0     libucrtd:debug_heap.obj
 0002:00011ac0       $unwind$malloc             0000000140052ac0     libucrtd:malloc.obj
 0002:00011ac0       $unwind$??$__crt_fast_decode_pointer@P6AH_K@Z@@YAP6AH_K@ZQ6AH0@Z@Z 0000000140052ac0     libucrtd:new_handler.obj
 0002:00011ac0       $unwind$?value@?$dual_state_global@P6AH_K@Z@__crt_state_management@@QEAAAEAP6AH_K@ZXZ 0000000140052ac0     libucrtd:new_handler.obj
 0002:00011ac0       $unwind$__acrt_initialize_new_handler 0000000140052ac0     libucrtd:new_handler.obj
 0002:00011ac0       $unwind$?value@?$dual_state_global@J@__crt_state_management@@QEAAAEAJXZ 0000000140052ac0     libucrtd:new_mode.obj
 0002:00011ac0       $unwind$?set_to_nullptr@?$__crt_win32_buffer@DU__crt_win32_buffer_no_resizing@@@@QEAAXXZ 0000000140052ac0     libucrtd:getmodulefilenamea.obj
 0002:00011ac0       $unwind$??$?BX@__crt_fast_encoded_nullptr_t@@QEBAPEAXXZ 0000000140052ac0     libucrtd:initialization.obj
 0002:00011ac0       $unwind$??$__crt_fast_encode_pointer@PEAX@@YAPEAXQEAX@Z 0000000140052ac0     libucrtd:initialization.obj
 0002:00011ac0       $unwind$??1?$__crt_unique_heap_ptr@U__acrt_ptd@@U__crt_internal_free_policy@@@@QEAA@XZ 0000000140052ac0     libucrtd:per_thread_data.obj
 0002:00011ac0       $unwind$??B?$__crt_unique_heap_ptr@U__acrt_ptd@@U__crt_internal_free_policy@@@@QEBA_NXZ 0000000140052ac0     libucrtd:per_thread_data.obj
 0002:00011ac0       $unwind$??R<lambda_04ddeca75b7c13fd67716e8dfcef87ee>@@QEBA@XZ 0000000140052ac0     libucrtd:per_thread_data.obj
 0002:00011ac0       $unwind$??R<lambda_0ae27a3a962d80f24befdcbee591983d>@@QEBA@XZ 0000000140052ac0     libucrtd:per_thread_data.obj
 0002:00011ac0       $unwind$??R<lambda_2d41944a1d46af3157314b8a01080d33>@@QEBA@XZ 0000000140052ac0     libucrtd:per_thread_data.obj
 0002:00011ac0       $unwind$??R<lambda_6992ecaafeb10aed2b74cb1fae11a551>@@QEBA@XZ 0000000140052ac0     libucrtd:per_thread_data.obj
 0002:00011ac0       $unwind$??R<lambda_74a0ef281e44d15e1136f792f539efb3>@@QEBA@XZ 0000000140052ac0     libucrtd:per_thread_data.obj
 0002:00011ac0       $unwind$??R<lambda_8f455de75cd7d7f24b4096f044d8b9e6>@@QEBA@XZ 0000000140052ac0     libucrtd:per_thread_data.obj
 0002:00011ac0       $unwind$??R<lambda_92619d2358a28f41a33ba319515a20b9>@@QEBA@XZ 0000000140052ac0     libucrtd:per_thread_data.obj
 0002:00011ac0       $unwind$??R<lambda_aa500f224e6afead328df44964fe2772>@@QEBA@XZ 0000000140052ac0     libucrtd:per_thread_data.obj
 0002:00011ac0       $unwind$??R<lambda_aa87e3671a710a21b5dc78c0bdf72e11>@@QEBA@XZ 0000000140052ac0     libucrtd:per_thread_data.obj
 0002:00011ac0       $unwind$??R<lambda_dc504788e8f1664fe9b84e20bfb512f2>@@QEBA@XZ 0000000140052ac0     libucrtd:per_thread_data.obj
 0002:00011ac0       $unwind$?destroy_fls@@YAXPEAX@Z 0000000140052ac0     libucrtd:per_thread_data.obj
 0002:00011ac0       $unwind$?appmodel_get_policy@developer_information_policy_properties@?1??__acrt_get_developer_information_policy@@YA?AW4developer_information_policy@@XZ@SAJPEAW4AppPolicyShowDeveloperDiagnostic@@@Z 0000000140052ac0     libucrtd:win_policies.obj
 0002:00011ac0       $unwind$?appmodel_get_policy@process_end_policy_properties@?1??__acrt_get_process_end_policy@@YA?AW4process_end_policy@@XZ@SAJPEAW4AppPolicyProcessTerminationMethod@@@Z 0000000140052ac0     libucrtd:win_policies.obj
 0002:00011ac0       $unwind$?appmodel_get_policy@windowing_model_policy_properties@?1??__acrt_get_windowing_model_policy@@YA?AW4windowing_model_policy@@XZ@SAJPEAW4AppPolicyWindowingModel@@@Z 0000000140052ac0     libucrtd:win_policies.obj
 0002:00011ac0       $unwind$??$__crt_fast_decode_pointer@PEAX@@YAPEAXQEAX@Z 0000000140052ac0     libucrtd:winapi_thunks.obj
 0002:00011ac0       $unwind$__acrt_FlsAlloc    0000000140052ac0     libucrtd:winapi_thunks.obj
 0002:00011ac0       $unwind$??1?$__crt_scoped_stack_ptr@_W@@QEAA@XZ 0000000140052ac0     libucrtd:getstringtypea.obj
 0002:00011ac0       $unwind$__acrt_locale_free_monetary 0000000140052ac0     libucrtd:initmon.obj
 0002:00011ac0       $unwind$__acrt_locale_free_numeric 0000000140052ac0     libucrtd:initnum.obj
 0002:00011ac0       $unwind$??$free_crt_array@D$01@@YAXAEAY01PEAD@Z 0000000140052ac0     libucrtd:inittime.obj
 0002:00011ac0       $unwind$??$free_crt_array@D$06@@YAXAEAY06PEAD@Z 0000000140052ac0     libucrtd:inittime.obj
 0002:00011ac0       $unwind$??$free_crt_array@D$0M@@@YAXAEAY0M@PEAD@Z 0000000140052ac0     libucrtd:inittime.obj
 0002:00011ac0       $unwind$??$free_crt_array@_W$01@@YAXAEAY01PEA_W@Z 0000000140052ac0     libucrtd:inittime.obj
 0002:00011ac0       $unwind$??$free_crt_array@_W$06@@YAXAEAY06PEA_W@Z 0000000140052ac0     libucrtd:inittime.obj
 0002:00011ac0       $unwind$??$free_crt_array@_W$0M@@@YAXAEAY0M@PEA_W@Z 0000000140052ac0     libucrtd:inittime.obj
 0002:00011ac0       $unwind$__acrt_locale_free_time 0000000140052ac0     libucrtd:inittime.obj
 0002:00011ac0       $unwind$__acrt_locale_free_lc_time_if_unreferenced 0000000140052ac0     libucrtd:locale_refcounting.obj
 0002:00011ac0       $unwind$??1?$__crt_unique_heap_ptr@U__crt_multibyte_data@@U__crt_internal_free_policy@@@@QEAA@XZ 0000000140052ac0     libucrtd:wsetlocale.obj
 0002:00011ac0       $unwind$??B?$__crt_unique_heap_ptr@U__crt_multibyte_data@@U__crt_internal_free_policy@@@@QEBA_NXZ 0000000140052ac0     libucrtd:wsetlocale.obj
 0002:00011ac0       $unwind$??R<lambda_38119f0e861e05405d8a144b9b982f0a>@@QEBA@XZ 0000000140052ac0     libucrtd:wsetlocale.obj
 0002:00011ac0       $unwind$??R<lambda_410d79af7f07d98d83a3f525b3859a53>@@QEBA@XZ 0000000140052ac0     libucrtd:wsetlocale.obj
 0002:00011ac0       $unwind$?value@?$dual_state_global@PEAU__crt_locale_data@@@__crt_state_management@@QEAAAEAPEAU__crt_locale_data@@XZ 0000000140052ac0     libucrtd:wsetlocale.obj
 0002:00011ac0       $unwind$??R<lambda_19eaff14c5fe7be5b1b106a862eb1091>@@QEBA@XZ 0000000140052ac0     libucrtd:close.obj
 0002:00011ac0       $unwind$??R<lambda_3ce37f5b621ab310299ea5f68cbdf3bb>@@QEBA@XZ 0000000140052ac0     libucrtd:close.obj
 0002:00011ac0       $unwind$??R<lambda_7d29013d608e9f25a034de83c9b9e983>@@QEBA@XZ 0000000140052ac0     libucrtd:commit.obj
 0002:00011ac0       $unwind$??R<lambda_b869e5a4e1069fcb5c3da79c0d999133>@@QEBA@XZ 0000000140052ac0     libucrtd:commit.obj
 0002:00011ac0       $unwind$??1?$__crt_unique_heap_ptr@U__crt_lowio_handle_data@@U__crt_internal_free_policy@@@@QEAA@XZ 0000000140052ac0     libucrtd:osfinfo.obj
 0002:00011ac0       $unwind$??B?$__crt_unique_heap_ptr@U__crt_lowio_handle_data@@U__crt_internal_free_policy@@@@QEBA_NXZ 0000000140052ac0     libucrtd:osfinfo.obj
 0002:00011ac0       $unwind$?value@?$dual_state_global@H@__crt_state_management@@QEAAAEAHXZ 0000000140052ac0     libucrtd:setmode.obj
 0002:00011ac0       $unwind$??R<lambda_728235dc0fc2b1f82d1fa5b3e7102d8f>@@QEBA@XZ 0000000140052ac0     libucrtd:mbctype.obj
 0002:00011ac0       $unwind$??R<lambda_efa02eb69bf647d2f7ff0dd6f1103f72>@@QEBA@XZ 0000000140052ac0     libucrtd:mbctype.obj
 0002:00011ac0       $unwind$?value@?$dual_state_global@PEAE@__crt_state_management@@QEAAAEAPEAEXZ 0000000140052ac0     libucrtd:mbctype.obj
 0002:00011ac0       $unwind$?value@?$dual_state_global@PEAU__crt_multibyte_data@@@__crt_state_management@@QEAAAEAPEAU__crt_multibyte_data@@XZ 0000000140052ac0     libucrtd:mbctype.obj
 0002:00011ac0       $unwind$??$output_debug_string@AEBQEB_W@?$__crt_char_traits@_W@@SAXAEBQEB_W@Z 0000000140052ac0     libucrtd:crtmbox.obj
 0002:00011ac0       $unwind$??$tcslen@AEAY0BAF@D@?$__crt_char_traits@D@@SA_KAEAY0BAF@D@Z 0000000140052ac0     libucrtd:dbgrpt.obj
 0002:00011ac0       $unwind$??$tcslen@AEAY0BAF@_W@?$__crt_char_traits@_W@@SA_KAEAY0BAF@_W@Z 0000000140052ac0     libucrtd:dbgrpt.obj
 0002:00011ac0       $unwind$??$tcslen@AEBQEBD@?$__crt_char_traits@D@@SA_KAEBQEBD@Z 0000000140052ac0     libucrtd:dbgrpt.obj
 0002:00011ac0       $unwind$??$tcslen@AEBQEB_W@?$__crt_char_traits@_W@@SA_KAEBQEB_W@Z 0000000140052ac0     libucrtd:dbgrpt.obj
 0002:00011ac0       $unwind$??$__crt_fast_decode_pointer@P6AXPEB_W00I_K@Z@@YAP6AXPEB_W00I_K@ZQ6AX000I1@Z@Z 0000000140052ac0     libucrtd:invalid_parameter.obj
 0002:00011ac0       $unwind$??0__crt_scoped_get_last_error_reset@@QEAA@XZ 0000000140052ac0     libucrtd:invalid_parameter.obj
 0002:00011ac0       $unwind$??1__crt_scoped_get_last_error_reset@@QEAA@XZ 0000000140052ac0     libucrtd:invalid_parameter.obj
 0002:00011ac0       $unwind$?check_synchronize_per_thread_data@__crt_cached_ptd_host@@AEAAPEAU__acrt_ptd@@XZ 0000000140052ac0     libucrtd:invalid_parameter.obj
 0002:00011ac0       $unwind$?get_current_global_state_index@__crt_cached_ptd_host@@QEAA_KXZ 0000000140052ac0     libucrtd:invalid_parameter.obj
 0002:00011ac0       $unwind$?get_raw_ptd@__crt_cached_ptd_host@@QEAAPEAU__acrt_ptd@@XZ 0000000140052ac0     libucrtd:invalid_parameter.obj
 0002:00011ac0       $unwind$?get_raw_ptd_noexit@__crt_cached_ptd_host@@QEAAPEAU__acrt_ptd@@XZ 0000000140052ac0     libucrtd:invalid_parameter.obj
 0002:00011ac0       $unwind$?try_synchronize_per_thread_data@__crt_cached_ptd_host@@AEAAPEAU__acrt_ptd@@XZ 0000000140052ac0     libucrtd:invalid_parameter.obj
 0002:00011ac0       $unwind$??$?B$$A6AXH@Z@__crt_fast_encoded_nullptr_t@@QEBAP6AXH@ZXZ 0000000140052ac0     libucrtd:signal.obj
 0002:00011ac0       $unwind$??$__crt_fast_decode_pointer@P6AXH@Z@@YAP6AXH@ZQ6AXH@Z@Z 0000000140052ac0     libucrtd:signal.obj
 0002:00011ac0       $unwind$??$__crt_fast_encode_pointer@P6AXH@Z@@YAP6AXH@ZQ6AXH@Z@Z 0000000140052ac0     libucrtd:signal.obj
 0002:00011ac0       $unwind$??R<lambda_44731a7d0e6d81c3e6aa82d741081786>@@QEBA@XZ 0000000140052ac0     libucrtd:signal.obj
 0002:00011ac0       $unwind$??R<lambda_450d765d439847d4c735a33c368b5fc0>@@QEBA@XZ 0000000140052ac0     libucrtd:signal.obj
 0002:00011ac0       $unwind$??R<lambda_601a2a7da3b7a96e9554ac7215c4b07c>@@QEBA@XZ 0000000140052ac0     libucrtd:signal.obj
 0002:00011ac0       $unwind$?value@?$dual_state_global@P6AXH@Z@__crt_state_management@@QEAAAEAP6AXH@ZXZ 0000000140052ac0     libucrtd:signal.obj
 0002:00011ac0       $unwind$__acrt_initialize_signal_handlers 0000000140052ac0     libucrtd:signal.obj
 0002:00011ac0       $unwind$??$set_program_name@PEAD@?$__crt_char_traits@D@@SAX$$QEAPEAD@Z 0000000140052ac0     libucrtd:argv_parsing.obj
 0002:00011ac0       $unwind$??1?$__crt_unique_heap_ptr@EU__crt_internal_free_policy@@@@QEAA@XZ 0000000140052ac0     libucrtd:argv_parsing.obj
 0002:00011ac0       $unwind$??1?$__crt_unique_heap_ptr@PEADU__crt_internal_free_policy@@@@QEAA@XZ 0000000140052ac0     libucrtd:argv_parsing.obj
 0002:00011ac0       $unwind$??B?$__crt_unique_heap_ptr@EU__crt_internal_free_policy@@@@QEBA_NXZ 0000000140052ac0     libucrtd:argv_parsing.obj
 0002:00011ac0       $unwind$??1?$__crt_unique_handle_t@U__crt_findfile_traits@@@@QEAA@XZ 0000000140052ac0     libucrtd:argv_wildcards.obj
 0002:00011ac0       $unwind$?close@?$__crt_unique_handle_t@U__crt_findfile_traits@@@@QEAAXXZ 0000000140052ac0     libucrtd:argv_wildcards.obj
 0002:00011ac0       $unwind$?set_to_nullptr@?$__crt_win32_buffer@DU__crt_win32_buffer_internal_dynamic_resizing@@@@QEAAXXZ 0000000140052ac0     libucrtd:argv_wildcards.obj
 0002:00011ac0       $unwind$?set_to_nullptr@?$__crt_win32_buffer@_WU__crt_win32_buffer_internal_dynamic_resizing@@@@QEAAXXZ 0000000140052ac0     libucrtd:argv_wildcards.obj
 0002:00011ac0       $unwind$??$?B$$A6AXPEAXK0@Z@__crt_fast_encoded_nullptr_t@@QEBAP6AXPEAXK0@ZXZ 0000000140052ac0     libucrtd:exit.obj
 0002:00011ac0       $unwind$??$__crt_fast_decode_pointer@P6AXPEAXK0@Z@@YAP6AXPEAXK0@ZQ6AX0K0@Z@Z 0000000140052ac0     libucrtd:exit.obj
 0002:00011ac0       $unwind$??$__crt_fast_encode_pointer@P6AXPEAXK0@Z@@YAP6AXPEAXK0@ZQ6AX0K0@Z@Z 0000000140052ac0     libucrtd:exit.obj
 0002:00011ac0       $unwind$??$__crt_interlocked_read@J@@YAJPEDJ@Z 0000000140052ac0     libucrtd:exit.obj
 0002:00011ac0       $unwind$??1?$__crt_unique_handle_t@U__crt_hmodule_traits@@@@QEAA@XZ 0000000140052ac0     libucrtd:exit.obj
 0002:00011ac0       $unwind$??R<lambda_2358e3775559c9db80273638284d5e45>@@QEBA@XZ 0000000140052ac0     libucrtd:exit.obj
 0002:00011ac0       $unwind$??R<lambda_d80eeec6fff315bfe5c115232f3240e3>@@QEBA@XZ 0000000140052ac0     libucrtd:exit.obj
 0002:00011ac0       $unwind$?close@?$__crt_unique_handle_t@U__crt_hmodule_traits@@@@QEAAXXZ 0000000140052ac0     libucrtd:exit.obj
 0002:00011ac0       $unwind$??$?B$$A6AXXZ@__crt_fast_encoded_nullptr_t@@QEBAP6AXXZXZ 0000000140052ac0     libucrtd:onexit.obj
 0002:00011ac0       $unwind$??$?BP6AXXZ@__crt_fast_encoded_nullptr_t@@QEBAPEAP6AXXZXZ 0000000140052ac0     libucrtd:onexit.obj
 0002:00011ac0       $unwind$??$__crt_fast_decode_pointer@P6AXXZ@@YAP6AXXZQ6AXXZ@Z 0000000140052ac0     libucrtd:onexit.obj
 0002:00011ac0       $unwind$??$__crt_fast_decode_pointer@PEAP6AXXZ@@YAPEAP6AXXZQEAP6AXXZ@Z 0000000140052ac0     libucrtd:onexit.obj
 0002:00011ac0       $unwind$??$__crt_fast_encode_pointer@P6AHXZ@@YAP6AHXZQ6AHXZ@Z 0000000140052ac0     libucrtd:onexit.obj
 0002:00011ac0       $unwind$??$__crt_fast_encode_pointer@P6AXXZ@@YAP6AXXZQ6AXXZ@Z 0000000140052ac0     libucrtd:onexit.obj
 0002:00011ac0       $unwind$??$__crt_fast_encode_pointer@PEAP6AXXZ@@YAPEAP6AXXZQEAP6AXXZ@Z 0000000140052ac0     libucrtd:onexit.obj
 0002:00011ac0       $unwind$??1?$__crt_unique_heap_ptr@P6AXXZU__crt_internal_free_policy@@@@QEAA@XZ 0000000140052ac0     libucrtd:onexit.obj
 0002:00011ac0       $unwind$??R<lambda_6a47f4c8fd0152770a780fc1d70204eb>@@QEBA@XZ 0000000140052ac0     libucrtd:onexit.obj
 0002:00011ac0       $unwind$??R<lambda_6aaa2265f5b6a89667e7d7630012e97a>@@QEBA@XZ 0000000140052ac0     libucrtd:onexit.obj
 0002:00011ac0       $unwind$??R<lambda_80060f20ac3990516b753a27f211934c>@@QEBA@XZ 0000000140052ac0     libucrtd:onexit.obj
 0002:00011ac0       $unwind$??R<lambda_fd91b99c0687e8936f1d70d7d9b78e69>@@QEBA@XZ 0000000140052ac0     libucrtd:onexit.obj
 0002:00011ac0       $unwind$_crt_atexit        0000000140052ac0     libucrtd:onexit.obj
 0002:00011ac0       $unwind$??1?$__crt_unique_heap_ptr@PEAU__crt_stdio_stream_data@@U__crt_internal_free_policy@@@@QEAA@XZ 0000000140052ac0     libucrtd:_file.obj
 0002:00011ac0       $unwind$?has_crt_buffer@__crt_stdio_stream@@QEBA_NXZ 0000000140052ac0     libucrtd:_freebuf.obj
 0002:00011ac0       $unwind$??R<lambda_842d9ff0dc9ef11c61343bbaebe7f885>@@QEBA@XZ 0000000140052ac0     libucrtd:fflush.obj
 0002:00011ac0       $unwind$??R<lambda_886d6c58226a84441f68b9f2b8217b83>@@QEBA@XZ 0000000140052ac0     libucrtd:fflush.obj
 0002:00011ac0       $unwind$??R<lambda_d90129c13df834fdcbf8d2b88dafcf2d>@@QEBA@XZ 0000000140052ac0     libucrtd:fflush.obj
 0002:00011ac0       $unwind$??R<lambda_f7f22ab5edc0698d5f6905b0d3f44752>@@QEBA@XZ 0000000140052ac0     libucrtd:fflush.obj
 0002:00011ac0       $unwind$?lowio_handle@__crt_stdio_stream@@QEBAHXZ 0000000140052ac0     libucrtd:fileno.obj
 0002:00011ac0       $unwind$??$count@D@formatting_buffer@__crt_stdio_output@@QEBA_KXZ 0000000140052ac0     libucrtd:output.obj
 0002:00011ac0       $unwind$??$count@_W@formatting_buffer@__crt_stdio_output@@QEBA_KXZ 0000000140052ac0     libucrtd:output.obj
 0002:00011ac0       $unwind$??$data@D@formatting_buffer@__crt_stdio_output@@QEAAPEADXZ 0000000140052ac0     libucrtd:output.obj
 0002:00011ac0       $unwind$??$data@_W@formatting_buffer@__crt_stdio_output@@QEAAPEA_WXZ 0000000140052ac0     libucrtd:output.obj
 0002:00011ac0       $unwind$??$scratch_count@D@formatting_buffer@__crt_stdio_output@@QEBA_KXZ 0000000140052ac0     libucrtd:output.obj
 0002:00011ac0       $unwind$??1?$common_data@D@__crt_stdio_output@@QEAA@XZ 0000000140052ac0     libucrtd:output.obj
 0002:00011ac0       $unwind$??1?$common_data@_W@__crt_stdio_output@@QEAA@XZ 0000000140052ac0     libucrtd:output.obj
 0002:00011ac0       $unwind$??1?$format_validation_base@DV?$string_output_adapter@D@__crt_stdio_output@@@__crt_stdio_output@@QEAA@XZ 0000000140052ac0     libucrtd:output.obj
 0002:00011ac0       $unwind$??1?$format_validation_base@_WV?$string_output_adapter@_W@__crt_stdio_output@@@__crt_stdio_output@@QEAA@XZ 0000000140052ac0     libucrtd:output.obj
 0002:00011ac0       $unwind$??1?$output_adapter_data@DV?$string_output_adapter@D@__crt_stdio_output@@@__crt_stdio_output@@QEAA@XZ 0000000140052ac0     libucrtd:output.obj
 0002:00011ac0       $unwind$??1?$output_adapter_data@_WV?$string_output_adapter@_W@__crt_stdio_output@@@__crt_stdio_output@@QEAA@XZ 0000000140052ac0     libucrtd:output.obj
 0002:00011ac0       $unwind$??1?$output_processor@DV?$string_output_adapter@D@__crt_stdio_output@@V?$format_validation_base@DV?$string_output_adapter@D@__crt_stdio_output@@@2@@__crt_stdio_output@@QEAA@XZ 0000000140052ac0     libucrtd:output.obj
 0002:00011ac0       $unwind$??1?$output_processor@_WV?$string_output_adapter@_W@__crt_stdio_output@@V?$format_validation_base@_WV?$string_output_adapter@_W@__crt_stdio_output@@@2@@__crt_stdio_output@@QEAA@XZ 0000000140052ac0     libucrtd:output.obj
 0002:00011ac0       $unwind$??1?$standard_base@DV?$string_output_adapter@D@__crt_stdio_output@@@__crt_stdio_output@@QEAA@XZ 0000000140052ac0     libucrtd:output.obj
 0002:00011ac0       $unwind$??1?$standard_base@_WV?$string_output_adapter@_W@__crt_stdio_output@@@__crt_stdio_output@@QEAA@XZ 0000000140052ac0     libucrtd:output.obj
 0002:00011ac0       $unwind$??1formatting_buffer@__crt_stdio_output@@QEAA@XZ 0000000140052ac0     libucrtd:output.obj
 0002:00011ac0       $unwind$?get_flags@__crt_stdio_stream@@QEBAJXZ 0000000140052ac0     libucrtd:output.obj
 0002:00011ac0       $unwind$?get_locale@__crt_cached_ptd_host@@QEAAPEAU__crt_locale_pointers@@XZ 0000000140052ac0     libucrtd:output.obj
 0002:00011ac0       $unwind$?state_case_precision@?$output_processor@DV?$string_output_adapter@D@__crt_stdio_output@@V?$format_validation_base@DV?$string_output_adapter@D@__crt_stdio_output@@@2@@__crt_stdio_output@@AEAA_NXZ 0000000140052ac0     libucrtd:output.obj
 0002:00011ac0       $unwind$?state_case_precision@?$output_processor@_WV?$string_output_adapter@_W@__crt_stdio_output@@V?$format_validation_base@_WV?$string_output_adapter@_W@__crt_stdio_output@@@2@@__crt_stdio_output@@AEAA_NXZ 0000000140052ac0     libucrtd:output.obj
 0002:00011ac0       $unwind$?state_case_width@?$output_processor@DV?$string_output_adapter@D@__crt_stdio_output@@V?$format_validation_base@DV?$string_output_adapter@D@__crt_stdio_output@@@2@@__crt_stdio_output@@AEAA_NXZ 0000000140052ac0     libucrtd:output.obj
 0002:00011ac0       $unwind$?state_case_width@?$output_processor@_WV?$string_output_adapter@_W@__crt_stdio_output@@V?$format_validation_base@_WV?$string_output_adapter@_W@__crt_stdio_output@@@2@@__crt_stdio_output@@AEAA_NXZ 0000000140052ac0     libucrtd:output.obj
 0002:00011ac0       $unwind$?tchar_string@?$common_data@D@__crt_stdio_output@@IEAAAEAPEADXZ 0000000140052ac0     libucrtd:output.obj
 0002:00011ac0       $unwind$?tchar_string@?$common_data@_W@__crt_stdio_output@@IEAAAEAPEA_WXZ 0000000140052ac0     libucrtd:output.obj
 0002:00011ac0       $unwind$?type_case_X@?$output_processor@DV?$string_output_adapter@D@__crt_stdio_output@@V?$format_validation_base@DV?$string_output_adapter@D@__crt_stdio_output@@@2@@__crt_stdio_output@@AEAA_NXZ 0000000140052ac0     libucrtd:output.obj
 0002:00011ac0       $unwind$?type_case_X@?$output_processor@_WV?$string_output_adapter@_W@__crt_stdio_output@@V?$format_validation_base@_WV?$string_output_adapter@_W@__crt_stdio_output@@@2@@__crt_stdio_output@@AEAA_NXZ 0000000140052ac0     libucrtd:output.obj
 0002:00011ac0       $unwind$?type_case_c@?$output_processor@DV?$string_output_adapter@D@__crt_stdio_output@@V?$format_validation_base@DV?$string_output_adapter@D@__crt_stdio_output@@@2@@__crt_stdio_output@@AEAA_NXZ 0000000140052ac0     libucrtd:output.obj
 0002:00011ac0       $unwind$?type_case_c@?$output_processor@_WV?$string_output_adapter@_W@__crt_stdio_output@@V?$format_validation_base@_WV?$string_output_adapter@_W@__crt_stdio_output@@@2@@__crt_stdio_output@@AEAA_NXZ 0000000140052ac0     libucrtd:output.obj
 0002:00011ac0       $unwind$?type_case_d@?$output_processor@DV?$string_output_adapter@D@__crt_stdio_output@@V?$format_validation_base@DV?$string_output_adapter@D@__crt_stdio_output@@@2@@__crt_stdio_output@@AEAA_NXZ 0000000140052ac0     libucrtd:output.obj
 0002:00011ac0       $unwind$?type_case_d@?$output_processor@_WV?$string_output_adapter@_W@__crt_stdio_output@@V?$format_validation_base@_WV?$string_output_adapter@_W@__crt_stdio_output@@@2@@__crt_stdio_output@@AEAA_NXZ 0000000140052ac0     libucrtd:output.obj
 0002:00011ac0       $unwind$?type_case_o@?$output_processor@DV?$string_output_adapter@D@__crt_stdio_output@@V?$format_validation_base@DV?$string_output_adapter@D@__crt_stdio_output@@@2@@__crt_stdio_output@@AEAA_NXZ 0000000140052ac0     libucrtd:output.obj
 0002:00011ac0       $unwind$?type_case_o@?$output_processor@_WV?$string_output_adapter@_W@__crt_stdio_output@@V?$format_validation_base@_WV?$string_output_adapter@_W@__crt_stdio_output@@@2@@__crt_stdio_output@@AEAA_NXZ 0000000140052ac0     libucrtd:output.obj
 0002:00011ac0       $unwind$?type_case_p@?$output_processor@DV?$string_output_adapter@D@__crt_stdio_output@@V?$format_validation_base@DV?$string_output_adapter@D@__crt_stdio_output@@@2@@__crt_stdio_output@@AEAA_NXZ 0000000140052ac0     libucrtd:output.obj
 0002:00011ac0       $unwind$?type_case_p@?$output_processor@_WV?$string_output_adapter@_W@__crt_stdio_output@@V?$format_validation_base@_WV?$string_output_adapter@_W@__crt_stdio_output@@@2@@__crt_stdio_output@@AEAA_NXZ 0000000140052ac0     libucrtd:output.obj
 0002:00011ac0       $unwind$?type_case_u@?$output_processor@DV?$string_output_adapter@D@__crt_stdio_output@@V?$format_validation_base@DV?$string_output_adapter@D@__crt_stdio_output@@@2@@__crt_stdio_output@@AEAA_NXZ 0000000140052ac0     libucrtd:output.obj
 0002:00011ac0       $unwind$?type_case_u@?$output_processor@_WV?$string_output_adapter@_W@__crt_stdio_output@@V?$format_validation_base@_WV?$string_output_adapter@_W@__crt_stdio_output@@@2@@__crt_stdio_output@@AEAA_NXZ 0000000140052ac0     libucrtd:output.obj
 0002:00011ac0       $unwind$?type_case_x@?$output_processor@DV?$string_output_adapter@D@__crt_stdio_output@@V?$format_validation_base@DV?$string_output_adapter@D@__crt_stdio_output@@@2@@__crt_stdio_output@@AEAA_NXZ 0000000140052ac0     libucrtd:output.obj
 0002:00011ac0       $unwind$?type_case_x@?$output_processor@_WV?$string_output_adapter@_W@__crt_stdio_output@@V?$format_validation_base@_WV?$string_output_adapter@_W@__crt_stdio_output@@@2@@__crt_stdio_output@@AEAA_NXZ 0000000140052ac0     libucrtd:output.obj
 0002:00011ac0       $unwind$?update_field_width@?$standard_base@DV?$string_output_adapter@D@__crt_stdio_output@@@__crt_stdio_output@@IEAA_NXZ 0000000140052ac0     libucrtd:output.obj
 0002:00011ac0       $unwind$?update_field_width@?$standard_base@_WV?$string_output_adapter@_W@__crt_stdio_output@@@__crt_stdio_output@@IEAA_NXZ 0000000140052ac0     libucrtd:output.obj
 0002:00011ac0       $unwind$?update_locale@__crt_cached_ptd_host@@AEAAXXZ 0000000140052ac0     libucrtd:output.obj
 0002:00011ac0       $unwind$?update_precision@?$standard_base@DV?$string_output_adapter@D@__crt_stdio_output@@@__crt_stdio_output@@IEAA_NXZ 0000000140052ac0     libucrtd:output.obj
 0002:00011ac0       $unwind$?update_precision@?$standard_base@_WV?$string_output_adapter@_W@__crt_stdio_output@@@__crt_stdio_output@@IEAA_NXZ 0000000140052ac0     libucrtd:output.obj
 0002:00011ac0       $unwind$?__acrt_stdio_free_stream@@YAXV__crt_stdio_stream@@@Z 0000000140052ac0     libucrtd:stream.obj
 0002:00011ac0       $unwind$wcslen             0000000140052ac0     libucrtd:strnlen.obj
 0002:00011ac0       $unwind$fegetenv           0000000140052ac0     libucrtd:fegetenv.obj
 0002:00011ac0       $unwind$??$__crt_fast_decode_pointer@P6AHPEAU_exception@@@Z@@YAP6AHPEAU_exception@@@ZQ6AH0@Z@Z 0000000140052ac0     libucrtd:matherr.obj
 0002:00011ac0       $unwind$??$__crt_fast_encode_pointer@P6AHPEAU_exception@@@Z@@YAP6AHPEAU_exception@@@ZQ6AH0@Z@Z 0000000140052ac0     libucrtd:matherr.obj
 0002:00011ac0       $unwind$?value@?$dual_state_global@P6AHPEAU_exception@@@Z@__crt_state_management@@QEAAAEAP6AHPEAU_exception@@@ZXZ 0000000140052ac0     libucrtd:matherr.obj
 0002:00011ac0       $unwind$__acrt_initialize_user_matherr 0000000140052ac0     libucrtd:matherr.obj
 0002:00011ac0       $unwind$??3@YAXPEAX@Z      0000000140052ac0     LIBCMTD:delete_scalar.obj
 0002:00011ac0       $unwind$WinMainCRTStartup  0000000140052ac0     LIBCMTD:exe_winmain.obj
 0002:00011ac0       $unwind$__raise_securityfailure 0000000140052ac0     LIBCMTD:gs_report.obj
 0002:00011ac0       $unwind$ReadPointerNoFence 0000000140052ac0     LIBCMTD:guard_support.obj
 0002:00011ac0       $unwind$_ValidateImageBase 0000000140052ac0     LIBCMTD:pesect.obj
 0002:00011ac0       $unwind$?is_potentially_valid_image_base@@YA_NQEAX@Z 0000000140052ac0     LIBCMTD:utility.obj
 0002:00011ac0       $unwind$??0bad_exception@std@@QEAA@XZ 0000000140052ac0     libvcruntimed:frame.obj
 0002:00011ac0       $unwind$??1bad_exception@std@@UEAA@XZ 0000000140052ac0     libvcruntimed:frame.obj
 0002:00011ac0       $unwind$??1exception@std@@UEAA@XZ 0000000140052ac0     libvcruntimed:frame.obj
 0002:00011ac0       $unwind$?__RethrowException@@YAXPEAUEHExceptionRecord@@@Z 0000000140052ac0     libvcruntimed:frame.obj
 0002:00011ac0       $unwind$__vcrt_EncodePointer 0000000140052ac0     libvcruntimed:frame.obj
 0002:00011ac0       $unwind$??0scoped_get_last_error_reset@?A0xf875a351@@QEAA@XZ 0000000140052ac0     libvcruntimed:per_thread_data.obj
 0002:00011ac0       $unwind$??1?$__crt_unique_heap_ptr@U__vcrt_ptd@@U__crt_internal_free_policy@@@@QEAA@XZ 0000000140052ac0     libvcruntimed:per_thread_data.obj
 0002:00011ac0       $unwind$??1scoped_get_last_error_reset@?A0xf875a351@@QEAA@XZ 0000000140052ac0     libvcruntimed:per_thread_data.obj
 0002:00011ac0       $unwind$??B?$__crt_unique_heap_ptr@U__vcrt_ptd@@U__crt_internal_free_policy@@@@QEBA_NXZ 0000000140052ac0     libvcruntimed:per_thread_data.obj
 0002:00011ac0       $unwind$?store_and_initialize_ptd@@YA_NQEAU__vcrt_ptd@@@Z 0000000140052ac0     libvcruntimed:per_thread_data.obj
 0002:00011ac0       $unwind$__vcrt_freefls     0000000140052ac0     libvcruntimed:per_thread_data.obj
 0002:00011ac0       $unwind$_SetImageBase      0000000140052ac0     libvcruntimed:risctrnsctrl.obj
 0002:00011ac0       $unwind$_SetThrowImageBase 0000000140052ac0     libvcruntimed:risctrnsctrl.obj
 0002:00011ac0       $unwind$??1?$__crt_unique_heap_ptr@DU__crt_public_free_policy@@@@QEAA@XZ 0000000140052ac0     libvcruntimed:std_exception.obj
 0002:00011ac0       $unwind$??B?$__crt_unique_heap_ptr@DU__crt_public_free_policy@@@@QEBA_NXZ 0000000140052ac0     libvcruntimed:std_exception.obj
 0002:00011ac0       $unwind$__std_exception_destroy 0000000140052ac0     libvcruntimed:std_exception.obj
 0002:00011ac0       $unwind$??1?$__crt_unique_heap_ptr@DU__crt_internal_free_policy@@@@QEAA@XZ 0000000140052ac0     libvcruntimed:std_type_info.obj
 0002:00011ac0       $unwind$??B?$__crt_unique_heap_ptr@DU__crt_internal_free_policy@@@@QEBA_NXZ 0000000140052ac0     libvcruntimed:std_type_info.obj
 0002:00011ac0       $unwind$??$__crt_interlocked_read_pointer@UHINSTANCE__@@@@YAPEAUHINSTANCE__@@PEDSEAU0@@Z 0000000140052ac0     libvcruntimed:winapi_downlevel.obj
 0002:00011ac0       $unwind$??$__crt_interlocked_read_pointer@X@@YAPEAXPEDSEAX@Z 0000000140052ac0     libvcruntimed:winapi_downlevel.obj
 0002:00011ac8       $unwind$?get_environment_nolock@@YAAEAPEAPEADD@Z 0000000140052ac8     libucrtd:environment_initialization.obj
 0002:00011ac8       $unwind$?pre_initialize@@YAXD@Z 0000000140052ac8     libucrtd:environment_initialization.obj
 0002:00011ac8       $unwind$_ismbblead         0000000140052ac8     libucrtd:ismbbyte.obj
 0002:00011ac8       $unwind$__acrt_uninitialize 0000000140052ac8     libucrtd:initialization.obj
 0002:00011ac8       $unwind$report_memory_leaks 0000000140052ac8     libucrtd:initialization.obj
 0002:00011ac8       $unwind$uninitialize_allocated_io_buffers 0000000140052ac8     libucrtd:initialization.obj
 0002:00011ac8       $unwind$uninitialize_environment 0000000140052ac8     libucrtd:initialization.obj
 0002:00011ac8       $unwind$uninitialize_vcruntime 0000000140052ac8     libucrtd:initialization.obj
 0002:00011ac8       $unwind$__acrt_lock        0000000140052ac8     libucrtd:locks.obj
 0002:00011ac8       $unwind$__acrt_unlock      0000000140052ac8     libucrtd:locks.obj
 0002:00011ac8       $unwind$__acrt_uninitialize_ptd 0000000140052ac8     libucrtd:per_thread_data.obj
 0002:00011ac8       $unwind$__acrt_FlsFree     0000000140052ac8     libucrtd:winapi_thunks.obj
 0002:00011ac8       $unwind$__acrt_FlsGetValue 0000000140052ac8     libucrtd:winapi_thunks.obj
 0002:00011ac8       $unwind$__ascii_towlower   0000000140052ac8     libucrtd:wsetlocale.obj
 0002:00011ac8       $unwind$__acrt_lowio_lock_fh 0000000140052ac8     libucrtd:osfinfo.obj
 0002:00011ac8       $unwind$__acrt_lowio_unlock_fh 0000000140052ac8     libucrtd:osfinfo.obj
 0002:00011ac8       $unwind$?do_locale_initialization@@YAXD@Z 0000000140052ac8     libucrtd:argv_parsing.obj
 0002:00011ac8       $unwind$_configure_narrow_argv 0000000140052ac8     libucrtd:argv_parsing.obj
 0002:00011ac8       $unwind$?do_locale_initialization@@YAXE@Z 0000000140052ac8     libucrtd:argv_winmain.obj
 0002:00011ac8       $unwind$?exit_or_terminate_process@@YAXI@Z 0000000140052ac8     libucrtd:exit.obj
 0002:00011ac8       $unwind$_exit              0000000140052ac8     libucrtd:exit.obj
 0002:00011ac8       $unwind$exit               0000000140052ac8     libucrtd:exit.obj
 0002:00011ac8       $unwind$?is_stream_flushable_or_commitable@@YA_NJ@Z 0000000140052ac8     libucrtd:fflush.obj
 0002:00011ac8       $unwind$__ascii_towupper   0000000140052ac8     libucrtd:output.obj
 0002:00011ac8       $unwind$??$to_abstract_status@W4__acrt_fenv_machine_sse_status@@@@YA?AW4__acrt_fenv_abstract_status@@W4__acrt_fenv_machine_sse_status@@@Z 0000000140052ac8     libucrtd:_fenvutils.obj
 0002:00011ac8       $unwind$?__acrt_fenv_shift_abstract_sse_status@@YA?AW4__acrt_fenv_abstract_status@@W41@@Z 0000000140052ac8     libucrtd:_fenvutils.obj
 0002:00011ac8       $unwind$?__acrt_fenv_unshift_abstract_sse_status@@YA?AW4__acrt_fenv_abstract_status@@W41@@Z 0000000140052ac8     libucrtd:_fenvutils.obj
 0002:00011ac8       $unwind$?to_machine_sse_status@@YA?AW4__acrt_fenv_machine_sse_status@@W4__acrt_fenv_abstract_status@@@Z 0000000140052ac8     libucrtd:_fenvutils.obj
 0002:00011ac8       $unwind$__acrt_fenv_get_common_round_control 0000000140052ac8     libucrtd:_fenvutils.obj
 0002:00011ac8       $unwind$__acrt_fenv_set_control 0000000140052ac8     libucrtd:_fenvutils.obj
 0002:00011ac8       $unwind$__acrt_fenv_set_status 0000000140052ac8     libucrtd:_fenvutils.obj
 0002:00011ac8       $unwind$__report_securityfailure 0000000140052ac8     LIBCMTD:gs_report.obj
 0002:00011ac8       $unwind$__scrt_initialize_crt 0000000140052ac8     LIBCMTD:utility.obj
 0002:00011ac8       $unwind$__scrt_release_startup_lock 0000000140052ac8     LIBCMTD:utility.obj
 0002:00011ac8       $unwind$__vcrt_uninitialize 0000000140052ac8     libvcruntimed:initialization.obj
 0002:00011ad0       $unwind$??R<lambda_61c1b8a38cedca4df5fdc542e6ccae6d>@@QEBA@XZ 0000000140052ad0     libucrtd:initcon.obj
 0002:00011ad0       $unwind$_putwch_nolock     0000000140052ad0     libucrtd:putwch.obj
 0002:00011ad0       $unwind$??$free_environment@D@@YAXQEAPEAD@Z 0000000140052ad0     libucrtd:environment_initialization.obj
 0002:00011ad0       $unwind$??$free_environment@_W@@YAXQEAPEA_W@Z 0000000140052ad0     libucrtd:environment_initialization.obj
 0002:00011ad0       $unwind$?find_end_of_double_null_terminated_sequence@@YAPEB_WQEB_W@Z 0000000140052ad0     libucrtd:get_environment_from_os.obj
 0002:00011ad0       $unwind$?is_valid@?$__crt_unique_handle_t@Uenvironment_strings_traits@?A0x1bf47908@@@@QEBA_NXZ 0000000140052ad0     libucrtd:get_environment_from_os.obj
 0002:00011ad0       $unwind$??1fp_control_word_guard@?A0x71ca7cfb@@QEAA@XZ 0000000140052ad0     libucrtd:cfout.obj
 0002:00011ad0       $unwind$?is_block_an_aligned_allocation@@YA_NQEBX@Z 0000000140052ad0     libucrtd:debug_heap.obj
 0002:00011ad0       $unwind$_CrtIsValidHeapPointer 0000000140052ad0     libucrtd:debug_heap.obj
 0002:00011ad0       $unwind$free               0000000140052ad0     libucrtd:free.obj
 0002:00011ad0       $unwind$_free_base         0000000140052ad0     libucrtd:free_base.obj
 0002:00011ad0       $unwind$?_deallocate@?$__crt_win32_buffer@DU__crt_win32_buffer_no_resizing@@@@AEAAXXZ 0000000140052ad0     libucrtd:getmodulefilenamea.obj
 0002:00011ad0       $unwind$??R<lambda_e157831efee4ea0afb0a2ace5dd5fd0d>@@QEBA@XZ 0000000140052ad0     libucrtd:per_thread_data.obj
 0002:00011ad0       $unwind$?construct_ptd_array@@YAXQEAU__acrt_ptd@@@Z 0000000140052ad0     libucrtd:per_thread_data.obj
 0002:00011ad0       $unwind$?destroy_ptd_array@@YAXQEAU__acrt_ptd@@@Z 0000000140052ad0     libucrtd:per_thread_data.obj
 0002:00011ad0       $unwind$?release@?$__crt_unique_heap_ptr@U__acrt_ptd@@U__crt_internal_free_policy@@@@QEAAXXZ 0000000140052ad0     libucrtd:per_thread_data.obj
 0002:00011ad0       $unwind$?try_load_library_from_system_directory@@YAPEAUHINSTANCE__@@QEB_W@Z 0000000140052ad0     libucrtd:winapi_thunks.obj
 0002:00011ad0       $unwind$__acrt_DownlevelLocaleNameToLCID 0000000140052ad0     libucrtd:lcidtoname_downlevel.obj
 0002:00011ad0       $unwind$__acrt_add_locale_ref 0000000140052ad0     libucrtd:locale_refcounting.obj
 0002:00011ad0       $unwind$__acrt_release_locale_ref 0000000140052ad0     libucrtd:locale_refcounting.obj
 0002:00011ad0       $unwind$?release@?$__crt_unique_heap_ptr@U__crt_multibyte_data@@U__crt_internal_free_policy@@@@QEAAXXZ 0000000140052ad0     libucrtd:wsetlocale.obj
 0002:00011ad0       $unwind$?release@?$__crt_unique_heap_ptr@U__crt_lowio_handle_data@@U__crt_internal_free_policy@@@@QEAAXXZ 0000000140052ad0     libucrtd:osfinfo.obj
 0002:00011ad0       $unwind$??1__crt_cached_ptd_host@@QEAA@XZ 0000000140052ad0     libucrtd:invalid_parameter.obj
 0002:00011ad0       $unwind$?check_synchronize_global_state_index@__crt_cached_ptd_host@@AEAA_KXZ 0000000140052ad0     libucrtd:invalid_parameter.obj
 0002:00011ad0       $unwind$__acrt_initialize_invalid_parameter_handler 0000000140052ad0     libucrtd:invalid_parameter.obj
 0002:00011ad0       $unwind$??R<lambda_df1553121bfa390f1154bd84936f2730>@@QEBA@XZ 0000000140052ad0     libucrtd:argv_parsing.obj
 0002:00011ad0       $unwind$?release@?$__crt_unique_heap_ptr@EU__crt_internal_free_policy@@@@QEAAXXZ 0000000140052ad0     libucrtd:argv_parsing.obj
 0002:00011ad0       $unwind$?release@?$__crt_unique_heap_ptr@PEADU__crt_internal_free_policy@@@@QEAAXXZ 0000000140052ad0     libucrtd:argv_parsing.obj
 0002:00011ad0       $unwind$??1?$argument_list@D@?A0x5f5c8891@@QEAA@XZ 0000000140052ad0     libucrtd:argv_wildcards.obj
 0002:00011ad0       $unwind$?_deallocate@?$__crt_win32_buffer@DU__crt_win32_buffer_internal_dynamic_resizing@@@@AEAAXXZ 0000000140052ad0     libucrtd:argv_wildcards.obj
 0002:00011ad0       $unwind$?_deallocate@?$__crt_win32_buffer@_WU__crt_win32_buffer_internal_dynamic_resizing@@@@AEAAXXZ 0000000140052ad0     libucrtd:argv_wildcards.obj
 0002:00011ad0       $unwind$?close@__crt_findfile_traits@@SA_NPEAX@Z 0000000140052ad0     libucrtd:argv_wildcards.obj
 0002:00011ad0       $unwind$?close@__crt_hmodule_traits@@SA_NPEAUHINSTANCE__@@@Z 0000000140052ad0     libucrtd:exit.obj
 0002:00011ad0       $unwind$_register_thread_local_exe_atexit_callback 0000000140052ad0     libucrtd:exit.obj
 0002:00011ad0       $unwind$?release@?$__crt_unique_heap_ptr@P6AXXZU__crt_internal_free_policy@@@@QEAAXXZ 0000000140052ad0     libucrtd:onexit.obj
 0002:00011ad0       $unwind$_initialize_onexit_table 0000000140052ad0     libucrtd:onexit.obj
 0002:00011ad0       $unwind$?release@?$__crt_unique_heap_ptr@PEAU__crt_stdio_stream_data@@U__crt_internal_free_policy@@@@QEAAXXZ 0000000140052ad0     libucrtd:_file.obj
 0002:00011ad0       $unwind$_lock_file         0000000140052ad0     libucrtd:_file.obj
 0002:00011ad0       $unwind$_unlock_file       0000000140052ad0     libucrtd:_file.obj
 0002:00011ad0       $unwind$?is_in_use@__crt_stdio_stream@@QEBA_NXZ 0000000140052ad0     libucrtd:closeall.obj
 0002:00011ad0       $unwind$??R<lambda_c5860995281e5c4ce005b3de8f5874ee>@@QEBA@XZ 0000000140052ad0     libucrtd:fflush.obj
 0002:00011ad0       $unwind$?__acrt_stdio_reset_buffer@@YAXV__crt_stdio_stream@@@Z 0000000140052ad0     libucrtd:fflush.obj
 0002:00011ad0       $unwind$??$scratch_data@D@formatting_buffer@__crt_stdio_output@@QEAAPEADXZ 0000000140052ad0     libucrtd:output.obj
 0002:00011ad0       $unwind$??0formatting_buffer@__crt_stdio_output@@QEAA@XZ 0000000140052ad0     libucrtd:output.obj
 0002:00011ad0       $unwind$?is_string_backed@__crt_stdio_stream@@QEBA_NXZ 0000000140052ad0     libucrtd:output.obj
 0002:00011ad0       $unwind$?parse_digit@__crt_strtox@@YAI_W@Z 0000000140052ad0     libucrtd:output.obj
 0002:00011ad0       $unwind$?state_case_flag@?$output_processor@DV?$string_output_adapter@D@__crt_stdio_output@@V?$format_validation_base@DV?$string_output_adapter@D@__crt_stdio_output@@@2@@__crt_stdio_output@@AEAA_NXZ 0000000140052ad0     libucrtd:output.obj
 0002:00011ad0       $unwind$?state_case_flag@?$output_processor@_WV?$string_output_adapter@_W@__crt_stdio_output@@V?$format_validation_base@_WV?$string_output_adapter@_W@__crt_stdio_output@@@2@@__crt_stdio_output@@AEAA_NXZ 0000000140052ad0     libucrtd:output.obj
 0002:00011ad0       $unwind$?state_case_normal_common@?$output_processor@DV?$string_output_adapter@D@__crt_stdio_output@@V?$format_validation_base@DV?$string_output_adapter@D@__crt_stdio_output@@@2@@__crt_stdio_output@@AEAA_NXZ 0000000140052ad0     libucrtd:output.obj
 0002:00011ad0       $unwind$?state_case_normal_common@?$output_processor@_WV?$string_output_adapter@_W@__crt_stdio_output@@V?$format_validation_base@_WV?$string_output_adapter@_W@__crt_stdio_output@@@2@@__crt_stdio_output@@AEAA_NXZ 0000000140052ad0     libucrtd:output.obj
 0002:00011ad0       $unwind$?type_case_Z@?$output_processor@DV?$string_output_adapter@D@__crt_stdio_output@@V?$format_validation_base@DV?$string_output_adapter@D@__crt_stdio_output@@@2@@__crt_stdio_output@@AEAA_NXZ 0000000140052ad0     libucrtd:output.obj
 0002:00011ad0       $unwind$?type_case_Z@?$output_processor@_WV?$string_output_adapter@_W@__crt_stdio_output@@V?$format_validation_base@_WV?$string_output_adapter@_W@__crt_stdio_output@@@2@@__crt_stdio_output@@AEAA_NXZ 0000000140052ad0     libucrtd:output.obj
 0002:00011ad0       $unwind$?type_case_s@?$output_processor@DV?$string_output_adapter@D@__crt_stdio_output@@V?$format_validation_base@DV?$string_output_adapter@D@__crt_stdio_output@@@2@@__crt_stdio_output@@AEAA_NXZ 0000000140052ad0     libucrtd:output.obj
 0002:00011ad0       $unwind$?type_case_s@?$output_processor@_WV?$string_output_adapter@_W@__crt_stdio_output@@V?$format_validation_base@_WV?$string_output_adapter@_W@__crt_stdio_output@@@2@@__crt_stdio_output@@AEAA_NXZ 0000000140052ad0     libucrtd:output.obj
 0002:00011ad0       $unwind$?update_locale_slow@__crt_cached_ptd_host@@AEAAXXZ 0000000140052ad0     libucrtd:output.obj
 0002:00011ad0       $unwind$_set_statfp        0000000140052ad0     libucrtd:fpctrl.obj
 0002:00011ad0       $unwind$??$translate_control_exception_mask@W4__acrt_fenv_abstract_control@@W4__acrt_fenv_machine_sse_control@@@@YA?AW4__acrt_fenv_abstract_control@@W4__acrt_fenv_machine_sse_control@@@Z 0000000140052ad0     libucrtd:_fenvutils.obj
 0002:00011ad0       $unwind$??$translate_control_rounding_control@W4__acrt_fenv_abstract_control@@W4__acrt_fenv_machine_sse_control@@@@YA?AW4__acrt_fenv_abstract_control@@W4__acrt_fenv_machine_sse_control@@@Z 0000000140052ad0     libucrtd:_fenvutils.obj
 0002:00011ad0       $unwind$?set_machine_sse_control@@YAXW4__acrt_fenv_machine_sse_control@@@Z 0000000140052ad0     libucrtd:_fenvutils.obj
 0002:00011ad0       $unwind$?to_abstract_control@@YA?AW4__acrt_fenv_abstract_control@@W4__acrt_fenv_machine_sse_control@@@Z 0000000140052ad0     libucrtd:_fenvutils.obj
 0002:00011ad0       $unwind$?translate_control_denormal_control_from_sse@@YA?AW4__acrt_fenv_abstract_control@@W4__acrt_fenv_machine_sse_control@@@Z 0000000140052ad0     libucrtd:_fenvutils.obj
 0002:00011ad0       $unwind$feholdexcept       0000000140052ad0     libucrtd:feholdexcept.obj
 0002:00011ad0       $unwind$__setusermatherr   0000000140052ad0     libucrtd:matherr.obj
 0002:00011ad0       $unwind$__report_gsfailure 0000000140052ad0     LIBCMTD:gs_report.obj
 0002:00011ad0       $unwind$atexit             0000000140052ad0     LIBCMTD:utility.obj
 0002:00011ad0       $unwind$__scrt_unhandled_exception_filter 0000000140052ad0     LIBCMTD:utility_desktop.obj
 0002:00011ad0       $unwind$_IsExceptionObjectToBeDestroyed 0000000140052ad0     libvcruntimed:ehhelpers.obj
 0002:00011ad0       $unwind$?getESTypes@__FrameHandler3@@SAPEBU_s_ESTypeList@@PEBU_s_FuncInfo@@@Z 0000000140052ad0     libvcruntimed:frame.obj
 0002:00011ad0       $unwind$__except_validate_context_record 0000000140052ad0     libvcruntimed:jbcxrval.obj
 0002:00011ad0       $unwind$?release@?$__crt_unique_heap_ptr@U__vcrt_ptd@@U__crt_internal_free_policy@@@@QEAAXXZ 0000000140052ad0     libvcruntimed:per_thread_data.obj
 0002:00011ad0       $unwind$_FindAndUnlinkFrame 0000000140052ad0     libvcruntimed:risctrnsctrl.obj
 0002:00011ad0       $unwind$?release@?$__crt_unique_heap_ptr@DU__crt_public_free_policy@@@@QEAAXXZ 0000000140052ad0     libvcruntimed:std_exception.obj
 0002:00011ad0       $unwind$?release@?$__crt_unique_heap_ptr@DU__crt_internal_free_policy@@@@QEAAXXZ 0000000140052ad0     libvcruntimed:std_type_info.obj
 0002:00011ad0       $unwind$?try_load_library_from_system_directory@@YAPEAUHINSTANCE__@@QEB_W@Z 0000000140052ad0     libvcruntimed:winapi_downlevel.obj
 0002:00011ad8       $unwind$?capture_current_context@@YAXQEAU_CONTEXT@@@Z 0000000140052ad8     libucrtd:invalid_parameter.obj
 0002:00011ad8       $unwind$fclose             0000000140052ad8     libucrtd:fclose.obj
 0002:00011ad8       $unwind$_fflush_nolock     0000000140052ad8     libucrtd:fflush.obj
 0002:00011ad8       $unwind$capture_current_context 0000000140052ad8     LIBCMTD:gs_report.obj
 0002:00011ad8       $unwind$capture_previous_context 0000000140052ad8     LIBCMTD:gs_report.obj
 0002:00011ae0       $unwind$??$count_variables_in_environment_block@D@@YA?B_KQEAD@Z 0000000140052ae0     libucrtd:environment_initialization.obj
 0002:00011ae0       $unwind$?is_contraction_possible@@YA_N_K@Z 0000000140052ae0     libucrtd:expand.obj
 0002:00011ae0       $unwind$_malloc_base       0000000140052ae0     libucrtd:malloc_base.obj
 0002:00011ae0       $unwind$_callnewh          0000000140052ae0     libucrtd:new_handler.obj
 0002:00011ae0       $unwind$?issue_debug_notification@@YA_NQEB_W@Z 0000000140052ae0     libucrtd:report_runtime_error.obj
 0002:00011ae0       $unwind$__acrt_AppPolicyGetProcessTerminationMethodInternal 0000000140052ae0     libucrtd:winapi_thunks.obj
 0002:00011ae0       $unwind$__acrt_AppPolicyGetShowDeveloperDiagnosticInternal 0000000140052ae0     libucrtd:winapi_thunks.obj
 0002:00011ae0       $unwind$__acrt_AppPolicyGetWindowingModelInternal 0000000140052ae0     libucrtd:winapi_thunks.obj
 0002:00011ae0       $unwind$_freea_crt         0000000140052ae0     libucrtd:getstringtypea.obj
 0002:00011ae0       $unwind$?GetTableIndexFromLocaleName@@YAHPEB_W@Z 0000000140052ae0     libucrtd:lcidtoname_downlevel.obj
 0002:00011ae0       $unwind$__acrt_free_locale 0000000140052ae0     libucrtd:locale_refcounting.obj
 0002:00011ae0       $unwind$??R<lambda_af29824b49a67d335554598d6cad2be6>@@QEBA@XZ 0000000140052ae0     libucrtd:close.obj
 0002:00011ae0       $unwind$??R<lambda_3e4146214822e0ea86c47ff907aef2ff>@@QEBA@XZ 0000000140052ae0     libucrtd:commit.obj
 0002:00011ae0       $unwind$__acrt_lowio_destroy_handle_array 0000000140052ae0     libucrtd:osfinfo.obj
 0002:00011ae0       $unwind$??R<lambda_bd5a608237428601b7e45fbdc72b1ae8>@@QEBA@XZ 0000000140052ae0     libucrtd:mbctype.obj
 0002:00011ae0       $unwind$?force_synchronize_per_thread_data@__crt_cached_ptd_host@@AEAAPEAU__acrt_ptd@@XZ 0000000140052ae0     libucrtd:invalid_parameter.obj
 0002:00011ae0       $unwind$_execute_onexit_table 0000000140052ae0     libucrtd:onexit.obj
 0002:00011ae0       $unwind$__acrt_stdio_free_buffer_nolock 0000000140052ae0     libucrtd:_freebuf.obj
 0002:00011ae0       $unwind$_fileno            0000000140052ae0     libucrtd:fileno.obj
 0002:00011ae0       $unwind$?state_case_normal@?$output_processor@DV?$string_output_adapter@D@__crt_stdio_output@@V?$format_validation_base@DV?$string_output_adapter@D@__crt_stdio_output@@@2@@__crt_stdio_output@@AEAA_NXZ 0000000140052ae0     libucrtd:output.obj
 0002:00011ae0       $unwind$?state_case_normal@?$output_processor@_WV?$string_output_adapter@_W@__crt_stdio_output@@V?$format_validation_base@_WV?$string_output_adapter@_W@__crt_stdio_output@@@2@@__crt_stdio_output@@AEAA_NXZ 0000000140052ae0     libucrtd:output.obj
 0002:00011ae0       $unwind$?validate@?$c_string_character_source@D@__crt_strtox@@QEBA_NXZ 0000000140052ae0     libucrtd:output.obj
 0002:00011ae0       $unwind$?validate@?$c_string_character_source@_W@__crt_strtox@@QEBA_NXZ 0000000140052ae0     libucrtd:output.obj
 0002:00011ae0       $unwind$?validate_and_update_state_at_end_of_format_string@?$format_validation_base@DV?$string_output_adapter@D@__crt_stdio_output@@@__crt_stdio_output@@IEAA_NXZ 0000000140052ae0     libucrtd:output.obj
 0002:00011ae0       $unwind$?validate_and_update_state_at_end_of_format_string@?$format_validation_base@_WV?$string_output_adapter@_W@__crt_stdio_output@@@__crt_stdio_output@@IEAA_NXZ 0000000140052ae0     libucrtd:output.obj
 0002:00011ae0       $unwind$__acrt_invoke_user_matherr 0000000140052ae0     libucrtd:matherr.obj
 0002:00011ae0       $unwind$_onexit            0000000140052ae0     LIBCMTD:utility.obj
 0002:00011ae0       $unwind$__FrameUnwindFilter 0000000140052ae0     libvcruntimed:ehhelpers.obj
 0002:00011ae0       $unwind$?Is_bad_exception_allowed@@YAEPEBU_s_ESTypeList@@@Z 0000000140052ae0     libvcruntimed:frame.obj
 0002:00011ae0       $unwind$__vcrt_FlsAlloc    0000000140052ae0     libvcruntimed:winapi_downlevel.obj
 0002:00011ae8       $unwind$__scrt_is_nonwritable_in_current_image 0000000140052ae8     LIBCMTD:utility.obj
 0002:00011b08       $unwind$?__dcrt_lowio_initialize_console_output@@YAXXZ 0000000140052b08     libucrtd:initcon.obj
 0002:00011b08       $unwind$?initialize_stdio_handles_nolock@@YAXXZ 0000000140052b08     libucrtd:ioinit.obj
 0002:00011b08       $unwind$__acrt_initialize_fmode 0000000140052b08     libucrtd:txtmode.obj
 0002:00011b08       $unwind$??$common_wincmdln@E@@YAPEAEXZ 0000000140052b08     libucrtd:argv_winmain.obj
 0002:00011b08       $unwind$__scrt_acquire_startup_lock 0000000140052b08     LIBCMTD:utility.obj
 0002:00011b10       $unwind$??$is_overflow_condition@K@__crt_strtox@@YA_NIK@Z 0000000140052b10     libucrtd:output.obj
 0002:00011b10       $unwind$_control87         0000000140052b10     libucrtd:ieee.obj
 0002:00011b10       $unwind$__scrt_uninitialize_crt 0000000140052b10     LIBCMTD:utility.obj
 0002:00011b18       $unwind$__scrt_initialize_onexit_tables 0000000140052b18     LIBCMTD:utility.obj
 0002:00011b24       $unwind$??0big_integer@__crt_strtox@@QEAA@AEBU01@@Z 0000000140052b24     libucrtd:cfout.obj
 0002:00011b24       $unwind$??4big_integer@__crt_strtox@@QEAAAEAU01@AEBU01@@Z 0000000140052b24     libucrtd:cfout.obj
 0002:00011b24       $unwind$??9__crt_strtox@@YA_NAEBUbig_integer@0@0@Z 0000000140052b24     libucrtd:cfout.obj
 0002:00011b24       $unwind$_realloc_base      0000000140052b24     libucrtd:realloc_base.obj
 0002:00011b24       $unwind$?allocate@?$__crt_win32_buffer@DU__crt_win32_buffer_no_resizing@@@@QEAAH_K@Z 0000000140052b24     libucrtd:getmodulefilenamea.obj
 0002:00011b24       $unwind$?internal_getptd_noexit@@YAPEAU__acrt_ptd@@AEBV__crt_scoped_get_last_error_reset@@_K@Z 0000000140052b24     libucrtd:per_thread_data.obj
 0002:00011b24       $unwind$?try_get_first_available_module@@YAPEAUHINSTANCE__@@QEBW4module_id@?A0x391cf84c@@0@Z 0000000140052b24     libucrtd:winapi_thunks.obj
 0002:00011b24       $unwind$?free_crt_array_internal@@YAXQEAPEBX_K@Z 0000000140052b24     libucrtd:inittime.obj
 0002:00011b24       $unwind$_updatetlocinfoEx_nolock 0000000140052b24     libucrtd:locale_refcounting.obj
 0002:00011b24       $unwind$??$initialize_from_array@$$BY10BAA@E@?$dual_state_global@PEAE@__crt_state_management@@QEAAXAEAY10BAA@E@Z 0000000140052b24     libucrtd:mbctype.obj
 0002:00011b24       $unwind$??$initialize_from_array@$$BY10BAB@E@?$dual_state_global@PEAE@__crt_state_management@@QEAAXAEAY10BAB@E@Z 0000000140052b24     libucrtd:mbctype.obj
 0002:00011b24       $unwind$??$initialize_from_array@$$BY00Q6AXPEB_W00I_K@Z@?$dual_state_global@P6AXPEB_W00I_K@Z@__crt_state_management@@QEAAXAEAY00Q6AXPEB_W00I_K@Z@Z 0000000140052b24     libucrtd:invalid_parameter.obj
 0002:00011b24       $unwind$?allocate@?$__crt_win32_buffer@DU__crt_win32_buffer_internal_dynamic_resizing@@@@QEAAH_K@Z 0000000140052b24     libucrtd:argv_wildcards.obj
 0002:00011b24       $unwind$?allocate@?$__crt_win32_buffer@_WU__crt_win32_buffer_internal_dynamic_resizing@@@@QEAAH_K@Z 0000000140052b24     libucrtd:argv_wildcards.obj
 0002:00011b24       $unwind$?append@?$argument_list@D@?A0x5f5c8891@@QEAAHQEAD@Z 0000000140052b24     libucrtd:argv_wildcards.obj
 0002:00011b24       $unwind$?get_file_name@@YAPEADQEAV?$__crt_win32_buffer@DU__crt_win32_buffer_internal_dynamic_resizing@@@@QEA_W@Z 0000000140052b24     libucrtd:argv_wildcards.obj
 0002:00011b24       $unwind$?get_wide@@YAPEA_WQEAV?$__crt_win32_buffer@_WU__crt_win32_buffer_internal_dynamic_resizing@@@@QEAD@Z 0000000140052b24     libucrtd:argv_wildcards.obj
 0002:00011b24       $unwind$_initterm          0000000140052b24     libucrtd:initterm.obj
 0002:00011b24       $unwind$?_fflush_nolock_internal@@YAHQEAU_iobuf@@AEAV__crt_cached_ptd_host@@@Z 0000000140052b24     libucrtd:fflush.obj
 0002:00011b24       $unwind$?common_flush_all_should_try_to_flush_stream@@YA_NV__crt_stdio_stream@@QEAH@Z 0000000140052b24     libucrtd:fflush.obj
 0002:00011b24       $unwind$??$extract_argument_from_va_list@U_CRT_DOUBLE@@U1@@?$standard_base@DV?$string_output_adapter@D@__crt_stdio_output@@@__crt_stdio_output@@IEAA_NAEAU_CRT_DOUBLE@@@Z 0000000140052b24     libucrtd:output.obj
 0002:00011b24       $unwind$??$extract_argument_from_va_list@U_CRT_DOUBLE@@U1@@?$standard_base@_WV?$string_output_adapter@_W@__crt_stdio_output@@@__crt_stdio_output@@IEAA_NAEAU_CRT_DOUBLE@@@Z 0000000140052b24     libucrtd:output.obj
 0002:00011b24       $unwind$?force_decimal_point@__crt_stdio_output@@YAXPEADQEAU__crt_locale_pointers@@@Z 0000000140052b24     libucrtd:output.obj
 0002:00011b24       $unwind$??$common_strnlen_c@$00G@@YA_KQEBG_K@Z 0000000140052b24     libucrtd:strnlen.obj
 0002:00011b24       $unwind$??$common_strnlen_c@$0A@E@@YA_KQEBE_K@Z 0000000140052b24     libucrtd:strnlen.obj
 0002:00011b24       $unwind$??$common_strnlen_c@$0A@G@@YA_KQEBG_K@Z 0000000140052b24     libucrtd:strnlen.obj
 0002:00011b24       $unwind$?find_pe_section@@YAPEAU_IMAGE_SECTION_HEADER@@QEAE_K@Z 0000000140052b24     LIBCMTD:utility.obj
 0002:00011b24       $unwind$?_CallMemberFunction0@@YAXQEAX0@Z 0000000140052b24     libvcruntimed:ehhelpers.obj
 0002:00011b24       $unwind$?StateFromControlPc@__FrameHandler3@@SAHPEBU_s_FuncInfo@@PEAU_xDISPATCHER_CONTEXT@@@Z 0000000140052b24     libvcruntimed:ehstate.obj
 0002:00011b24       $unwind$??8type_info@@QEBA_NAEBV0@@Z 0000000140052b24     libvcruntimed:frame.obj
 0002:00011b24       $unwind$??9iterator@HandlerMap@__FrameHandler3@@QEBA_NAEBV012@@Z 0000000140052b24     libvcruntimed:frame.obj
 0002:00011b24       $unwind$?ExecutionInCatch@__FrameHandler3@@SA_NPEAU_xDISPATCHER_CONTEXT@@PEBU_s_FuncInfo@@@Z 0000000140052b24     libvcruntimed:risctrnsctrl.obj
 0002:00011b24       $unwind$_CreateFrameInfo   0000000140052b24     libvcruntimed:risctrnsctrl.obj
 0002:00011b24       $unwind$?try_get_first_available_module@@YAPEAUHINSTANCE__@@QEBW4module_id@?A0x14174aea@@0@Z 0000000140052b24     libvcruntimed:winapi_downlevel.obj
 0002:00011b2c       $unwind$__get_entropy      0000000140052b2c     LIBCMTD:gs_support.obj
 0002:00011b34       $unwind$__acrt_locale_changed 0000000140052b34     libucrtd:debug_heap.obj
 0002:00011b34       $unwind$_get_printf_count_output 0000000140052b34     libucrtd:printf_count_output.obj
 0002:00011b34       $unwind$?get_zero_pack@?$__crt_simd_pack_traits@$0A@@@SA?AT__m128i@@XZ 0000000140052b34     libucrtd:strnlen.obj
 0002:00011b34       $unwind$__scrt_is_user_matherr_present 0000000140052b34     LIBCMTD:matherr_detection.obj
 0002:00011b34       $unwind$__scrt_is_ucrt_dll_in_use 0000000140052b34     LIBCMTD:ucrt_detection.obj
 0002:00011b3c       $unwind$__scrt_get_show_window_mode 0000000140052b3c     LIBCMTD:utility_desktop.obj
 0002:00011b48       $unwind$__scrt_fastfail    0000000140052b48     LIBCMTD:utility_desktop.obj
 0002:00011b54       $unwind$_RTC_Initialize    0000000140052b54     LIBCMTD:initsect.obj
 0002:00011b54       $unwind$_RTC_Terminate     0000000140052b54     LIBCMTD:initsect.obj
 0002:00011b60       $unwind$__isa_available_init 0000000140052b60     LIBCMTD:cpu_disp.obj
 0002:00011b70       $xdatasym                  0000000140052b70     LIBCMTD:guard_dispatch.obj
 0002:00011b78       $xdatasym                  0000000140052b78     LIBCMTD:guard_xfg_dispatch.obj
 0002:00011b7c       $unwind$__acrt_fp_strflt_to_string 0000000140052b7c     libucrtd:_fptostr.obj
 0002:00011b7c       $unwind$??$parse_integer@KV?$c_string_character_source@_W@__crt_strtox@@$0A@@__crt_strtox@@YAKAEAV__crt_cached_ptd_host@@V?$c_string_character_source@_W@0@H_N@Z 0000000140052b7c     libucrtd:output.obj
 0002:00011b7c       $unwind$??$__InternalCxxFrameHandler@V__FrameHandler3@@@@YA?AW4_EXCEPTION_DISPOSITION@@PEAUEHExceptionRecord@@PEA_KPEAU_CONTEXT@@PEAU_xDISPATCHER_CONTEXT@@PEBU_s_FuncInfo@@H1E@Z 0000000140052b7c     libvcruntimed:frame.obj
 0002:00011b7c       $unwind$__C_specific_handler 0000000140052b7c     libvcruntimed:riscchandler.obj
 0002:00011b84       $unwind$_mbsdec            0000000140052b84     libucrtd:mbsdec.obj
 0002:00011b84       $unwind$??R<lambda_af27fe6ede5d83bbdbd622796c194e9c>@@QEBA@AEAPEAU__crt_multibyte_data@@@Z 0000000140052b84     libucrtd:initialization.obj
 0002:00011b84       $unwind$??$?RU__acrt_ptd@@@__crt_internal_free_policy@@QEBAXQEBU__acrt_ptd@@@Z 0000000140052b84     libucrtd:per_thread_data.obj
 0002:00011b84       $unwind$?replace_current_thread_locale_nolock@@YAXQEAU__acrt_ptd@@QEAU__crt_locale_data@@@Z 0000000140052b84     libucrtd:per_thread_data.obj
 0002:00011b84       $unwind$__acrt_getptd_noexit_explicit 0000000140052b84     libucrtd:per_thread_data.obj
 0002:00011b84       $unwind$__acrt_update_locale_info 0000000140052b84     libucrtd:locale_update.obj
 0002:00011b84       $unwind$__acrt_update_multibyte_info 0000000140052b84     libucrtd:locale_update.obj
 0002:00011b84       $unwind$??$?RU__crt_multibyte_data@@@__crt_internal_free_policy@@QEBAXQEBU__crt_multibyte_data@@@Z 0000000140052b84     libucrtd:wsetlocale.obj
 0002:00011b84       $unwind$??R<lambda_363eea9039da1e8169e2d060c7fe5cbc>@@QEBA@AEAPEAU__crt_locale_data@@@Z 0000000140052b84     libucrtd:wsetlocale.obj
 0002:00011b84       $unwind$??$?RU__crt_lowio_handle_data@@@__crt_internal_free_policy@@QEBAXQEBU__crt_lowio_handle_data@@@Z 0000000140052b84     libucrtd:osfinfo.obj
 0002:00011b84       $unwind$?check_synchronize_global_state_index@__crt_cached_ptd_host@@AEAA_KAEBV__crt_scoped_get_last_error_reset@@@Z 0000000140052b84     libucrtd:invalid_parameter.obj
 0002:00011b84       $unwind$?force_synchronize_global_state_index@__crt_cached_ptd_host@@AEAA_KAEBV__crt_scoped_get_last_error_reset@@@Z 0000000140052b84     libucrtd:invalid_parameter.obj
 0002:00011b84       $unwind$?value@?$dual_state_global@P6AXPEB_W00I_K@Z@__crt_state_management@@QEAAAEAP6AXPEB_W00I_K@ZAEAV__crt_cached_ptd_host@@@Z 0000000140052b84     libucrtd:invalid_parameter.obj
 0002:00011b84       $unwind$??$?RE@__crt_internal_free_policy@@QEBAXQEBE@Z 0000000140052b84     libucrtd:argv_parsing.obj
 0002:00011b84       $unwind$??$?RPEAD@__crt_internal_free_policy@@QEBAXQEBQEAD@Z 0000000140052b84     libucrtd:argv_parsing.obj
 0002:00011b84       $unwind$?expand_argv_wildcards@@YAHQEAPEADQEAPEAPEAD@Z 0000000140052b84     libucrtd:argv_parsing.obj
 0002:00011b84       $unwind$?<lambda_invoker_cdecl>@<lambda_a1ce4c8ae42411fd470c77163914f50e>@@CAHPEBX0@Z 0000000140052b84     libucrtd:argv_wildcards.obj
 0002:00011b84       $unwind$?deallocate@__crt_win32_buffer_internal_dynamic_resizing@@SAXQEAXAEBV__crt_win32_buffer_empty_debug_info@@@Z 0000000140052b84     libucrtd:argv_wildcards.obj
 0002:00011b84       $unwind$?previous_character@@YAPEADQEAD0@Z 0000000140052b84     libucrtd:argv_wildcards.obj
 0002:00011b84       $unwind$?strpbrk@@YAPEADQEADQEBD@Z 0000000140052b84     libucrtd:argv_wildcards.obj
 0002:00011b84       $unwind$__acrt_expand_narrow_argv_wildcards 0000000140052b84     libucrtd:argv_wildcards.obj
 0002:00011b84       $unwind$??$__crt_get_proc_address@P6AXI@Z@@YAP6AXI@ZQEAUHINSTANCE__@@QEBD@Z 0000000140052b84     libucrtd:exit.obj
 0002:00011b84       $unwind$??$?RP6AXXZ@__crt_internal_free_policy@@QEBAXQEBQ6AXXZ@Z 0000000140052b84     libucrtd:onexit.obj
 0002:00011b84       $unwind$??$?RPEAU__crt_stdio_stream_data@@@__crt_internal_free_policy@@QEBAXQEBQEAU__crt_stdio_stream_data@@@Z 0000000140052b84     libucrtd:_file.obj
 0002:00011b84       $unwind$??$extract_argument_from_va_list@C_J@?$standard_base@DV?$string_output_adapter@D@__crt_stdio_output@@@__crt_stdio_output@@IEAA_NAEA_J@Z 0000000140052b84     libucrtd:output.obj
 0002:00011b84       $unwind$??$extract_argument_from_va_list@C_J@?$standard_base@_WV?$string_output_adapter@_W@__crt_stdio_output@@@__crt_stdio_output@@IEAA_NAEA_J@Z 0000000140052b84     libucrtd:output.obj
 0002:00011b84       $unwind$??$extract_argument_from_va_list@E_J@?$standard_base@DV?$string_output_adapter@D@__crt_stdio_output@@@__crt_stdio_output@@IEAA_NAEA_J@Z 0000000140052b84     libucrtd:output.obj
 0002:00011b84       $unwind$??$extract_argument_from_va_list@E_J@?$standard_base@_WV?$string_output_adapter@_W@__crt_stdio_output@@@__crt_stdio_output@@IEAA_NAEA_J@Z 0000000140052b84     libucrtd:output.obj
 0002:00011b84       $unwind$??$extract_argument_from_va_list@F_J@?$standard_base@DV?$string_output_adapter@D@__crt_stdio_output@@@__crt_stdio_output@@IEAA_NAEA_J@Z 0000000140052b84     libucrtd:output.obj
 0002:00011b84       $unwind$??$extract_argument_from_va_list@F_J@?$standard_base@_WV?$string_output_adapter@_W@__crt_stdio_output@@@__crt_stdio_output@@IEAA_NAEA_J@Z 0000000140052b84     libucrtd:output.obj
 0002:00011b84       $unwind$??$extract_argument_from_va_list@GD@?$standard_base@DV?$string_output_adapter@D@__crt_stdio_output@@@__crt_stdio_output@@IEAA_NAEAD@Z 0000000140052b84     libucrtd:output.obj
 0002:00011b84       $unwind$??$extract_argument_from_va_list@G_J@?$standard_base@DV?$string_output_adapter@D@__crt_stdio_output@@@__crt_stdio_output@@IEAA_NAEA_J@Z 0000000140052b84     libucrtd:output.obj
 0002:00011b84       $unwind$??$extract_argument_from_va_list@G_J@?$standard_base@_WV?$string_output_adapter@_W@__crt_stdio_output@@@__crt_stdio_output@@IEAA_NAEA_J@Z 0000000140052b84     libucrtd:output.obj
 0002:00011b84       $unwind$??$extract_argument_from_va_list@H_J@?$standard_base@DV?$string_output_adapter@D@__crt_stdio_output@@@__crt_stdio_output@@IEAA_NAEA_J@Z 0000000140052b84     libucrtd:output.obj
 0002:00011b84       $unwind$??$extract_argument_from_va_list@H_J@?$standard_base@_WV?$string_output_adapter@_W@__crt_stdio_output@@@__crt_stdio_output@@IEAA_NAEA_J@Z 0000000140052b84     libucrtd:output.obj
 0002:00011b84       $unwind$??$extract_argument_from_va_list@I_J@?$standard_base@DV?$string_output_adapter@D@__crt_stdio_output@@@__crt_stdio_output@@IEAA_NAEA_J@Z 0000000140052b84     libucrtd:output.obj
 0002:00011b84       $unwind$??$extract_argument_from_va_list@I_J@?$standard_base@_WV?$string_output_adapter@_W@__crt_stdio_output@@@__crt_stdio_output@@IEAA_NAEA_J@Z 0000000140052b84     libucrtd:output.obj
 0002:00011b84       $unwind$??$extract_argument_from_va_list@PEADPEAD@?$standard_base@DV?$string_output_adapter@D@__crt_stdio_output@@@__crt_stdio_output@@IEAA_NAEAPEAD@Z 0000000140052b84     libucrtd:output.obj
 0002:00011b84       $unwind$??$extract_argument_from_va_list@PEADPEAD@?$standard_base@_WV?$string_output_adapter@_W@__crt_stdio_output@@@__crt_stdio_output@@IEAA_NAEAPEAD@Z 0000000140052b84     libucrtd:output.obj
 0002:00011b84       $unwind$??$extract_argument_from_va_list@PEAUansi_string@?1??type_case_Z@?$output_processor@DV?$string_output_adapter@D@__crt_stdio_output@@V?$format_validation_base@DV?$string_output_adapter@D@__crt_stdio_output@@@2@@__crt_stdio_output@@AEAA_NXZ@PEAU1?1??234@AEAA_NXZ@@?$standard_base@DV?$string_output_adapter@D@__crt_stdio_output@@@__crt_stdio_output@@IEAA_NAEAPEAUansi_string@?1??type_case_Z@?$output_processor@DV?$string_output_adapter@D@__crt_stdio_output@@V?$format_validation_base@DV?$string_output_adapter@D@__crt_stdio_output@@@2@@1@AEAA_NXZ@@Z 0000000140052b84     libucrtd:output.obj
 0002:00011b84       $unwind$??$extract_argument_from_va_list@PEAUansi_string@?1??type_case_Z@?$output_processor@_WV?$string_output_adapter@_W@__crt_stdio_output@@V?$format_validation_base@_WV?$string_output_adapter@_W@__crt_stdio_output@@@2@@__crt_stdio_output@@AEAA_NXZ@PEAU1?1??234@AEAA_NXZ@@?$standard_base@_WV?$string_output_adapter@_W@__crt_stdio_output@@@__crt_stdio_output@@IEAA_NAEAPEAUansi_string@?1??type_case_Z@?$output_processor@_WV?$string_output_adapter@_W@__crt_stdio_output@@V?$format_validation_base@_WV?$string_output_adapter@_W@__crt_stdio_output@@@2@@1@AEAA_NXZ@@Z 0000000140052b84     libucrtd:output.obj
 0002:00011b84       $unwind$??$extract_argument_from_va_list@PEAXPEAX@?$standard_base@DV?$string_output_adapter@D@__crt_stdio_output@@@__crt_stdio_output@@IEAA_NAEAPEAX@Z 0000000140052b84     libucrtd:output.obj
 0002:00011b84       $unwind$??$extract_argument_from_va_list@PEAXPEAX@?$standard_base@_WV?$string_output_adapter@_W@__crt_stdio_output@@@__crt_stdio_output@@IEAA_NAEAPEAX@Z 0000000140052b84     libucrtd:output.obj
 0002:00011b84       $unwind$??$extract_argument_from_va_list@_J_J@?$standard_base@DV?$string_output_adapter@D@__crt_stdio_output@@@__crt_stdio_output@@IEAA_NAEA_J@Z 0000000140052b84     libucrtd:output.obj
 0002:00011b84       $unwind$??$extract_argument_from_va_list@_J_J@?$standard_base@_WV?$string_output_adapter@_W@__crt_stdio_output@@@__crt_stdio_output@@IEAA_NAEA_J@Z 0000000140052b84     libucrtd:output.obj
 0002:00011b84       $unwind$??$extract_argument_from_va_list@_K_J@?$standard_base@DV?$string_output_adapter@D@__crt_stdio_output@@@__crt_stdio_output@@IEAA_NAEA_J@Z 0000000140052b84     libucrtd:output.obj
 0002:00011b84       $unwind$??$extract_argument_from_va_list@_K_J@?$standard_base@_WV?$string_output_adapter@_W@__crt_stdio_output@@@__crt_stdio_output@@IEAA_NAEA_J@Z 0000000140052b84     libucrtd:output.obj
 0002:00011b84       $unwind$??$extract_argument_from_va_list@_W_W@?$standard_base@DV?$string_output_adapter@D@__crt_stdio_output@@@__crt_stdio_output@@IEAA_NAEA_W@Z 0000000140052b84     libucrtd:output.obj
 0002:00011b84       $unwind$??$extract_argument_from_va_list@_W_W@?$standard_base@_WV?$string_output_adapter@_W@__crt_stdio_output@@@__crt_stdio_output@@IEAA_NAEA_W@Z 0000000140052b84     libucrtd:output.obj
 0002:00011b84       $unwind$??0?$common_data@D@__crt_stdio_output@@IEAA@AEAV__crt_cached_ptd_host@@@Z 0000000140052b84     libucrtd:output.obj
 0002:00011b84       $unwind$??0?$common_data@_W@__crt_stdio_output@@IEAA@AEAV__crt_cached_ptd_host@@@Z 0000000140052b84     libucrtd:output.obj
 0002:00011b84       $unwind$??4?$__crt_unique_heap_ptr@DU__crt_internal_free_policy@@@@QEAAAEAV0@$$QEAV0@@Z 0000000140052b84     libucrtd:output.obj
 0002:00011b84       $unwind$?create_guard@?$cached@H@__crt_cached_ptd_host@@QEAA?AVguard@12@XZ 0000000140052b84     libucrtd:output.obj
 0002:00011b84       $unwind$?crop_zeroes@__crt_stdio_output@@YAXPEADQEAU__crt_locale_pointers@@@Z 0000000140052b84     libucrtd:output.obj
 0002:00011b84       $unwind$??$common_strnlen@$00G@@YA_KQEBG_K@Z 0000000140052b84     libucrtd:strnlen.obj
 0002:00011b84       $unwind$??$common_strnlen@$0A@E@@YA_KQEBE_K@Z 0000000140052b84     libucrtd:strnlen.obj
 0002:00011b84       $unwind$??$common_strnlen@$0A@G@@YA_KQEBG_K@Z 0000000140052b84     libucrtd:strnlen.obj
 0002:00011b84       $unwind$strnlen            0000000140052b84     libucrtd:strnlen.obj
 0002:00011b84       $unwind$wcsnlen            0000000140052b84     libucrtd:strnlen.obj
 0002:00011b84       $unwind$??3@YAXPEAX_K@Z    0000000140052b84     LIBCMTD:delete_scalar_size.obj
 0002:00011b84       $unwind$_FindPESection     0000000140052b84     LIBCMTD:pesect.obj
 0002:00011b84       $unwind$??0bad_exception@std@@QEAA@AEBV01@@Z 0000000140052b84     libvcruntimed:frame.obj
 0002:00011b84       $unwind$?begin@HandlerMap@__FrameHandler3@@QEAA?AViterator@12@XZ 0000000140052b84     libvcruntimed:frame.obj
 0002:00011b84       $unwind$?end@HandlerMap@__FrameHandler3@@QEAA?AViterator@12@XZ 0000000140052b84     libvcruntimed:frame.obj
 0002:00011b84       $unwind$??$?RU__vcrt_ptd@@@__crt_internal_free_policy@@QEBAXQEBU__vcrt_ptd@@@Z 0000000140052b84     libvcruntimed:per_thread_data.obj
 0002:00011b84       $unwind$??$?RD@__crt_public_free_policy@@QEBAXQEBD@Z 0000000140052b84     libvcruntimed:std_exception.obj
 0002:00011b84       $unwind$??$?RD@__crt_internal_free_policy@@QEBAXQEBD@Z 0000000140052b84     libvcruntimed:std_type_info.obj
 0002:00011b84       $unwind$__std_type_info_compare 0000000140052b84     libvcruntimed:std_type_info.obj
 0002:00011b8c       $unwind$__DestructExceptionObject 0000000140052b8c     libvcruntimed:ehhelpers.obj
 0002:00011bac       $unwind$_close_nolock_internal 0000000140052bac     libucrtd:close.obj
 0002:00011bac       $unwind$?write_requires_double_translation_nolock@@YA_NHAEAV__crt_cached_ptd_host@@@Z 0000000140052bac     libucrtd:write.obj
 0002:00011bac       $unwind$?has_any_of@__crt_stdio_stream@@QEBA_NJ@Z 0000000140052bac     libucrtd:_sftbuf.obj
 0002:00011bac       $unwind$?has_all_of@__crt_stdio_stream@@QEBA_NJ@Z 0000000140052bac     libucrtd:fflush.obj
 0002:00011bac       $unwind$_exception_enabled 0000000140052bac     libucrtd:libm_error.obj
 0002:00011bac       $unwind$?_FilterSetCurrentException@@YAKPEAU_EXCEPTION_POINTERS@@E@Z 0000000140052bac     libvcruntimed:ehhelpers.obj
 0002:00011bac       $unwind$?CatchTryBlock@__FrameHandler3@@SAPEBU_s_TryBlockMapEntry@@PEBU_s_FuncInfo@@H@Z 0000000140052bac     libvcruntimed:risctrnsctrl.obj
 0002:00011bb8       $xdatasym$memcpy           0000000140052bb8     libvcruntimed:memcpy.obj
 0002:00011bb8       $xdatasym$memset           0000000140052bb8     libvcruntimed:memset.obj
 0002:00011bb8       $xdatasym$_NLG_Notify      0000000140052bb8     libvcruntimed:notify.obj
 0002:00011bb8       $xdatasym$__NLG_Dispatch2  0000000140052bb8     libvcruntimed:notify.obj
 0002:00011bb8       $xdatasym$__NLG_Return2    0000000140052bb8     libvcruntimed:notify.obj
 0002:00011bbc       $unwind$__vcrt_getptd_noexit 0000000140052bbc     libvcruntimed:per_thread_data.obj
 0002:00011bc4       $unwind$?should_round_up@@YA_NQEBD0HW4__acrt_has_trailing_digits@@W4__acrt_rounding_mode@@@Z 0000000140052bc4     libucrtd:_fptostr.obj
 0002:00011bc4       $unwind$memcpy_s           0000000140052bc4     libucrtd:cfout.obj
 0002:00011bc4       $unwind$?__mbrtowc_utf8@__crt_mbstring@@YA_KPEA_WPEBD_KPEAU_Mbstatet@@AEAV__crt_cached_ptd_host@@@Z 0000000140052bc4     libucrtd:mbrtowc.obj
 0002:00011bc4       $unwind$memcpy_s           0000000140052bc4     libucrtd:mbctype.obj
 0002:00011bc4       $unwind$_snwprintf_s       0000000140052bc4     libucrtd:dbgrpt.obj
 0002:00011bc4       $unwind$_snprintf_s        0000000140052bc4     libucrtd:dbgrptt.obj
 0002:00011bc4       $unwind$??$_tcstol_internal@DPEAPEAD$0A@@@YAJAEAV__crt_cached_ptd_host@@QEBDQEAPEADH@Z 0000000140052bc4     libucrtd:output.obj
 0002:00011bc4       $unwind$??$_tcstol_internal@_WPEAPEA_W$0A@@@YAJAEAV__crt_cached_ptd_host@@QEB_WQEAPEA_WH@Z 0000000140052bc4     libucrtd:output.obj
 0002:00011bc4       $unwind$?write_string@?$string_output_adapter@D@__crt_stdio_output@@QEBAXQEBDHQEAHAEAV__crt_cached_ptd_host@@@Z 0000000140052bc4     libucrtd:output.obj
 0002:00011bc4       $unwind$?write_string@?$string_output_adapter@_W@__crt_stdio_output@@QEBAXQEB_WHQEAHAEAV__crt_cached_ptd_host@@@Z 0000000140052bc4     libucrtd:output.obj
 0002:00011bc4       $unwind$_raise_exc         0000000140052bc4     libucrtd:fpexcept.obj
 0002:00011bc4       $unwind$__GSHandlerCheck_EH 0000000140052bc4     LIBCMTD:gshandlereh.obj
 0002:00011bc4       $unwind$__GSHandlerCheck_SEH 0000000140052bc4     LIBCMTD:gshandlerseh.obj
 0002:00011bc4       $unwind$??$__InternalCxxFrameHandlerWrapper@V__FrameHandler3@@@@YA?AW4_EXCEPTION_DISPOSITION@@PEAUEHExceptionRecord@@PEA_KPEAU_CONTEXT@@PEAU_xDISPATCHER_CONTEXT@@PEBU_s_FuncInfo@@H1E@Z 0000000140052bc4     libvcruntimed:frame.obj
 0002:00011bc4       $unwind$_vsprintf_s_l      0000000140052bc4     libvcruntimed:undname.obj
 0002:00011bc4       $unwind$sprintf_s          0000000140052bc4     libvcruntimed:undname.obj
 0002:00011bcc       $unwind$_set_new_mode      0000000140052bcc     libucrtd:new_mode.obj
 0002:00011bcc       $unwind$??$get_cached_win_policy@Udeveloper_information_policy_properties@?1??__acrt_get_developer_information_policy@@YA?AW4developer_information_policy@@XZ@@@YA?AW4developer_information_policy@@W4AppPolicyShowDeveloperDiagnostic@@@Z 0000000140052bcc     libucrtd:win_policies.obj
 0002:00011bcc       $unwind$??$get_cached_win_policy@Uwindowing_model_policy_properties@?1??__acrt_get_windowing_model_policy@@YA?AW4windowing_model_policy@@XZ@@@YA?AW4windowing_model_policy@@W4AppPolicyWindowingModel@@@Z 0000000140052bcc     libucrtd:win_policies.obj
 0002:00011bcc       $unwind$__acrt_uninitialize_winapi_thunks 0000000140052bcc     libucrtd:winapi_thunks.obj
 0002:00011bcc       $unwind$_isatty            0000000140052bcc     libucrtd:isatty.obj
 0002:00011bcc       $unwind$_get_osfhandle     0000000140052bcc     libucrtd:osfinfo.obj
 0002:00011bcc       $unwind$_set_fmode         0000000140052bcc     libucrtd:setmode.obj
 0002:00011bcc       $unwind$_set_error_mode    0000000140052bcc     libucrtd:set_error_mode.obj
 0002:00011bcc       $unwind$__vcrt_FlsFree     0000000140052bcc     libvcruntimed:winapi_downlevel.obj
 0002:00011bcc       $unwind$__vcrt_FlsGetValue 0000000140052bcc     libvcruntimed:winapi_downlevel.obj
 0002:00011bd4       $unwind$__acrt_LocaleNameToLCID 0000000140052bd4     libucrtd:winapi_thunks.obj
 0002:00011bd4       $unwind$__acrt_errno_map_os_error_ptd 0000000140052bd4     libucrtd:errno.obj
 0002:00011bd4       $unwind$?unget@?$c_string_character_source@D@__crt_strtox@@QEAAXD@Z 0000000140052bd4     libucrtd:output.obj
 0002:00011bd4       $unwind$__vcrt_FlsSetValue 0000000140052bd4     libvcruntimed:winapi_downlevel.obj
 0002:00011bdc       $unwind$__dcrt_write_console 0000000140052bdc     libucrtd:initcon.obj
 0002:00011bdc       $unwind$__acrt_InitializeCriticalSectionEx 0000000140052bdc     libucrtd:winapi_thunks.obj
 0002:00011bdc       $unwind$??$type_case_integer_parse_into_buffer@I$07@?$output_processor@DV?$string_output_adapter@D@__crt_stdio_output@@V?$format_validation_base@DV?$string_output_adapter@D@__crt_stdio_output@@@2@@__crt_stdio_output@@AEAAXI_N@Z 0000000140052bdc     libucrtd:output.obj
 0002:00011bdc       $unwind$??$type_case_integer_parse_into_buffer@I$07@?$output_processor@_WV?$string_output_adapter@_W@__crt_stdio_output@@V?$format_validation_base@_WV?$string_output_adapter@_W@__crt_stdio_output@@@2@@__crt_stdio_output@@AEAAXI_N@Z 0000000140052bdc     libucrtd:output.obj
 0002:00011bdc       $unwind$??$type_case_integer_parse_into_buffer@I$09@?$output_processor@DV?$string_output_adapter@D@__crt_stdio_output@@V?$format_validation_base@DV?$string_output_adapter@D@__crt_stdio_output@@@2@@__crt_stdio_output@@AEAAXI_N@Z 0000000140052bdc     libucrtd:output.obj
 0002:00011bdc       $unwind$??$type_case_integer_parse_into_buffer@I$09@?$output_processor@_WV?$string_output_adapter@_W@__crt_stdio_output@@V?$format_validation_base@_WV?$string_output_adapter@_W@__crt_stdio_output@@@2@@__crt_stdio_output@@AEAAXI_N@Z 0000000140052bdc     libucrtd:output.obj
 0002:00011bdc       $unwind$??$type_case_integer_parse_into_buffer@I$0BA@@?$output_processor@DV?$string_output_adapter@D@__crt_stdio_output@@V?$format_validation_base@DV?$string_output_adapter@D@__crt_stdio_output@@@2@@__crt_stdio_output@@AEAAXI_N@Z 0000000140052bdc     libucrtd:output.obj
 0002:00011bdc       $unwind$??$type_case_integer_parse_into_buffer@I$0BA@@?$output_processor@_WV?$string_output_adapter@_W@__crt_stdio_output@@V?$format_validation_base@_WV?$string_output_adapter@_W@__crt_stdio_output@@@2@@__crt_stdio_output@@AEAAXI_N@Z 0000000140052bdc     libucrtd:output.obj
 0002:00011bdc       $unwind$_controlfp_s       0000000140052bdc     libucrtd:contrlfp.obj
 0002:00011bdc       $unwind$__vcrt_InitializeCriticalSectionEx 0000000140052bdc     libvcruntimed:winapi_downlevel.obj
 0002:00011be4       $unwind$?try_get_module@@YAPEAUHINSTANCE__@@W4module_id@?A0x391cf84c@@@Z 0000000140052be4     libucrtd:winapi_thunks.obj
 0002:00011be4       $unwind$_configthreadlocale 0000000140052be4     libucrtd:wsetlocale.obj
 0002:00011be4       $unwind$?try_get_module@@YAPEAUHINSTANCE__@@W4module_id@?A0x14174aea@@@Z 0000000140052be4     libvcruntimed:winapi_downlevel.obj
 0002:00011bec       $unwind$?try_get_proc_address_from_first_available_module@@YAPEAXQEBDQEBW4module_id@?A0x391cf84c@@1@Z 0000000140052bec     libucrtd:winapi_thunks.obj
 0002:00011bec       $unwind$?allocate@__crt_win32_buffer_internal_dynamic_resizing@@SAHQEAPEAX_KAEBV__crt_win32_buffer_empty_debug_info@@@Z 0000000140052bec     libucrtd:argv_wildcards.obj
 0002:00011bec       $unwind$?GetUnwindTryBlock@__FrameHandler3@@SAHPEA_KPEAU_xDISPATCHER_CONTEXT@@PEBU_s_FuncInfo@@@Z 0000000140052bec     libvcruntimed:ehstate.obj
 0002:00011bec       $unwind$?StateFromIp@__FrameHandler3@@SAHPEBU_s_FuncInfo@@PEAU_xDISPATCHER_CONTEXT@@_K@Z 0000000140052bec     libvcruntimed:ehstate.obj
 0002:00011bec       $unwind$?ExFilterRethrow@@YAHPEAU_EXCEPTION_POINTERS@@PEAUEHExceptionRecord@@PEAH@Z 0000000140052bec     libvcruntimed:frame.obj
 0002:00011bec       $unwind$?GetHandlerSearchState@__FrameHandler3@@SAHPEA_KPEAU_xDISPATCHER_CONTEXT@@PEBU_s_FuncInfo@@@Z 0000000140052bec     libvcruntimed:frame.obj
 0002:00011bec       $unwind$?_CallMemberFunction1@@YAXQEAX00@Z 0000000140052bec     libvcruntimed:frame.obj
 0002:00011bec       $unwind$?try_get_proc_address_from_first_available_module@@YAPEAXQEBDQEBW4module_id@?A0x14174aea@@1@Z 0000000140052bec     libvcruntimed:winapi_downlevel.obj
 0002:00011bf4       $unwind$?x_ismbbtype_l@@YAHPEAU__crt_locale_pointers@@IHH@Z 0000000140052bf4     libucrtd:ismbbyte.obj
 0002:00011bf4       $unwind$?try_get_function@@YAPEAXW4function_id@?A0x391cf84c@@QEBDQEBW4module_id@2@2@Z 0000000140052bf4     libucrtd:winapi_thunks.obj
 0002:00011bf4       $unwind$??$common_lseek_nolock@_J@@YA_JH_JHAEAV__crt_cached_ptd_host@@@Z 0000000140052bf4     libucrtd:lseek.obj
 0002:00011bf4       $unwind$_CrtDbgReport      0000000140052bf4     libucrtd:dbgrpt.obj
 0002:00011bf4       $unwind$_CrtDbgReportW     0000000140052bf4     libucrtd:dbgrpt.obj
 0002:00011bf4       $unwind$_call_matherr      0000000140052bf4     libucrtd:libm_error.obj
 0002:00011bf4       $unwind$?try_get_function@@YAPEAXW4function_id@?A0x14174aea@@QEBDQEBW4module_id@2@2@Z 0000000140052bf4     libvcruntimed:winapi_downlevel.obj
 0002:00011c00       $xdatasym$memcpy_repmovs   0000000140052c00     libvcruntimed:memcpy.obj
 0002:00011c0c       $unwind$??$common_show_message_box@_W@@YAHQEB_W0I@Z 0000000140052c0c     libucrtd:crtmbox.obj
 0002:00011c0c       $unwind$??$type_case_integer_parse_into_buffer@_K$07@?$output_processor@DV?$string_output_adapter@D@__crt_stdio_output@@V?$format_validation_base@DV?$string_output_adapter@D@__crt_stdio_output@@@2@@__crt_stdio_output@@AEAAX_K_N@Z 0000000140052c0c     libucrtd:output.obj
 0002:00011c0c       $unwind$??$type_case_integer_parse_into_buffer@_K$07@?$output_processor@_WV?$string_output_adapter@_W@__crt_stdio_output@@V?$format_validation_base@_WV?$string_output_adapter@_W@__crt_stdio_output@@@2@@__crt_stdio_output@@AEAAX_K_N@Z 0000000140052c0c     libucrtd:output.obj
 0002:00011c0c       $unwind$??$type_case_integer_parse_into_buffer@_K$09@?$output_processor@DV?$string_output_adapter@D@__crt_stdio_output@@V?$format_validation_base@DV?$string_output_adapter@D@__crt_stdio_output@@@2@@__crt_stdio_output@@AEAAX_K_N@Z 0000000140052c0c     libucrtd:output.obj
 0002:00011c0c       $unwind$??$type_case_integer_parse_into_buffer@_K$09@?$output_processor@_WV?$string_output_adapter@_W@__crt_stdio_output@@V?$format_validation_base@_WV?$string_output_adapter@_W@__crt_stdio_output@@@2@@__crt_stdio_output@@AEAAX_K_N@Z 0000000140052c0c     libucrtd:output.obj
 0002:00011c0c       $unwind$??$type_case_integer_parse_into_buffer@_K$0BA@@?$output_processor@DV?$string_output_adapter@D@__crt_stdio_output@@V?$format_validation_base@DV?$string_output_adapter@D@__crt_stdio_output@@@2@@__crt_stdio_output@@AEAAX_K_N@Z 0000000140052c0c     libucrtd:output.obj
 0002:00011c0c       $unwind$??$type_case_integer_parse_into_buffer@_K$0BA@@?$output_processor@_WV?$string_output_adapter@_W@__crt_stdio_output@@V?$format_validation_base@_WV?$string_output_adapter@_W@__crt_stdio_output@@@2@@__crt_stdio_output@@AEAAX_K_N@Z 0000000140052c0c     libucrtd:output.obj
 0002:00011c0c       $unwind$?type_case_s_compute_narrow_string_length@?$output_processor@_WV?$string_output_adapter@_W@__crt_stdio_output@@V?$format_validation_base@_WV?$string_output_adapter@_W@__crt_stdio_output@@@2@@__crt_stdio_output@@AEAAHH_W@Z 0000000140052c0c     libucrtd:output.obj
 0002:00011c0c       $unwind$?FrameUnwindToEmptyState@__FrameHandler3@@SAXPEA_KPEAU_xDISPATCHER_CONTEXT@@PEBU_s_FuncInfo@@@Z 0000000140052c0c     libvcruntimed:risctrnsctrl.obj
 0002:00011c14       $unwind$?fp_format_f_internal@@YAHQEAD_KHQEAU_strflt@@_NAEAV__crt_cached_ptd_host@@@Z 0000000140052c14     libucrtd:cvt.obj
 0002:00011c14       $unwind$_recalloc_dbg      0000000140052c14     libucrtd:debug_heap.obj
 0002:00011c14       $unwind$__acrt_MessageBoxW 0000000140052c14     libucrtd:winapi_thunks.obj
 0002:00011c14       $unwind$_vsnwprintf_s_l    0000000140052c14     libucrtd:dbgrpt.obj
 0002:00011c14       $unwind$_vsnprintf_s_l     0000000140052c14     libucrtd:dbgrptt.obj
 0002:00011c14       $unwind$??$parse_command_line@D@@YAXPEADPEAPEAD0PEA_K2@Z 0000000140052c14     libucrtd:argv_parsing.obj
 0002:00011c14       $unwind$_raise_exc_ex      0000000140052c14     libucrtd:fpexcept.obj
 0002:00011c14       $unwind$??$SehTransFilter@V__FrameHandler3@@@@YAHPEAU_EXCEPTION_POINTERS@@PEAUEHExceptionRecord@@PEA_KPEAU_CONTEXT@@PEAU_xDISPATCHER_CONTEXT@@PEBU_s_FuncInfo@@HPEAH@Z 0000000140052c14     libvcruntimed:risctrnsctrl.obj
 0002:00011c14       $unwind$?GetEstablisherFrame@__FrameHandler3@@SAPEA_KPEA_KPEAU_xDISPATCHER_CONTEXT@@PEBU_s_FuncInfo@@0@Z 0000000140052c14     libvcruntimed:risctrnsctrl.obj
 0002:00011c1c       $unwind$?UnwindNestedFrames@__FrameHandler3@@SAXPEA_KPEAUEHExceptionRecord@@PEAU_CONTEXT@@0PEAXPEBU_s_FuncInfo@@HHPEBU_s_HandlerType@@PEAU_xDISPATCHER_CONTEXT@@E@Z 0000000140052c1c     libvcruntimed:risctrnsctrl.obj
 0002:00011c30       $unwind$_invalid_parameter 0000000140052c30     libucrtd:invalid_parameter.obj
 0002:00011c30       $unwind$??$copy_and_add_argument_to_buffer@D@@YAHQEBD0_KAEAV?$argument_list@D@?A0x5f5c8891@@@Z 0000000140052c30     libucrtd:argv_wildcards.obj
 0002:00011c30       $unwind$?GetRangeOfTrysToCheck@__FrameHandler3@@SA?AU?$pair@Viterator@TryBlockMap@__FrameHandler3@@V123@@std@@AEAVTryBlockMap@1@HPEAU_xDISPATCHER_CONTEXT@@PEBU_s_FuncInfo@@H@Z 0000000140052c30     libvcruntimed:risctrnsctrl.obj
 0002:00011c30       $unwind$__CxxFrameHandler3 0000000140052c30     libvcruntimed:risctrnsctrl.obj
 0002:00011c38       $unwind$??$_CallSETranslator@V__FrameHandler3@@@@YAHPEAUEHExceptionRecord@@PEA_KPEAU_CONTEXT@@PEAU_xDISPATCHER_CONTEXT@@PEBU_s_FuncInfo@@K1H@Z 0000000140052c38     libvcruntimed:risctrnsctrl.obj
 0002:00011c58       $unwind$?fin$0@?0??heap_alloc_dbg_internal@@YAPEAX_KHQEBDH@Z@4HA 0000000140052c58     libucrtd:debug_heap.obj
 0002:00011c58       $unwind$_CrtMemCheckpoint$fin$0 0000000140052c58     libucrtd:debug_heap.obj
 0002:00011c58       $unwind$_VCrtDbgReportA$fin$0 0000000140052c58     libucrtd:dbgrptt.obj
 0002:00011c58       $unwind$_VCrtDbgReportA$fin$1 0000000140052c58     libucrtd:dbgrptt.obj
 0002:00011c58       $unwind$_VCrtDbgReportW$fin$0 0000000140052c58     libucrtd:dbgrptt.obj
 0002:00011c58       $unwind$_VCrtDbgReportW$fin$1 0000000140052c58     libucrtd:dbgrptt.obj
 0002:00011c58       $unwind$?filt$0@?0???$_CallSETranslator@V__FrameHandler3@@@@YAHPEAUEHExceptionRecord@@PEA_KPEAU_CONTEXT@@PEAU_xDISPATCHER_CONTEXT@@PEBU_s_FuncInfo@@K1H@Z@4HA 0000000140052c58     libvcruntimed:risctrnsctrl.obj
 0002:00011c60       $unwind$??$?0AEAViterator@TryBlockMap@__FrameHandler3@@AEAV012@$0A@@?$pair@Viterator@TryBlockMap@__FrameHandler3@@V123@@std@@QEAA@AEAViterator@TryBlockMap@__FrameHandler3@@0@Z 0000000140052c60     libvcruntimed:risctrnsctrl.obj
 0002:00011c68       $unwind$??$tcscpy_s@PEADAEB_KAEAPEAD@?$__crt_char_traits@D@@SAH$$QEAPEADAEB_KAEAPEAD@Z 0000000140052c68     libucrtd:environment_initialization.obj
 0002:00011c68       $unwind$?allocate@__crt_win32_buffer_no_resizing@@SAHQEAPEAX_KAEBV__crt_win32_buffer_empty_debug_info@@@Z 0000000140052c68     libucrtd:getmodulefilenamea.obj
 0002:00011c68       $unwind$__acrt_update_locale_info_explicit 0000000140052c68     libucrtd:locale_update.obj
 0002:00011c68       $unwind$__acrt_update_multibyte_info_explicit 0000000140052c68     libucrtd:locale_update.obj
 0002:00011c68       $unwind$__acrt_show_wide_message_box 0000000140052c68     libucrtd:crtmbox.obj
 0002:00011c68       $unwind$??$get_module_file_name@AEAPEAUHINSTANCE__@@AEAY0BAF@DK@?$__crt_char_traits@D@@SAKAEAPEAUHINSTANCE__@@AEAY0BAF@D$$QEAK@Z 0000000140052c68     libucrtd:dbgrpt.obj
 0002:00011c68       $unwind$??$get_module_file_name@AEAPEAUHINSTANCE__@@AEAY0BAF@_WK@?$__crt_char_traits@_W@@SAKAEAPEAUHINSTANCE__@@AEAY0BAF@_W$$QEAK@Z 0000000140052c68     libucrtd:dbgrpt.obj
 0002:00011c68       $unwind$??$tcscpy_s@AEAY0BAF@D_KPEBD@?$__crt_char_traits@D@@SAHAEAY0BAF@D$$QEA_K$$QEAPEBD@Z 0000000140052c68     libucrtd:dbgrpt.obj
 0002:00011c68       $unwind$??$tcscpy_s@AEAY0BAF@_W_KPEB_W@?$__crt_char_traits@_W@@SAHAEAY0BAF@_W$$QEA_K$$QEAPEB_W@Z 0000000140052c68     libucrtd:dbgrpt.obj
 0002:00011c68       $unwind$??$get_module_file_name@$$TAEAY0BAF@DH@?$__crt_char_traits@D@@SAK$$QEA$$TAEAY0BAF@D$$QEAH@Z 0000000140052c68     libucrtd:argv_parsing.obj
 0002:00011c68       $unwind$??$make_c_string_character_source@DPEAPEAD@__crt_strtox@@YA?AV?$c_string_character_source@D@0@QEBDQEAPEAD@Z 0000000140052c68     libucrtd:output.obj
 0002:00011c68       $unwind$??$make_c_string_character_source@_WPEAPEA_W@__crt_strtox@@YA?AV?$c_string_character_source@_W@0@QEB_WQEAPEA_W@Z 0000000140052c68     libucrtd:output.obj
 0002:00011c68       $unwind$strcat_s           0000000140052c68     libucrtd:strcat_s.obj
 0002:00011c68       $unwind$strcpy_s           0000000140052c68     libucrtd:strcpy_s.obj
 0002:00011c68       $unwind$wcscat_s           0000000140052c68     libucrtd:wcscat_s.obj
 0002:00011c68       $unwind$wcscpy_s           0000000140052c68     libucrtd:wcscpy_s.obj
 0002:00011c68       $unwind$?GetCurrentState@__FrameHandler3@@SAHPEA_KPEAU_xDISPATCHER_CONTEXT@@PEBU_s_FuncInfo@@@Z 0000000140052c68     libvcruntimed:ehstate.obj
 0002:00011c68       $unwind$?TypeMatch@__FrameHandler3@@SAHPEBU_s_HandlerType@@PEBU_s_CatchableType@@PEBU_s_ThrowInfo@@@Z 0000000140052c68     libvcruntimed:frame.obj
 0002:00011c68       $unwind$__TypeMatch        0000000140052c68     libvcruntimed:frame.obj
 0002:00011c70       $unwind$_calloc_dbg        0000000140052c70     libucrtd:debug_heap.obj
 0002:00011c70       $unwind$?common_lseek_do_seek_nolock@@YA_JQEAX_JHAEAV__crt_cached_ptd_host@@@Z 0000000140052c70     libucrtd:lseek.obj
 0002:00011c70       $unwind$_vsnprintf_s       0000000140052c70     libucrtd:dbgrptt.obj
 0002:00011c70       $unwind$??$?0AEBV?$string_output_adapter@D@__crt_stdio_output@@AEB_KAEBQEBDAEAV__crt_cached_ptd_host@@AEBQEAD@?$format_validation_base@DV?$string_output_adapter@D@__crt_stdio_output@@@__crt_stdio_output@@IEAA@AEBV?$string_output_adapter@D@1@AEB_KAEBQEBDAEAV__crt_cached_ptd_host@@AEBQEAD@Z 0000000140052c70     libucrtd:output.obj
 0002:00011c70       $unwind$??$?0AEBV?$string_output_adapter@D@__crt_stdio_output@@AEB_KAEBQEBDAEAV__crt_cached_ptd_host@@AEBQEAD@?$standard_base@DV?$string_output_adapter@D@__crt_stdio_output@@@__crt_stdio_output@@IEAA@AEBV?$string_output_adapter@D@1@AEB_KAEBQEBDAEAV__crt_cached_ptd_host@@AEBQEAD@Z 0000000140052c70     libucrtd:output.obj
 0002:00011c70       $unwind$??$?0AEBV?$string_output_adapter@_W@__crt_stdio_output@@AEB_KAEBQEB_WAEAV__crt_cached_ptd_host@@AEBQEAD@?$format_validation_base@_WV?$string_output_adapter@_W@__crt_stdio_output@@@__crt_stdio_output@@IEAA@AEBV?$string_output_adapter@_W@1@AEB_KAEBQEB_WAEAV__crt_cached_ptd_host@@AEBQEAD@Z 0000000140052c70     libucrtd:output.obj
 0002:00011c70       $unwind$??$?0AEBV?$string_output_adapter@_W@__crt_stdio_output@@AEB_KAEBQEB_WAEAV__crt_cached_ptd_host@@AEBQEAD@?$standard_base@_WV?$string_output_adapter@_W@__crt_stdio_output@@@__crt_stdio_output@@IEAA@AEBV?$string_output_adapter@_W@1@AEB_KAEBQEB_WAEAV__crt_cached_ptd_host@@AEBQEAD@Z 0000000140052c70     libucrtd:output.obj
 0002:00011c70       $unwind$??0?$output_processor@DV?$string_output_adapter@D@__crt_stdio_output@@V?$format_validation_base@DV?$string_output_adapter@D@__crt_stdio_output@@@2@@__crt_stdio_output@@QEAA@AEBV?$string_output_adapter@D@1@_KQEBDAEAV__crt_cached_ptd_host@@QEAD@Z 0000000140052c70     libucrtd:output.obj
 0002:00011c70       $unwind$??0?$output_processor@_WV?$string_output_adapter@_W@__crt_stdio_output@@V?$format_validation_base@_WV?$string_output_adapter@_W@__crt_stdio_output@@@2@@__crt_stdio_output@@QEAA@AEBV?$string_output_adapter@_W@1@_KQEB_WAEAV__crt_cached_ptd_host@@QEAD@Z 0000000140052c70     libucrtd:output.obj
 0002:00011c70       $unwind$??$__acrt_fenv_translate_bit@W4__acrt_fenv_abstract_control@@W4__acrt_fenv_machine_sse_control@@@@YA?AW4__acrt_fenv_abstract_control@@W4__acrt_fenv_machine_sse_control@@0W40@1@Z 0000000140052c70     libucrtd:_fenvutils.obj
 0002:00011c70       $unwind$??$__acrt_fenv_translate_bit@W4__acrt_fenv_machine_sse_control@@W4__acrt_fenv_abstract_control@@@@YA?AW4__acrt_fenv_machine_sse_control@@W4__acrt_fenv_abstract_control@@0W40@1@Z 0000000140052c70     libucrtd:_fenvutils.obj
 0002:00011c70       $unwind$__C_specific_handler_noexcept 0000000140052c70     libvcruntimed:chandler_noexcept.obj
 0002:00011c70       $unwind$?SetUnwindTryBlock@__FrameHandler3@@SAXPEA_KPEAU_xDISPATCHER_CONTEXT@@PEBU_s_FuncInfo@@H@Z 0000000140052c70     libvcruntimed:ehstate.obj
 0002:00011c70       $unwind$?_CallMemberFunction2@@YAXQEAX00H@Z 0000000140052c70     libvcruntimed:frame.obj
 0002:00011c78       $unwind$?FrameUnwindToState@__FrameHandler3@@SAXPEA_KPEAU_xDISPATCHER_CONTEXT@@PEBU_s_FuncInfo@@H@Z 0000000140052c78     libvcruntimed:frame.obj
 0002:00011ca8       $unwind$?CxxCallCatchBlock@__FrameHandler3@@SAPEAXPEAU_EXCEPTION_RECORD@@@Z 0000000140052ca8     libvcruntimed:frame.obj
 0002:00011cd8       $unwind$??Diterator@HandlerMap@__FrameHandler3@@QEAA?BU_s_HandlerType@@XZ 0000000140052cd8     libvcruntimed:frame.obj
 0002:00011cd8       $unwind$??Diterator@TryBlockMap@__FrameHandler3@@QEAA?BU_s_TryBlockMapEntry@@XZ 0000000140052cd8     libvcruntimed:frame.obj
 0002:00011ce0       $unwind$??0exception@std@@QEAA@QEBDH@Z 0000000140052ce0     libvcruntimed:frame.obj
 0002:00011ce8       $unwind$??0exception@std@@QEAA@AEBV01@@Z 0000000140052ce8     libvcruntimed:frame.obj
 0002:00011cf0       $unwind$?strrchr@@YAPEADQEADH@Z 0000000140052cf0     libucrtd:cvt.obj
 0002:00011cf0       $unwind$_isleadbyte_fast_internal 0000000140052cf0     libucrtd:isctype.obj
 0002:00011cf0       $unwind$__acrt_FlsSetValue 0000000140052cf0     libucrtd:winapi_thunks.obj
 0002:00011cf0       $unwind$?xcptlookup@@YAPEAU__crt_signal_action_t@@KQEAU1@@Z 0000000140052cf0     libucrtd:exception_filter.obj
 0002:00011cf0       $unwind$__acrt_isleadbyte_l_noupdate 0000000140052cf0     libucrtd:output.obj
 0002:00011cf0       $unwind$_isdigit_fast_internal 0000000140052cf0     libucrtd:output.obj
 0002:00011cf0       $unwind$??_Gtype_info@@UEAAPEAXI@Z 0000000140052cf0     LIBCMTD:std_type_info_static.obj
 0002:00011cf0       $unwind$??_Gbad_exception@std@@UEAAPEAXI@Z 0000000140052cf0     libvcruntimed:frame.obj
 0002:00011cf0       $unwind$??_Gexception@std@@UEAAPEAXI@Z 0000000140052cf0     libvcruntimed:frame.obj
 0002:00011cf8       $unwind$?_fclose_nolock_internal@@YAHQEAU_iobuf@@AEAV__crt_cached_ptd_host@@@Z 0000000140052cf8     libucrtd:fclose.obj
 0002:00011cf8       $unwind$__acrt_stdio_flush_nolock 0000000140052cf8     libucrtd:fflush.obj
 0002:00011cf8       $unwind$?type_case_c_tchar@?$output_processor@_WV?$string_output_adapter@_W@__crt_stdio_output@@V?$format_validation_base@_WV?$string_output_adapter@_W@__crt_stdio_output@@@2@@__crt_stdio_output@@AEAA_N_W@Z 0000000140052cf8     libucrtd:output.obj
 0002:00011cf8       $unwind$?IsInExceptionSpec@@YAEPEAUEHExceptionRecord@@PEBU_s_ESTypeList@@@Z 0000000140052cf8     libvcruntimed:frame.obj
 0002:00011cf8       $unwind$__std_exception_copy 0000000140052cf8     libvcruntimed:std_exception.obj
 0002:00011d00       $unwind$__acrt_allocate_buffer_for_argv 0000000140052d00     libucrtd:argv_parsing.obj
 0002:00011d00       $unwind$??$TypeMatchHelper@V__FrameHandler3@@@@YAHPEBU_s_HandlerType@@PEBU_s_CatchableType@@PEBU_s_ThrowInfo@@@Z 0000000140052d00     libvcruntimed:frame.obj
 0002:00011d08       $unwind$??$BuildCatchObjectHelperInternal@V__FrameHandler3@@@@YAHPEAUEHExceptionRecord@@PEAXPEBU_s_HandlerType@@PEBU_s_CatchableType@@@Z 0000000140052d08     libvcruntimed:frame.obj
 0002:00011d28       $unwind$??$BuildCatchObjectInternal@V__FrameHandler3@@@@YAXPEAUEHExceptionRecord@@PEAXPEBU_s_HandlerType@@PEBU_s_CatchableType@@@Z 0000000140052d28     libvcruntimed:frame.obj
 0002:00011d48       $unwind$??$FindHandler@V__FrameHandler3@@@@YAXPEAUEHExceptionRecord@@PEA_KPEAU_CONTEXT@@PEAU_xDISPATCHER_CONTEXT@@PEBU_s_FuncInfo@@EH1@Z 0000000140052d48     libvcruntimed:frame.obj
 0002:00011d5c       $unwind$??$common_vsprintf_s@D@@YAH_KQEAD0QEBDAEAV__crt_cached_ptd_host@@1@Z 0000000140052d5c     libucrtd:output.obj
 0002:00011d5c       $unwind$??$parse_integer@KV?$c_string_character_source@D@__crt_strtox@@$0A@@__crt_strtox@@YAKAEAV__crt_cached_ptd_host@@V?$c_string_character_source@D@0@H_N@Z 0000000140052d5c     libucrtd:output.obj
 0002:00011d5c       $unwind$__stdio_common_vsnprintf_s 0000000140052d5c     libucrtd:output.obj
 0002:00011d5c       $unwind$__stdio_common_vsnwprintf_s 0000000140052d5c     libucrtd:output.obj
 0002:00011d5c       $unwind$??$CatchIt@V__FrameHandler3@@@@YAXPEAUEHExceptionRecord@@PEA_KPEAU_CONTEXT@@PEAU_xDISPATCHER_CONTEXT@@PEBU_s_FuncInfo@@PEBU_s_HandlerType@@PEBU_s_CatchableType@@PEBU_s_TryBlockMapEntry@@H1EE@Z 0000000140052d5c     libvcruntimed:frame.obj
 0002:00011d64       $unwind$??$FindHandlerForForeignException@V__FrameHandler3@@@@YAXPEAUEHExceptionRecord@@PEA_KPEAU_CONTEXT@@PEAU_xDISPATCHER_CONTEXT@@PEBU_s_FuncInfo@@HH1@Z 0000000140052d64     libvcruntimed:frame.obj
 0002:00011d78       $xdatasym$memset_repstos   0000000140052d78     libvcruntimed:memset.obj
 0002:00011d88       $unwind$_CxxThrowException 0000000140052d88     libvcruntimed:throw.obj
 0002:00011d90       $unwind$_close_internal    0000000140052d90     libucrtd:close.obj
 0002:00011d90       $unwind$_seh_filter_exe    0000000140052d90     libucrtd:exception_filter.obj
 0002:00011d90       $unwind$strrchr            0000000140052d90     libvcruntimed:strrchr.obj
 0002:00011d98       $unwind$__acrt_report_runtime_error 0000000140052d98     libucrtd:report_runtime_error.obj
 0002:00011da0       $unwind$_invoke_watson_if_error 0000000140052da0     libucrtd:report_runtime_error.obj
 0002:00011da0       $unwind$__acrt_MessageWindowA 0000000140052da0     libucrtd:dbgrpt.obj
 0002:00011da0       $unwind$__acrt_MessageWindowW 0000000140052da0     libucrtd:dbgrpt.obj
 0002:00011da0       $unwind$??R<lambda_7c9dea7b4ca7285d2cdb541a38da6275>@@QEBA@IQEBDQEA_W_K@Z 0000000140052da0     libucrtd:argv_wildcards.obj
 0002:00011da0       $unwind$??$write_multiple_characters@V?$string_output_adapter@D@__crt_stdio_output@@D@__crt_stdio_output@@YAXAEBV?$string_output_adapter@D@0@DHQEAHAEAV__crt_cached_ptd_host@@@Z 0000000140052da0     libucrtd:output.obj
 0002:00011da0       $unwind$??$write_multiple_characters@V?$string_output_adapter@_W@__crt_stdio_output@@D@__crt_stdio_output@@YAXAEBV?$string_output_adapter@_W@0@DHQEAHAEAV__crt_cached_ptd_host@@@Z 0000000140052da0     libucrtd:output.obj
 0002:00011da8       $unwind$?write_string_to_console@@YAXQEB_W@Z 0000000140052da8     libucrtd:report_runtime_error.obj
 0002:00011db8       $unwind$__acrt_uninitialize_locks 0000000140052db8     libucrtd:locks.obj
 0002:00011db8       $unwind$??$get_win_policy@Uprocess_end_policy_properties@?1??__acrt_get_process_end_policy@@YA?AW4process_end_policy@@XZ@@@YA?AW4process_end_policy@@W4AppPolicyProcessTerminationMethod@@@Z 0000000140052db8     libucrtd:win_policies.obj
 0002:00011db8       $unwind$?close_os_handle_nolock@@YAKH@Z 0000000140052db8     libucrtd:close.obj
 0002:00011db8       $unwind$__acrt_uninitialize_lowio 0000000140052db8     libucrtd:ioinit.obj
 0002:00011db8       $unwind$_free_osfhnd       0000000140052db8     libucrtd:osfinfo.obj
 0002:00011db8       $unwind$__acrt_errno_map_os_error 0000000140052db8     libucrtd:errno.obj
 0002:00011db8       $unwind$?get_global_action_nolock@@YAPEAP6AXH@ZH@Z 0000000140052db8     libucrtd:signal.obj
 0002:00011db8       $unwind$?should_copy_another_character@@YA_ND@Z 0000000140052db8     libucrtd:argv_parsing.obj
 0002:00011db8       $unwind$?should_copy_another_character@@YA_NE@Z 0000000140052db8     libucrtd:argv_winmain.obj
 0002:00011db8       $unwind$??$translate_control_exception_mask@W4__acrt_fenv_machine_sse_control@@W4__acrt_fenv_abstract_control@@@@YA?AW4__acrt_fenv_machine_sse_control@@W4__acrt_fenv_abstract_control@@@Z 0000000140052db8     libucrtd:_fenvutils.obj
 0002:00011db8       $unwind$??$translate_control_rounding_control@W4__acrt_fenv_machine_sse_control@@W4__acrt_fenv_abstract_control@@@@YA?AW4__acrt_fenv_machine_sse_control@@W4__acrt_fenv_abstract_control@@@Z 0000000140052db8     libucrtd:_fenvutils.obj
 0002:00011db8       $unwind$??$translate_status@W4__acrt_fenv_abstract_status@@W4__acrt_fenv_machine_sse_status@@@@YA?AW4__acrt_fenv_abstract_status@@W4__acrt_fenv_machine_sse_status@@@Z 0000000140052db8     libucrtd:_fenvutils.obj
 0002:00011db8       $unwind$??$translate_status@W4__acrt_fenv_machine_sse_status@@W4__acrt_fenv_abstract_status@@@@YA?AW4__acrt_fenv_machine_sse_status@@W4__acrt_fenv_abstract_status@@@Z 0000000140052db8     libucrtd:_fenvutils.obj
 0002:00011db8       $unwind$?__acrt_fenv_shift_abstract_sse_control@@YA?AW4__acrt_fenv_abstract_control@@W41@@Z 0000000140052db8     libucrtd:_fenvutils.obj
 0002:00011db8       $unwind$?__acrt_fenv_unshift_abstract_sse_control@@YA?AW4__acrt_fenv_abstract_control@@W41@@Z 0000000140052db8     libucrtd:_fenvutils.obj
 0002:00011db8       $unwind$?set_machine_sse_status@@YAXW4__acrt_fenv_machine_sse_status@@@Z 0000000140052db8     libucrtd:_fenvutils.obj
 0002:00011db8       $unwind$?to_machine_sse_control@@YA?AW4__acrt_fenv_machine_sse_control@@W4__acrt_fenv_abstract_control@@@Z 0000000140052db8     libucrtd:_fenvutils.obj
 0002:00011db8       $unwind$?translate_control_denormal_control_to_sse@@YA?AW4__acrt_fenv_machine_sse_control@@W4__acrt_fenv_abstract_control@@@Z 0000000140052db8     libucrtd:_fenvutils.obj
 0002:00011db8       $unwind$_set_errno_from_matherr 0000000140052db8     libucrtd:fpexcept.obj
 0002:00011dc0       $unwind$??$common_configure_argv@D@@YAHW4_crt_argv_mode@@@Z 0000000140052dc0     libucrtd:argv_parsing.obj
 0002:00011dd0       $ip2state$??$common_configure_argv@D@@YAHW4_crt_argv_mode@@@Z 0000000140052dd0     libucrtd:argv_parsing.obj
 0002:00011dd8       $unwind$??$common_initialize_environment_nolock@D@@YAHXZ 0000000140052dd8     libucrtd:environment_initialization.obj
 0002:00011dd8       $unwind$?__acrt_get_utf8_acp_compatibility_codepage@@YAIXZ 0000000140052dd8     libucrtd:argv_wildcards.obj
 0002:00011de0       $unwind$??$uninitialize@A6AXAEAPEAPEAD@_E@?$dual_state_global@PEAPEAD@__crt_state_management@@QEAAXA6AXAEAPEAPEAD@_E@Z 0000000140052de0     libucrtd:environment_initialization.obj
 0002:00011df0       $ip2state$??$uninitialize@A6AXAEAPEAPEAD@_E@?$dual_state_global@PEAPEAD@__crt_state_management@@QEAAXA6AXAEAPEAPEAD@_E@Z 0000000140052df0     libucrtd:environment_initialization.obj
 0002:00011df8       $unwind$??$uninitialize@A6AXAEAPEAPEA_W@_E@?$dual_state_global@PEAPEA_W@__crt_state_management@@QEAAXA6AXAEAPEAPEA_W@_E@Z 0000000140052df8     libucrtd:environment_initialization.obj
 0002:00011e08       $ip2state$??$uninitialize@A6AXAEAPEAPEA_W@_E@?$dual_state_global@PEAPEA_W@__crt_state_management@@QEAAXA6AXAEAPEAPEA_W@_E@Z 0000000140052e08     libucrtd:environment_initialization.obj
 0002:00011e10       $unwind$??$create_environment@D@@YAQEAPEADQEAD@Z 0000000140052e10     libucrtd:environment_initialization.obj
 0002:00011e10       $unwind$??R<lambda_ab61a845afdef5b7c387490eaf3616ee>@@QEBA@XZ 0000000140052e10     libucrtd:fflush.obj
 0002:00011e18       $unwind$__acrt_execute_initializers 0000000140052e18     libucrtd:shared_initialization.obj
 0002:00011e18       $unwind$__acrt_execute_uninitializers 0000000140052e18     libucrtd:shared_initialization.obj
 0002:00011e18       $unwind$_initterm_e        0000000140052e18     libucrtd:initterm.obj
 0002:00011e18       $unwind$_register_onexit_function 0000000140052e18     libucrtd:onexit.obj
 0002:00011e18       $unwind$?unget@?$c_string_character_source@_W@__crt_strtox@@QEAAX_W@Z 0000000140052e18     libucrtd:output.obj
 0002:00011e18       $unwind$?validate@?$string_output_adapter@D@__crt_stdio_output@@QEBA_NAEAV__crt_cached_ptd_host@@@Z 0000000140052e18     libucrtd:output.obj
 0002:00011e18       $unwind$?validate@?$string_output_adapter@_W@__crt_stdio_output@@QEBA_NAEAV__crt_cached_ptd_host@@@Z 0000000140052e18     libucrtd:output.obj
 0002:00011e20       $unwind$?try_cor_exit_process@@YAXI@Z 0000000140052e20     libucrtd:exit.obj
 0002:00011e30       $ip2state$?try_cor_exit_process@@YAXI@Z 0000000140052e30     libucrtd:exit.obj
 0002:00011e38       $unwind$?common_exit@@YAXHW4_crt_exit_cleanup_mode@@W4_crt_exit_return_mode@@@Z 0000000140052e38     libucrtd:exit.obj
 0002:00011e48       $ip2state$?common_exit@@YAXHW4_crt_exit_cleanup_mode@@W4_crt_exit_return_mode@@@Z 0000000140052e48     libucrtd:exit.obj
 0002:00011e50       $unwind$??R<lambda_6e4b09c48022b2350581041d5f6b0c4c>@@QEBA@XZ 0000000140052e50     libucrtd:exit.obj
 0002:00011e70       $unwind$??$__acrt_lock_and_call@V<lambda_6e4b09c48022b2350581041d5f6b0c4c>@@@@YAXW4__acrt_lock_id@@$$QEAV<lambda_6e4b09c48022b2350581041d5f6b0c4c>@@@Z 0000000140052e70     libucrtd:exit.obj
 0002:00011e80       $ip2state$??$__acrt_lock_and_call@V<lambda_6e4b09c48022b2350581041d5f6b0c4c>@@@@YAXW4__acrt_lock_id@@$$QEAV<lambda_6e4b09c48022b2350581041d5f6b0c4c>@@@Z 0000000140052e80     libucrtd:exit.obj
 0002:00011e88       $unwind$??$?RV<lambda_d80eeec6fff315bfe5c115232f3240e3>@@AEAV<lambda_6e4b09c48022b2350581041d5f6b0c4c>@@V<lambda_2358e3775559c9db80273638284d5e45>@@@?$__crt_seh_guarded_call@X@@QEAAX$$QEAV<lambda_d80eeec6fff315bfe5c115232f3240e3>@@AEAV<lambda_6e4b09c48022b2350581041d5f6b0c4c>@@$$QEAV<lambda_2358e3775559c9db80273638284d5e45>@@@Z 0000000140052e88     libucrtd:exit.obj
 0002:00011ea8       $unwind$__acrt_uninitialize_locale 0000000140052ea8     libucrtd:wsetlocale.obj
 0002:00011ea8       $unwind$__acrt_get_sigabrt_handler 0000000140052ea8     libucrtd:signal.obj
 0002:00011eb0       $unwind$??R<lambda_3e16ef9562a7dcce91392c22ab16ea36>@@QEBA@XZ 0000000140052eb0     libucrtd:wsetlocale.obj
 0002:00011eb0       $unwind$fesetenv           0000000140052eb0     libucrtd:fesetenv.obj
 0002:00011eb8       $unwind$??$uninitialize@V<lambda_363eea9039da1e8169e2d060c7fe5cbc>@@@?$dual_state_global@PEAU__crt_locale_data@@@__crt_state_management@@QEAAX$$QEAV<lambda_363eea9039da1e8169e2d060c7fe5cbc>@@@Z 0000000140052eb8     libucrtd:wsetlocale.obj
 0002:00011ec8       $ip2state$??$uninitialize@V<lambda_363eea9039da1e8169e2d060c7fe5cbc>@@@?$dual_state_global@PEAU__crt_locale_data@@@__crt_state_management@@QEAAX$$QEAV<lambda_363eea9039da1e8169e2d060c7fe5cbc>@@@Z 0000000140052ec8     libucrtd:wsetlocale.obj
 0002:00011ed0       $unwind$??$__acrt_lock_and_call@V<lambda_3e16ef9562a7dcce91392c22ab16ea36>@@@@YAXW4__acrt_lock_id@@$$QEAV<lambda_3e16ef9562a7dcce91392c22ab16ea36>@@@Z 0000000140052ed0     libucrtd:wsetlocale.obj
 0002:00011ee0       $ip2state$??$__acrt_lock_and_call@V<lambda_3e16ef9562a7dcce91392c22ab16ea36>@@@@YAXW4__acrt_lock_id@@$$QEAV<lambda_3e16ef9562a7dcce91392c22ab16ea36>@@@Z 0000000140052ee0     libucrtd:wsetlocale.obj
 0002:00011ee8       $unwind$??$?RV<lambda_410d79af7f07d98d83a3f525b3859a53>@@AEAV<lambda_3e16ef9562a7dcce91392c22ab16ea36>@@V<lambda_38119f0e861e05405d8a144b9b982f0a>@@@?$__crt_seh_guarded_call@X@@QEAAX$$QEAV<lambda_410d79af7f07d98d83a3f525b3859a53>@@AEAV<lambda_3e16ef9562a7dcce91392c22ab16ea36>@@$$QEAV<lambda_38119f0e861e05405d8a144b9b982f0a>@@@Z 0000000140052ee8     libucrtd:wsetlocale.obj
 0002:00011f08       $unwind$??R<lambda_208ce30acdd7200aa596f2796f4d5154>@@QEBA@XZ 0000000140052f08     libucrtd:onexit.obj
 0002:00011f10       $unwind$??$__acrt_lock_and_call@V<lambda_208ce30acdd7200aa596f2796f4d5154>@@@@YAHW4__acrt_lock_id@@$$QEAV<lambda_208ce30acdd7200aa596f2796f4d5154>@@@Z 0000000140052f10     libucrtd:onexit.obj
 0002:00011f20       $ip2state$??$__acrt_lock_and_call@V<lambda_208ce30acdd7200aa596f2796f4d5154>@@@@YAHW4__acrt_lock_id@@$$QEAV<lambda_208ce30acdd7200aa596f2796f4d5154>@@@Z 0000000140052f20     libucrtd:onexit.obj
 0002:00011f28       $unwind$??R<lambda_d121dba8a4adeaf3a9819e48611155df>@@QEBA@XZ 0000000140052f28     libucrtd:onexit.obj
 0002:00011f38       $stateUnwindMap$??R<lambda_d121dba8a4adeaf3a9819e48611155df>@@QEBA@XZ 0000000140052f38     libucrtd:onexit.obj
 0002:00011f40       $ip2state$??R<lambda_d121dba8a4adeaf3a9819e48611155df>@@QEBA@XZ 0000000140052f40     libucrtd:onexit.obj
 0002:00011f58       $unwind$??$__acrt_lock_and_call@V<lambda_d121dba8a4adeaf3a9819e48611155df>@@@@YAHW4__acrt_lock_id@@$$QEAV<lambda_d121dba8a4adeaf3a9819e48611155df>@@@Z 0000000140052f58     libucrtd:onexit.obj
 0002:00011f68       $ip2state$??$__acrt_lock_and_call@V<lambda_d121dba8a4adeaf3a9819e48611155df>@@@@YAHW4__acrt_lock_id@@$$QEAV<lambda_d121dba8a4adeaf3a9819e48611155df>@@@Z 0000000140052f68     libucrtd:onexit.obj
 0002:00011f70       $unwind$??$?RV<lambda_80060f20ac3990516b753a27f211934c>@@AEAV<lambda_208ce30acdd7200aa596f2796f4d5154>@@V<lambda_fd91b99c0687e8936f1d70d7d9b78e69>@@@?$__crt_seh_guarded_call@H@@QEAAH$$QEAV<lambda_80060f20ac3990516b753a27f211934c>@@AEAV<lambda_208ce30acdd7200aa596f2796f4d5154>@@$$QEAV<lambda_fd91b99c0687e8936f1d70d7d9b78e69>@@@Z 0000000140052f70     libucrtd:onexit.obj
 0002:00011f90       $unwind$??$?RV<lambda_6a47f4c8fd0152770a780fc1d70204eb>@@AEAV<lambda_d121dba8a4adeaf3a9819e48611155df>@@V<lambda_6aaa2265f5b6a89667e7d7630012e97a>@@@?$__crt_seh_guarded_call@H@@QEAAH$$QEAV<lambda_6a47f4c8fd0152770a780fc1d70204eb>@@AEAV<lambda_d121dba8a4adeaf3a9819e48611155df>@@$$QEAV<lambda_6aaa2265f5b6a89667e7d7630012e97a>@@@Z 0000000140052f90     libucrtd:onexit.obj
 0002:00011fb0       $unwind$uninitialize_allocated_memory 0000000140052fb0     libucrtd:initialization.obj
 0002:00011fb8       $unwind$??$uninitialize@V<lambda_af27fe6ede5d83bbdbd622796c194e9c>@@@?$dual_state_global@PEAU__crt_multibyte_data@@@__crt_state_management@@QEAAX$$QEAV<lambda_af27fe6ede5d83bbdbd622796c194e9c>@@@Z 0000000140052fb8     libucrtd:initialization.obj
 0002:00011fc8       $ip2state$??$uninitialize@V<lambda_af27fe6ede5d83bbdbd622796c194e9c>@@@?$dual_state_global@PEAU__crt_multibyte_data@@@__crt_state_management@@QEAAX$$QEAV<lambda_af27fe6ede5d83bbdbd622796c194e9c>@@@Z 0000000140052fc8     libucrtd:initialization.obj
 0002:00011fd0       $unwind$terminate          0000000140052fd0     libucrtd:terminate.obj
 0002:00011ff0       $unwind$_CrtCheckMemory    0000000140052ff0     libucrtd:debug_heap.obj
 0002:00012010       $unwind$?fin$0@?0??validate_heap_if_required_nolock@@YAXXZ@4HA 0000000140053010     libucrtd:debug_heap.obj
 0002:00012010       $unwind$_CrtCheckMemory$fin$0 0000000140053010     libucrtd:debug_heap.obj
 0002:00012010       $unwind$_CrtMemDumpAllObjectsSince$fin$0 0000000140053010     libucrtd:debug_heap.obj
 0002:00012010       $unwind$_CrtSetDbgFlag$fin$0 0000000140053010     libucrtd:debug_heap.obj
 0002:00012010       $unwind$_msize_dbg$fin$0   0000000140053010     libucrtd:debug_heap.obj
 0002:00012010       $unwind$_realloc_dbg$fin$0 0000000140053010     libucrtd:debug_heap.obj
 0002:00012010       $unwind$__acrt_lowio_ensure_fh_exists$fin$0 0000000140053010     libucrtd:osfinfo.obj
 0002:00012010       $unwind$_write_internal$fin$0 0000000140053010     libucrtd:write.obj
 0002:00012010       $unwind$raise$fin$0        0000000140053010     libucrtd:signal.obj
 0002:00012010       $unwind$?fin$0@?0??_fclose_internal@@YAHQEAU_iobuf@@AEAV__crt_cached_ptd_host@@@Z@4HA 0000000140053010     libucrtd:fclose.obj
 0002:00012010       $unwind$common_control87$filt$0 0000000140053010     libucrtd:ieee.obj
 0002:00012018       $unwind$_CrtDumpMemoryLeaks 0000000140053018     libucrtd:debug_heap.obj
 0002:00012028       $unwind$?add_carry@__crt_strtox@@YAIAEAIII@Z 0000000140053028     libucrtd:cfout.obj
 0002:00012028       $unwind$?multiply_core@__crt_strtox@@YAIQEAIII@Z 0000000140053028     libucrtd:cfout.obj
 0002:00012028       $unwind$?check_bytes@@YA_NQEBEE_K@Z 0000000140053028     libucrtd:debug_heap.obj
 0002:00012028       $unwind$_CrtIsValidPointer 0000000140053028     libucrtd:debug_heap.obj
 0002:00012028       $unwind$??$is_wide_character_specifier@D@__crt_stdio_output@@YA_N_KDW4length_modifier@0@@Z 0000000140053028     libucrtd:output.obj
 0002:00012030       $unwind$_CrtMemCheckpoint  0000000140053030     libucrtd:debug_heap.obj
 0002:00012050       $unwind$_CrtMemDumpAllObjectsSince 0000000140053050     libucrtd:debug_heap.obj
 0002:00012070       $unwind$_CrtSetDbgFlag     0000000140053070     libucrtd:debug_heap.obj
 0002:00012090       $unwind$_free_dbg          0000000140053090     libucrtd:debug_heap.obj
 0002:000120b0       $unwind$_malloc_dbg        00000001400530b0     libucrtd:debug_heap.obj
 0002:000120b0       $unwind$_lseeki64_nolock_internal 00000001400530b0     libucrtd:lseek.obj
 0002:000120b8       $unwind$_msize_dbg         00000001400530b8     libucrtd:debug_heap.obj
 0002:000120d8       $unwind$_realloc_dbg       00000001400530d8     libucrtd:debug_heap.obj
 0002:000120f8       $unwind$_chvalidchk_l      00000001400530f8     libucrtd:debug_heap.obj
 0002:000120f8       $unwind$_ischartype_l      00000001400530f8     libucrtd:debug_heap.obj
 0002:000120f8       $unwind$??$__acrt_fenv_shift_bits@W4__acrt_fenv_abstract_control@@@@YA?AW4__acrt_fenv_abstract_control@@W40@0I@Z 00000001400530f8     libucrtd:_fenvutils.obj
 0002:000120f8       $unwind$??$__acrt_fenv_shift_bits@W4__acrt_fenv_abstract_status@@@@YA?AW4__acrt_fenv_abstract_status@@W40@0I@Z 00000001400530f8     libucrtd:_fenvutils.obj
 0002:000120f8       $unwind$??$__acrt_fenv_unshift_bits@W4__acrt_fenv_abstract_control@@@@YA?AW4__acrt_fenv_abstract_control@@W40@0I@Z 00000001400530f8     libucrtd:_fenvutils.obj
 0002:000120f8       $unwind$??$__acrt_fenv_unshift_bits@W4__acrt_fenv_abstract_status@@@@YA?AW4__acrt_fenv_abstract_status@@W40@0I@Z 00000001400530f8     libucrtd:_fenvutils.obj
 0002:00012100       $unwind$_invoke_watson_if_oneof 0000000140053100     libucrtd:debug_heap.obj
 0002:00012100       $unwind$??$__acrt_fenv_translate_bit@W4__acrt_fenv_abstract_status@@W4__acrt_fenv_machine_sse_status@@@@YA?AW4__acrt_fenv_abstract_status@@W4__acrt_fenv_machine_sse_status@@0W40@1@Z 0000000140053100     libucrtd:_fenvutils.obj
 0002:00012100       $unwind$??$__acrt_fenv_translate_bit@W4__acrt_fenv_machine_sse_status@@W4__acrt_fenv_abstract_status@@@@YA?AW4__acrt_fenv_machine_sse_status@@W4__acrt_fenv_abstract_status@@0W40@1@Z 0000000140053100     libucrtd:_fenvutils.obj
 0002:00012108       $unwind$??0_LocaleUpdate@@QEAA@QEAU__crt_locale_pointers@@@Z 0000000140053108     libucrtd:debug_heap.obj
 0002:00012108       $unwind$??0__crt_cached_ptd_host@@QEAA@QEAU__crt_locale_pointers@@@Z 0000000140053108     libucrtd:invalid_parameter.obj
 0002:00012114       $unwind$?bit_scan_reverse@__crt_strtox@@YAII@Z 0000000140053114     libucrtd:cfout.obj
 0002:00012114       $unwind$?count_sequential_high_zeroes@__crt_strtox@@YAII@Z 0000000140053114     libucrtd:cfout.obj
 0002:00012114       $unwind$?is_block_type_valid@@YA_NH@Z 0000000140053114     libucrtd:debug_heap.obj
 0002:00012114       $unwind$?appmodel_policy_to_policy_type@windowing_model_policy_properties@?1??__acrt_get_windowing_model_policy@@YA?AW4windowing_model_policy@@XZ@SA?AW43@J@Z 0000000140053114     libucrtd:win_policies.obj
 0002:00012114       $unwind$?get_std_handle_id@@YAKH@Z 0000000140053114     libucrtd:ioinit.obj
 0002:00012114       $unwind$?CPtoLocaleName@@YAPEB_WH@Z 0000000140053114     libucrtd:mbctype.obj
 0002:00012114       $unwind$__acrt_errno_from_os_error 0000000140053114     libucrtd:errno.obj
 0002:00012114       $unwind$?is_stream_allocated@@YA_NJ@Z 0000000140053114     libucrtd:fflush.obj
 0002:00012114       $unwind$?to_integer_size@__crt_stdio_output@@YA_KW4length_modifier@1@@Z 0000000140053114     libucrtd:output.obj
 0002:00012114       $unwind$__ascii_iswalpha   0000000140053114     libucrtd:output.obj
 0002:00012114       $unwind$_abstract_cw       0000000140053114     libucrtd:ieee.obj
 0002:00012114       $unwind$_abstract_sw       0000000140053114     libucrtd:ieee.obj
 0002:00012114       $unwind$_hw_cw             0000000140053114     libucrtd:ieee.obj
 0002:0001211c       $unwind$?is_bad_read_pointer@@YA_NQEBX_K@Z 000000014005311c     libucrtd:debug_heap.obj
 0002:0001213c       $unwind$?validate_heap_if_required_nolock@@YAXXZ 000000014005313c     libucrtd:debug_heap.obj
 0002:0001215c       $unwind$?heap_alloc_dbg_internal@@YAPEAX_KHQEBDH@Z 000000014005315c     libucrtd:debug_heap.obj
 0002:0001217c       $unwind$_itoa_s            000000014005317c     libucrtd:xtoa.obj
 0002:0001217c       $unwind$_itow_s            000000014005317c     libucrtd:xtoa.obj
 0002:0001217c       $unwind$?heap_alloc_dbg@@YAPEAX_KHQEBDH@Z 000000014005317c     libucrtd:debug_heap.obj
 0002:0001217c       $unwind$??R<lambda_f788ae46380686e8b737efdd8c720d07>@@QEBA@IQEB_WQEAD_K@Z 000000014005317c     libucrtd:getmodulefilenamea.obj
 0002:0001217c       $unwind$??R<lambda_d8593a27d1aa8c02be35c86a17d324c4>@@QEBA@IQEB_WQEAD_K@Z 000000014005317c     libucrtd:argv_wildcards.obj
 0002:00012184       $unwind$?realloc_dbg_nolock@@YAPEAXQEAXQEA_KHQEBDH_N@Z 0000000140053184     libucrtd:debug_heap.obj
 0002:00012198       $ip2state$?realloc_dbg_nolock@@YAPEAXQEAXQEA_KHQEBDH_N@Z 0000000140053198     libucrtd:debug_heap.obj
 0002:000121a0       $unwind$?free_dbg_nolock@@YAXQEAXH@Z 00000001400531a0     libucrtd:debug_heap.obj
 0002:000121b0       $ip2state$?free_dbg_nolock@@YAXQEAXH@Z 00000001400531b0     libucrtd:debug_heap.obj
 0002:000121b8       $unwind$?check_block@@YA_NQEAU_CrtMemBlockHeader@@@Z 00000001400531b8     libucrtd:debug_heap.obj
 0002:000121c0       $unwind$?print_block_data@@YAXQEAU__crt_locale_pointers@@QEAU_CrtMemBlockHeader@@@Z 00000001400531c0     libucrtd:debug_heap.obj
 0002:000121d0       $unwind$?dump_all_object_since_nolock@@YAXQEBU_CrtMemState@@@Z 00000001400531d0     libucrtd:debug_heap.obj
 0002:000121e0       $ip2state$?dump_all_object_since_nolock@@YAXQEBU_CrtMemState@@@Z 00000001400531e0     libucrtd:debug_heap.obj
 0002:000121e8       $unwind$??$common_tcscpy_s@D@@YAHQEAD_KQEBD@Z 00000001400531e8     libucrtd:strcpy_s.obj
 0002:000121e8       $unwind$??$common_tcscpy_s@_W@@YAHQEA_W_KQEB_W@Z 00000001400531e8     libucrtd:wcscpy_s.obj
 0002:000121f0       $xdatasym                  00000001400531f0     libucrtd:strcmp.obj
 0002:000121f8       $xdatasym                  00000001400531f8     libucrtd:strlen.obj
 0002:000121fc       $unwind$__acrt_call_reportfault 00000001400531fc     libucrtd:invalid_parameter.obj
 0002:00012210       $unwind$??$__acrt_convert_wcs_mbs_cp@_WDV<lambda_f788ae46380686e8b737efdd8c720d07>@@U__crt_win32_buffer_no_resizing@@@@YAHQEB_WAEAV?$__crt_win32_buffer@DU__crt_win32_buffer_no_resizing@@@@AEBV<lambda_f788ae46380686e8b737efdd8c720d07>@@I@Z 0000000140053210     libucrtd:getmodulefilenamea.obj
 0002:00012210       $unwind$_invalid_parameter_internal 0000000140053210     libucrtd:invalid_parameter.obj
 0002:00012210       $unwind$??$__acrt_convert_wcs_mbs_cp@D_WV<lambda_7c9dea7b4ca7285d2cdb541a38da6275>@@U__crt_win32_buffer_internal_dynamic_resizing@@@@YAHQEBDAEAV?$__crt_win32_buffer@_WU__crt_win32_buffer_internal_dynamic_resizing@@@@AEBV<lambda_7c9dea7b4ca7285d2cdb541a38da6275>@@I@Z 0000000140053210     libucrtd:argv_wildcards.obj
 0002:00012210       $unwind$??$__acrt_convert_wcs_mbs_cp@_WDV<lambda_d8593a27d1aa8c02be35c86a17d324c4>@@U__crt_win32_buffer_internal_dynamic_resizing@@@@YAHQEB_WAEAV?$__crt_win32_buffer@DU__crt_win32_buffer_internal_dynamic_resizing@@@@AEBV<lambda_d8593a27d1aa8c02be35c86a17d324c4>@@I@Z 0000000140053210     libucrtd:argv_wildcards.obj
 0002:00012218       $unwind$?fp_format_e@@YAHQEBNQEAD_K12H_NIW4__acrt_rounding_mode@@AEAV__crt_cached_ptd_host@@@Z 0000000140053218     libucrtd:cvt.obj
 0002:00012218       $unwind$?fp_format_e_internal@@YAHQEAD_KH_NIQEAU_strflt@@2AEAV__crt_cached_ptd_host@@@Z 0000000140053218     libucrtd:cvt.obj
 0002:00012218       $unwind$mbstowcs_s         0000000140053218     libucrtd:mbstowcs.obj
 0002:00012218       $unwind$wcstombs_s         0000000140053218     libucrtd:wcstombs.obj
 0002:00012218       $unwind$__acrt_LCMapStringA 0000000140053218     libucrtd:lcmapstringa.obj
 0002:00012218       $unwind$__stdio_common_vsprintf_s 0000000140053218     libucrtd:output.obj
 0002:00012220       $unwind$??$common_vsnprintf_s@D@@YAH_KQEAD00QEBDAEAV__crt_cached_ptd_host@@1@Z 0000000140053220     libucrtd:output.obj
 0002:00012220       $unwind$??$common_vsnprintf_s@_W@@YAH_KQEA_W00QEB_WAEAV__crt_cached_ptd_host@@QEAD@Z 0000000140053220     libucrtd:output.obj
 0002:00012228       $unwind$??0?$output_adapter_data@DV?$string_output_adapter@D@__crt_stdio_output@@@__crt_stdio_output@@IEAA@AEBV?$string_output_adapter@D@1@_KQEBDAEAV__crt_cached_ptd_host@@QEAD@Z 0000000140053228     libucrtd:output.obj
 0002:00012238       $ip2state$??0?$output_adapter_data@DV?$string_output_adapter@D@__crt_stdio_output@@@__crt_stdio_output@@IEAA@AEBV?$string_output_adapter@D@1@_KQEBDAEAV__crt_cached_ptd_host@@QEAD@Z 0000000140053238     libucrtd:output.obj
 0002:00012240       $unwind$??0?$output_adapter_data@_WV?$string_output_adapter@_W@__crt_stdio_output@@@__crt_stdio_output@@IEAA@AEBV?$string_output_adapter@_W@1@_KQEB_WAEAV__crt_cached_ptd_host@@QEAD@Z 0000000140053240     libucrtd:output.obj
 0002:00012250       $ip2state$??0?$output_adapter_data@_WV?$string_output_adapter@_W@__crt_stdio_output@@@__crt_stdio_output@@IEAA@AEBV?$string_output_adapter@_W@1@_KQEB_WAEAV__crt_cached_ptd_host@@QEAD@Z 0000000140053250     libucrtd:output.obj
 0002:00012258       $unwind$??$common_vsprintf@Vformat_validation_base@__crt_stdio_output@@D@@YAH_KQEAD0QEBDAEAV__crt_cached_ptd_host@@1@Z 0000000140053258     libucrtd:output.obj
 0002:00012258       $unwind$??$common_vsprintf@Vformat_validation_base@__crt_stdio_output@@_W@@YAH_KQEA_W0QEB_WAEAV__crt_cached_ptd_host@@QEAD@Z 0000000140053258     libucrtd:output.obj
 0002:0001226c       $unwind$??$is_wide_character_specifier@_W@__crt_stdio_output@@YA_N_K_WW4length_modifier@0@@Z 000000014005326c     libucrtd:output.obj
 0002:0001226c       $unwind$?swap@@YAXPEAD0_K@Z 000000014005326c     libucrtd:qsort.obj
 0002:00012274       $unwind$?expand_if_necessary@?$argument_list@D@?A0x5f5c8891@@AEAAHXZ 0000000140053274     libucrtd:argv_wildcards.obj
 0002:00012274       $unwind$?process@?$output_processor@DV?$string_output_adapter@D@__crt_stdio_output@@V?$format_validation_base@DV?$string_output_adapter@D@__crt_stdio_output@@@2@@__crt_stdio_output@@QEAAHXZ 0000000140053274     libucrtd:output.obj
 0002:00012274       $unwind$?process@?$output_processor@_WV?$string_output_adapter@_W@__crt_stdio_output@@V?$format_validation_base@_WV?$string_output_adapter@_W@__crt_stdio_output@@@2@@__crt_stdio_output@@QEAAHXZ 0000000140053274     libucrtd:output.obj
 0002:00012274       $unwind$?state_case_size@?$output_processor@DV?$string_output_adapter@D@__crt_stdio_output@@V?$format_validation_base@DV?$string_output_adapter@D@__crt_stdio_output@@@2@@__crt_stdio_output@@AEAA_NXZ 0000000140053274     libucrtd:output.obj
 0002:00012274       $unwind$?state_case_size@?$output_processor@_WV?$string_output_adapter@_W@__crt_stdio_output@@V?$format_validation_base@_WV?$string_output_adapter@_W@__crt_stdio_output@@@2@@__crt_stdio_output@@AEAA_NXZ 0000000140053274     libucrtd:output.obj
 0002:00012274       $unwind$?type_case_n@?$output_processor@DV?$string_output_adapter@D@__crt_stdio_output@@V?$format_validation_base@DV?$string_output_adapter@D@__crt_stdio_output@@@2@@__crt_stdio_output@@AEAA_NXZ 0000000140053274     libucrtd:output.obj
 0002:00012274       $unwind$?type_case_n@?$output_processor@_WV?$string_output_adapter@_W@__crt_stdio_output@@V?$format_validation_base@_WV?$string_output_adapter@_W@__crt_stdio_output@@@2@@__crt_stdio_output@@AEAA_NXZ 0000000140053274     libucrtd:output.obj
 0002:0001227c       $unwind$?state_case_normal_tchar@?$output_processor@DV?$string_output_adapter@D@__crt_stdio_output@@V?$format_validation_base@DV?$string_output_adapter@D@__crt_stdio_output@@@2@@__crt_stdio_output@@AEAA_ND@Z 000000014005327c     libucrtd:output.obj
 0002:0001227c       $unwind$?type_case_c_tchar@?$output_processor@DV?$string_output_adapter@D@__crt_stdio_output@@V?$format_validation_base@DV?$string_output_adapter@D@__crt_stdio_output@@@2@@__crt_stdio_output@@AEAA_ND@Z 000000014005327c     libucrtd:output.obj
 0002:00012284       $unwind$_expand_base       0000000140053284     libucrtd:expand.obj
 0002:00012284       $unwind$?parse_int_from_format_string@?$output_processor@DV?$string_output_adapter@D@__crt_stdio_output@@V?$format_validation_base@DV?$string_output_adapter@D@__crt_stdio_output@@@2@@__crt_stdio_output@@AEAA_NQEAH@Z 0000000140053284     libucrtd:output.obj
 0002:00012284       $unwind$?parse_int_from_format_string@?$output_processor@_WV?$string_output_adapter@_W@__crt_stdio_output@@V?$format_validation_base@_WV?$string_output_adapter@_W@__crt_stdio_output@@@2@@__crt_stdio_output@@AEAA_NQEAH@Z 0000000140053284     libucrtd:output.obj
 0002:00012284       $unwind$?write_stored_string_tchar@?$output_processor@_WV?$string_output_adapter@_W@__crt_stdio_output@@V?$format_validation_base@_WV?$string_output_adapter@_W@__crt_stdio_output@@@2@@__crt_stdio_output@@AEAA_N_W@Z 0000000140053284     libucrtd:output.obj
 0002:0001228c       $unwind$?state_case_type@?$output_processor@DV?$string_output_adapter@D@__crt_stdio_output@@V?$format_validation_base@DV?$string_output_adapter@D@__crt_stdio_output@@@2@@__crt_stdio_output@@AEAA_NXZ 000000014005328c     libucrtd:output.obj
 0002:00012294       $unwind$?type_case_s_compute_narrow_string_length@?$output_processor@DV?$string_output_adapter@D@__crt_stdio_output@@V?$format_validation_base@DV?$string_output_adapter@D@__crt_stdio_output@@@2@@__crt_stdio_output@@AEAAHHD@Z 0000000140053294     libucrtd:output.obj
 0002:0001229c       $unwind$?type_case_a@?$output_processor@DV?$string_output_adapter@D@__crt_stdio_output@@V?$format_validation_base@DV?$string_output_adapter@D@__crt_stdio_output@@@2@@__crt_stdio_output@@AEAA_NXZ 000000014005329c     libucrtd:output.obj
 0002:0001229c       $unwind$?type_case_a@?$output_processor@_WV?$string_output_adapter@_W@__crt_stdio_output@@V?$format_validation_base@_WV?$string_output_adapter@_W@__crt_stdio_output@@@2@@__crt_stdio_output@@AEAA_NXZ 000000014005329c     libucrtd:output.obj
 0002:000122a8       $unwind$?write_stored_string_tchar@?$output_processor@DV?$string_output_adapter@D@__crt_stdio_output@@V?$format_validation_base@DV?$string_output_adapter@D@__crt_stdio_output@@@2@@__crt_stdio_output@@AEAA_ND@Z 00000001400532a8     libucrtd:output.obj
 0002:000122b8       $unwind$?find_next_state@?$output_processor@DV?$string_output_adapter@D@__crt_stdio_output@@V?$format_validation_base@DV?$string_output_adapter@D@__crt_stdio_output@@@2@@__crt_stdio_output@@AEBA?AW4state@2@DW432@@Z 00000001400532b8     libucrtd:output.obj
 0002:000122c8       $ip2state$?find_next_state@?$output_processor@DV?$string_output_adapter@D@__crt_stdio_output@@V?$format_validation_base@DV?$string_output_adapter@D@__crt_stdio_output@@@2@@__crt_stdio_output@@AEBA?AW4state@2@DW432@@Z 00000001400532c8     libucrtd:output.obj
 0002:000122d0       $unwind$?filter_mbtowcs_flags@@YAKIK@Z 00000001400532d0     libucrtd:multibytetowidechar.obj
 0002:000122d0       $unwind$?filter_wcstomb_flags@@YAKIK@Z 00000001400532d0     libucrtd:widechartomultibyte.obj
 0002:000122d0       $unwind$?adjust_hexit@?$output_processor@DV?$string_output_adapter@D@__crt_stdio_output@@V?$format_validation_base@DV?$string_output_adapter@D@__crt_stdio_output@@@2@@__crt_stdio_output@@CADH_N@Z 00000001400532d0     libucrtd:output.obj
 0002:000122d0       $unwind$?adjust_hexit@?$output_processor@_WV?$string_output_adapter@_W@__crt_stdio_output@@V?$format_validation_base@_WV?$string_output_adapter@_W@__crt_stdio_output@@@2@@__crt_stdio_output@@CADH_N@Z 00000001400532d0     libucrtd:output.obj
 0002:000122d8       $unwind$?state_case_type@?$output_processor@_WV?$string_output_adapter@_W@__crt_stdio_output@@V?$format_validation_base@_WV?$string_output_adapter@_W@__crt_stdio_output@@@2@@__crt_stdio_output@@AEAA_NXZ 00000001400532d8     libucrtd:output.obj
 0002:000122e8       $unwind$?find_next_state@?$output_processor@_WV?$string_output_adapter@_W@__crt_stdio_output@@V?$format_validation_base@_WV?$string_output_adapter@_W@__crt_stdio_output@@@2@@__crt_stdio_output@@AEBA?AW4state@2@_WW432@@Z 00000001400532e8     libucrtd:output.obj
 0002:000122f8       $ip2state$?find_next_state@?$output_processor@_WV?$string_output_adapter@_W@__crt_stdio_output@@V?$format_validation_base@_WV?$string_output_adapter@_W@__crt_stdio_output@@@2@@__crt_stdio_output@@AEBA?AW4state@2@_WW432@@Z 00000001400532f8     libucrtd:output.obj
 0002:00012300       $unwind$??$type_case_integer@$07@?$output_processor@DV?$string_output_adapter@D@__crt_stdio_output@@V?$format_validation_base@DV?$string_output_adapter@D@__crt_stdio_output@@@2@@__crt_stdio_output@@AEAA_N_N@Z 0000000140053300     libucrtd:output.obj
 0002:00012300       $unwind$??$type_case_integer@$07@?$output_processor@_WV?$string_output_adapter@_W@__crt_stdio_output@@V?$format_validation_base@_WV?$string_output_adapter@_W@__crt_stdio_output@@@2@@__crt_stdio_output@@AEAA_N_N@Z 0000000140053300     libucrtd:output.obj
 0002:00012300       $unwind$??$type_case_integer@$09@?$output_processor@DV?$string_output_adapter@D@__crt_stdio_output@@V?$format_validation_base@DV?$string_output_adapter@D@__crt_stdio_output@@@2@@__crt_stdio_output@@AEAA_N_N@Z 0000000140053300     libucrtd:output.obj
 0002:00012300       $unwind$??$type_case_integer@$09@?$output_processor@_WV?$string_output_adapter@_W@__crt_stdio_output@@V?$format_validation_base@_WV?$string_output_adapter@_W@__crt_stdio_output@@@2@@__crt_stdio_output@@AEAA_N_N@Z 0000000140053300     libucrtd:output.obj
 0002:00012300       $unwind$??$type_case_integer@$0BA@@?$output_processor@DV?$string_output_adapter@D@__crt_stdio_output@@V?$format_validation_base@DV?$string_output_adapter@D@__crt_stdio_output@@@2@@__crt_stdio_output@@AEAA_N_N@Z 0000000140053300     libucrtd:output.obj
 0002:00012300       $unwind$??$type_case_integer@$0BA@@?$output_processor@_WV?$string_output_adapter@_W@__crt_stdio_output@@V?$format_validation_base@_WV?$string_output_adapter@_W@__crt_stdio_output@@@2@@__crt_stdio_output@@AEAA_N_N@Z 0000000140053300     libucrtd:output.obj
 0002:00012308       $unwind$??$common_message_window@D@@YAHHQEAXQEBD111@Z 0000000140053308     libucrtd:dbgrpt.obj
 0002:0001231c       $unwind$??$common_message_window@_W@@YAHHQEAXQEB_W111@Z 000000014005331c     libucrtd:dbgrpt.obj
 0002:00012330       $xdatasym                  0000000140053330     libucrtd:strncmp.obj
 0002:00012334       $unwind$?construct_ptd@@YAXQEAU__acrt_ptd@@QEAPEAU__crt_locale_data@@@Z 0000000140053334     libucrtd:per_thread_data.obj
 0002:00012348       $ip2state$?construct_ptd@@YAXQEAU__acrt_ptd@@QEAPEAU__crt_locale_data@@@Z 0000000140053348     libucrtd:per_thread_data.obj
 0002:00012350       $unwind$??$__acrt_lock_and_call@V<lambda_8d0ee55de4b1038c4002e0adecdf1839>@@@@YAXW4__acrt_lock_id@@$$QEAV<lambda_8d0ee55de4b1038c4002e0adecdf1839>@@@Z 0000000140053350     libucrtd:per_thread_data.obj
 0002:00012360       $ip2state$??$__acrt_lock_and_call@V<lambda_8d0ee55de4b1038c4002e0adecdf1839>@@@@YAXW4__acrt_lock_id@@$$QEAV<lambda_8d0ee55de4b1038c4002e0adecdf1839>@@@Z 0000000140053360     libucrtd:per_thread_data.obj
 0002:00012368       $unwind$??$__acrt_lock_and_call@V<lambda_92619d2358a28f41a33ba319515a20b9>@@@@YAXW4__acrt_lock_id@@$$QEAV<lambda_92619d2358a28f41a33ba319515a20b9>@@@Z 0000000140053368     libucrtd:per_thread_data.obj
 0002:00012378       $ip2state$??$__acrt_lock_and_call@V<lambda_92619d2358a28f41a33ba319515a20b9>@@@@YAXW4__acrt_lock_id@@$$QEAV<lambda_92619d2358a28f41a33ba319515a20b9>@@@Z 0000000140053378     libucrtd:per_thread_data.obj
 0002:00012380       $unwind$?destroy_ptd@@YAXQEAU__acrt_ptd@@@Z 0000000140053380     libucrtd:per_thread_data.obj
 0002:00012390       $ip2state$?destroy_ptd@@YAXQEAU__acrt_ptd@@@Z 0000000140053390     libucrtd:per_thread_data.obj
 0002:00012398       $unwind$??$__acrt_lock_and_call@V<lambda_e157831efee4ea0afb0a2ace5dd5fd0d>@@@@YAXW4__acrt_lock_id@@$$QEAV<lambda_e157831efee4ea0afb0a2ace5dd5fd0d>@@@Z 0000000140053398     libucrtd:per_thread_data.obj
 0002:000123a8       $ip2state$??$__acrt_lock_and_call@V<lambda_e157831efee4ea0afb0a2ace5dd5fd0d>@@@@YAXW4__acrt_lock_id@@$$QEAV<lambda_e157831efee4ea0afb0a2ace5dd5fd0d>@@@Z 00000001400533a8     libucrtd:per_thread_data.obj
 0002:000123b0       $unwind$??$__acrt_lock_and_call@V<lambda_8f455de75cd7d7f24b4096f044d8b9e6>@@@@YAXW4__acrt_lock_id@@$$QEAV<lambda_8f455de75cd7d7f24b4096f044d8b9e6>@@@Z 00000001400533b0     libucrtd:per_thread_data.obj
 0002:000123c0       $ip2state$??$__acrt_lock_and_call@V<lambda_8f455de75cd7d7f24b4096f044d8b9e6>@@@@YAXW4__acrt_lock_id@@$$QEAV<lambda_8f455de75cd7d7f24b4096f044d8b9e6>@@@Z 00000001400533c0     libucrtd:per_thread_data.obj
 0002:000123c8       $unwind$?internal_get_ptd_head@@YAPEAU__acrt_ptd@@XZ 00000001400533c8     libucrtd:per_thread_data.obj
 0002:000123c8       $unwind$__acrt_lowio_create_handle_array 00000001400533c8     libucrtd:osfinfo.obj
 0002:000123d0       $unwind$??$?RV<lambda_0ae27a3a962d80f24befdcbee591983d>@@AEAV<lambda_8d0ee55de4b1038c4002e0adecdf1839>@@V<lambda_dc504788e8f1664fe9b84e20bfb512f2>@@@?$__crt_seh_guarded_call@X@@QEAAX$$QEAV<lambda_0ae27a3a962d80f24befdcbee591983d>@@AEAV<lambda_8d0ee55de4b1038c4002e0adecdf1839>@@$$QEAV<lambda_dc504788e8f1664fe9b84e20bfb512f2>@@@Z 00000001400533d0     libucrtd:per_thread_data.obj
 0002:000123f0       $unwind$??$?RV<lambda_aa87e3671a710a21b5dc78c0bdf72e11>@@AEAV<lambda_92619d2358a28f41a33ba319515a20b9>@@V<lambda_6992ecaafeb10aed2b74cb1fae11a551>@@@?$__crt_seh_guarded_call@X@@QEAAX$$QEAV<lambda_aa87e3671a710a21b5dc78c0bdf72e11>@@AEAV<lambda_92619d2358a28f41a33ba319515a20b9>@@$$QEAV<lambda_6992ecaafeb10aed2b74cb1fae11a551>@@@Z 00000001400533f0     libucrtd:per_thread_data.obj
 0002:00012410       $unwind$??$?RV<lambda_74a0ef281e44d15e1136f792f539efb3>@@AEAV<lambda_e157831efee4ea0afb0a2ace5dd5fd0d>@@V<lambda_04ddeca75b7c13fd67716e8dfcef87ee>@@@?$__crt_seh_guarded_call@X@@QEAAX$$QEAV<lambda_74a0ef281e44d15e1136f792f539efb3>@@AEAV<lambda_e157831efee4ea0afb0a2ace5dd5fd0d>@@$$QEAV<lambda_04ddeca75b7c13fd67716e8dfcef87ee>@@@Z 0000000140053410     libucrtd:per_thread_data.obj
 0002:00012430       $unwind$??$?RV<lambda_2d41944a1d46af3157314b8a01080d33>@@AEAV<lambda_8f455de75cd7d7f24b4096f044d8b9e6>@@V<lambda_aa500f224e6afead328df44964fe2772>@@@?$__crt_seh_guarded_call@X@@QEAAX$$QEAV<lambda_2d41944a1d46af3157314b8a01080d33>@@AEAV<lambda_8f455de75cd7d7f24b4096f044d8b9e6>@@$$QEAV<lambda_aa500f224e6afead328df44964fe2772>@@@Z 0000000140053430     libucrtd:per_thread_data.obj
 0002:00012450       $unwind$??$common_tcscat_s@D@@YAHQEAD_KQEBD@Z 0000000140053450     libucrtd:strcat_s.obj
 0002:00012450       $unwind$??$common_tcscat_s@_W@@YAHQEA_W_KQEB_W@Z 0000000140053450     libucrtd:wcscat_s.obj
 0002:00012458       $unwind$?fp_format_a@@YAHQEBNPEAD_KQEAD2H_NIW4__acrt_rounding_mode@@AEAV__crt_cached_ptd_host@@@Z 0000000140053458     libucrtd:cvt.obj
 0002:00012458       $unwind$?_mbstowcs_internal@@YAHPEA_KPEA_W_KPEBD2AEAV__crt_cached_ptd_host@@@Z 0000000140053458     libucrtd:mbstowcs.obj
 0002:00012458       $unwind$?_wcstombs_internal@@YAHPEA_KPEAD_KPEB_W2AEAV__crt_cached_ptd_host@@@Z 0000000140053458     libucrtd:wcstombs.obj
 0002:00012458       $unwind$??$common_tcsncpy_s@D@@YAHQEAD_KQEBD1@Z 0000000140053458     libucrtd:strncpy_s.obj
 0002:00012458       $unwind$??$common_tcsncpy_s@_W@@YAHQEA_W_KQEB_W1@Z 0000000140053458     libucrtd:wcsncpy_s.obj
 0002:00012460       $unwind$?get_zero_pack@?$__crt_simd_pack_traits@$00@@SA?AT__m256i@@XZ 0000000140053460     libucrtd:strnlen.obj
 0002:00012468       $unwind$?compare_equals@?$__crt_simd_traits@$00E@@SA?AT__m256i@@T2@0@Z 0000000140053468     libucrtd:strnlen.obj
 0002:00012468       $unwind$?compare_equals@?$__crt_simd_traits@$00G@@SA?AT__m256i@@T2@0@Z 0000000140053468     libucrtd:strnlen.obj
 0002:00012470       $unwind$??$common_strnlen_simd@$00$00G@@YA_KQEBG_K@Z 0000000140053470     libucrtd:strnlen.obj
 0002:00012470       $unwind$??$common_strnlen_simd@$0A@$00E@@YA_KQEBE_K@Z 0000000140053470     libucrtd:strnlen.obj
 0002:00012470       $unwind$??$common_strnlen_simd@$0A@$00G@@YA_KQEBG_K@Z 0000000140053470     libucrtd:strnlen.obj
 0002:0001247c       $unwind$??$common_strnlen_simd@$00$0A@G@@YA_KQEBG_K@Z 000000014005347c     libucrtd:strnlen.obj
 0002:0001247c       $unwind$??$common_strnlen_simd@$0A@$0A@E@@YA_KQEBE_K@Z 000000014005347c     libucrtd:strnlen.obj
 0002:0001247c       $unwind$??$common_strnlen_simd@$0A@$0A@G@@YA_KQEBG_K@Z 000000014005347c     libucrtd:strnlen.obj
 0002:00012484       $unwind$??1?$__crt_win32_buffer@DU__crt_win32_buffer_internal_dynamic_resizing@@@@QEAA@XZ 0000000140053484     libucrtd:argv_wildcards.obj
 0002:00012484       $unwind$??1?$__crt_win32_buffer@_WU__crt_win32_buffer_internal_dynamic_resizing@@@@QEAA@XZ 0000000140053484     libucrtd:argv_wildcards.obj
 0002:00012498       $ip2state$??1?$__crt_win32_buffer@DU__crt_win32_buffer_internal_dynamic_resizing@@@@QEAA@XZ 0000000140053498     libucrtd:argv_wildcards.obj
 0002:00012498       $ip2state$??1?$__crt_win32_buffer@_WU__crt_win32_buffer_internal_dynamic_resizing@@@@QEAA@XZ 0000000140053498     libucrtd:argv_wildcards.obj
 0002:000124a0       $unwind$??$__acrt_wcs_to_mbs_cp@U__crt_win32_buffer_no_resizing@@@@YAHQEB_WAEAV?$__crt_win32_buffer@DU__crt_win32_buffer_no_resizing@@@@I@Z 00000001400534a0     libucrtd:getmodulefilenamea.obj
 0002:000124a0       $unwind$??$__acrt_mbs_to_wcs_cp@U__crt_win32_buffer_internal_dynamic_resizing@@@@YAHQEBDAEAV?$__crt_win32_buffer@_WU__crt_win32_buffer_internal_dynamic_resizing@@@@I@Z 00000001400534a0     libucrtd:argv_wildcards.obj
 0002:000124a0       $unwind$??$__acrt_wcs_to_mbs_cp@U__crt_win32_buffer_internal_dynamic_resizing@@@@YAHQEB_WAEAV?$__crt_win32_buffer@DU__crt_win32_buffer_internal_dynamic_resizing@@@@I@Z 00000001400534a0     libucrtd:argv_wildcards.obj
 0002:000124a8       $unwind$??$common_expand_argv_wildcards@D@@YAHQEAPEADQEAPEAPEAD@Z 00000001400534a8     libucrtd:argv_wildcards.obj
 0002:000124b0       $unwind$??$tcspbrk@AEAPEADAEAY02$$CBD@?$__crt_char_traits@D@@SAPEADAEAPEADAEAY02$$CBD@Z 00000001400534b0     libucrtd:argv_wildcards.obj
 0002:000124c0       $ip2state$??$tcspbrk@AEAPEADAEAY02$$CBD@?$__crt_char_traits@D@@SAPEADAEAPEADAEAY02$$CBD@Z 00000001400534c0     libucrtd:argv_wildcards.obj
 0002:000124c8       $unwind$??$expand_argument_wildcards@D@@YAHQEAD0AEAV?$argument_list@D@?A0x5f5c8891@@@Z 00000001400534c8     libucrtd:argv_wildcards.obj
 0002:000124e0       $ip2state$??$expand_argument_wildcards@D@@YAHQEAD0AEAV?$argument_list@D@?A0x5f5c8891@@@Z 00000001400534e0     libucrtd:argv_wildcards.obj
 0002:000124e8       $unwind$__acrt_GetModuleFileNameA 00000001400534e8     libucrtd:getmodulefilenamea.obj
 0002:000124f8       $unwind$??1?$__crt_win32_buffer@DU__crt_win32_buffer_no_resizing@@@@QEAA@XZ 00000001400534f8     libucrtd:getmodulefilenamea.obj
 0002:00012508       $ip2state$??1?$__crt_win32_buffer@DU__crt_win32_buffer_no_resizing@@@@QEAA@XZ 0000000140053508     libucrtd:getmodulefilenamea.obj
 0002:00012510       $unwind$_setmbcp_nolock    0000000140053510     libucrtd:mbctype.obj
 0002:00012520       $unwind$_commit            0000000140053520     libucrtd:commit.obj
 0002:00012520       $unwind$?getSystemCP@@YAHH@Z 0000000140053520     libucrtd:mbctype.obj
 0002:00012528       $unwind$?update_thread_multibyte_data_internal@@YAPEAU__crt_multibyte_data@@QEAU__acrt_ptd@@QEAPEAU1@@Z 0000000140053528     libucrtd:mbctype.obj
 0002:00012548       $unwind$?setmbcp_internal@@YAHH_NQEAU__acrt_ptd@@QEAPEAU__crt_multibyte_data@@@Z 0000000140053548     libucrtd:mbctype.obj
 0002:00012560       $ip2state$?setmbcp_internal@@YAHH_NQEAU__acrt_ptd@@QEAPEAU__crt_multibyte_data@@@Z 0000000140053560     libucrtd:mbctype.obj
 0002:00012568       $unwind$??$__acrt_lock_and_call@V<lambda_bd5a608237428601b7e45fbdc72b1ae8>@@@@YAXW4__acrt_lock_id@@$$QEAV<lambda_bd5a608237428601b7e45fbdc72b1ae8>@@@Z 0000000140053568     libucrtd:mbctype.obj
 0002:00012578       $ip2state$??$__acrt_lock_and_call@V<lambda_bd5a608237428601b7e45fbdc72b1ae8>@@@@YAXW4__acrt_lock_id@@$$QEAV<lambda_bd5a608237428601b7e45fbdc72b1ae8>@@@Z 0000000140053578     libucrtd:mbctype.obj
 0002:00012580       $unwind$?setSBUpLow@@YAXPEAU__crt_multibyte_data@@@Z 0000000140053580     libucrtd:mbctype.obj
 0002:00012590       $unwind$??$?RV<lambda_efa02eb69bf647d2f7ff0dd6f1103f72>@@AEAV<lambda_bd5a608237428601b7e45fbdc72b1ae8>@@V<lambda_728235dc0fc2b1f82d1fa5b3e7102d8f>@@@?$__crt_seh_guarded_call@X@@QEAAX$$QEAV<lambda_efa02eb69bf647d2f7ff0dd6f1103f72>@@AEAV<lambda_bd5a608237428601b7e45fbdc72b1ae8>@@$$QEAV<lambda_728235dc0fc2b1f82d1fa5b3e7102d8f>@@@Z 0000000140053590     libucrtd:mbctype.obj
 0002:000125b0       $unwind$__acrt_MultiByteToWideChar 00000001400535b0     libucrtd:multibytetowidechar.obj
 0002:000125b8       $unwind$__acrt_WideCharToMultiByte 00000001400535b8     libucrtd:widechartomultibyte.obj
 0002:000125c0       $unwind$__dcrt_get_narrow_environment_from_os 00000001400535c0     libucrtd:get_environment_from_os.obj
 0002:000125c8       $unwind$__acrt_lowio_ensure_fh_exists 00000001400535c8     libucrtd:osfinfo.obj
 0002:000125e8       $unwind$__acrt_initialize_lowio 00000001400535e8     libucrtd:ioinit.obj
 0002:00012608       $unwind$?initialize_inherited_file_handles_nolock@@YAXXZ 0000000140053608     libucrtd:ioinit.obj
 0002:00012610       $unwind$_isctype_l         0000000140053610     libucrtd:isctype.obj
 0002:00012624       $unwind$_chvalidator_l     0000000140053624     libucrtd:isctype.obj
 0002:0001262c       $unwind$__acrt_GetStringTypeA 000000014005362c     libucrtd:getstringtypea.obj
 0002:00012634       $unwind$__acrt_update_thread_locale_data 0000000140053634     libucrtd:locale_refcounting.obj
 0002:00012654       $unwind$__acrt_get_parent_window 0000000140053654     libucrtd:winapi_thunks.obj
 0002:00012654       $unwind$__acrt_initialize_winapi_thunks 0000000140053654     libucrtd:winapi_thunks.obj
 0002:00012654       $unwind$__acrt_initialize_stdio 0000000140053654     libucrtd:_file.obj
 0002:0001265c       $unwind$??$common_xtox_s@KD@@YAHKQEAD_KI_N@Z 000000014005365c     libucrtd:xtoa.obj
 0002:0001265c       $unwind$??$common_xtox_s@K_W@@YAHKQEA_W_KI_N@Z 000000014005365c     libucrtd:xtoa.obj
 0002:0001265c       $unwind$__acrt_LCMapStringEx 000000014005365c     libucrtd:winapi_thunks.obj
 0002:00012664       $unwind$__acrt_is_interactive 0000000140053664     libucrtd:winapi_thunks.obj
 0002:00012674       $unwind$_query_new_handler 0000000140053674     libucrtd:new_handler.obj
 0002:00012694       $unwind$raise              0000000140053694     libucrtd:signal.obj
 0002:000126b4       $unwind$??$__acrt_lock_and_call@V<lambda_44731a7d0e6d81c3e6aa82d741081786>@@@@YAP6AXH@ZW4__acrt_lock_id@@$$QEAV<lambda_44731a7d0e6d81c3e6aa82d741081786>@@@Z 00000001400536b4     libucrtd:signal.obj
 0002:000126c8       $ip2state$??$__acrt_lock_and_call@V<lambda_44731a7d0e6d81c3e6aa82d741081786>@@@@YAP6AXH@ZW4__acrt_lock_id@@$$QEAV<lambda_44731a7d0e6d81c3e6aa82d741081786>@@@Z 00000001400536c8     libucrtd:signal.obj
 0002:000126d0       $unwind$??$?RV<lambda_450d765d439847d4c735a33c368b5fc0>@@AEAV<lambda_44731a7d0e6d81c3e6aa82d741081786>@@V<lambda_601a2a7da3b7a96e9554ac7215c4b07c>@@@?$__crt_seh_guarded_call@P6AXH@Z@@QEAAP6AXH@Z$$QEAV<lambda_450d765d439847d4c735a33c368b5fc0>@@AEAV<lambda_44731a7d0e6d81c3e6aa82d741081786>@@$$QEAV<lambda_601a2a7da3b7a96e9554ac7215c4b07c>@@@Z 00000001400536d0     libucrtd:signal.obj
 0002:000126f0       $unwind$__acrt_fp_format   00000001400536f0     libucrtd:cvt.obj
 0002:000126f8       $unwind$?fp_format_nan_or_infinity@@YAHW4__acrt_fp_class@@_NPEAD_K1@Z 00000001400536f8     libucrtd:cvt.obj
 0002:00012700       $unwind$?fe_to_nearest@@YA_NQEBN_KF@Z 0000000140053700     libucrtd:cvt.obj
 0002:00012708       $unwind$?should_round_up@@YA_NQEBN_KFW4__acrt_rounding_mode@@@Z 0000000140053708     libucrtd:cvt.obj
 0002:00012710       $unwind$?fp_format_f@@YAHQEBNQEAD_K12HW4__acrt_rounding_mode@@AEAV__crt_cached_ptd_host@@@Z 0000000140053710     libucrtd:cvt.obj
 0002:00012718       $unwind$?fp_format_g@@YAHQEBNQEAD_K12H_NIW4__acrt_rounding_mode@@AEAV__crt_cached_ptd_host@@@Z 0000000140053718     libucrtd:cvt.obj
 0002:00012718       $unwind$?__mbsrtowcs_utf8@__crt_mbstring@@YA_KPEA_WPEAPEBD_KPEAU_Mbstatet@@AEAV__crt_cached_ptd_host@@@Z 0000000140053718     libucrtd:mbrtowc.obj
 0002:00012724       $unwind$_wctomb_internal   0000000140053724     libucrtd:wctomb.obj
 0002:00012730       $unwind$_mbtowc_internal   0000000140053730     libucrtd:mbtowc.obj
 0002:00012738       $unwind$_VCrtDbgReportA    0000000140053738     libucrtd:dbgrptt.obj
 0002:00012770       $unwind$_VCrtDbgReportW    0000000140053770     libucrtd:dbgrptt.obj
 0002:000127a8       $unwind$__acrt_OutputDebugStringA 00000001400537a8     libucrtd:outputdebugstringa.obj
 0002:000127bc       $unwind$qsort              00000001400537bc     libucrtd:qsort.obj
 0002:000127cc       $unwind$?shortsort@@YAXPEAD0_KP6AHPEBX2@Z@Z 00000001400537cc     libucrtd:qsort.obj
 0002:000127dc       $stateUnwindMap$?shortsort@@YAXPEAD0_KP6AHPEBX2@Z@Z 00000001400537dc     libucrtd:qsort.obj
 0002:000127e8       $ip2state$?shortsort@@YAXPEAD0_KP6AHPEBX2@Z@Z 00000001400537e8     libucrtd:qsort.obj
 0002:00012800       $unwind$strpbrk            0000000140053800     libucrtd:strpbrk.obj
 0002:00012808       $unwind$fallbackMethod     0000000140053808     libucrtd:strpbrk.obj
 0002:00012818       $unwind$_mbsdec_l          0000000140053818     libucrtd:mbsdec.obj
 0002:00012820       $unwind$?__acrt_LCMapStringA_stat@@YAHPEAU__crt_locale_pointers@@PEB_WKPEBDHPEADHHH@Z 0000000140053820     libucrtd:lcmapstringa.obj
 0002:00012828       $unwind$??$common_xtox@KD@@YAHKQEAD_KI_N@Z 0000000140053828     libucrtd:xtoa.obj
 0002:00012828       $unwind$??$common_xtox@K_W@@YAHKQEA_W_KI_N@Z 0000000140053828     libucrtd:xtoa.obj
 0002:00012830       $unwind$?common_flush_all@@YAH_N@Z 0000000140053830     libucrtd:fflush.obj
 0002:00012840       $ip2state$?common_flush_all@@YAH_N@Z 0000000140053840     libucrtd:fflush.obj
 0002:00012848       $unwind$??$__acrt_lock_stream_and_call@V<lambda_c5860995281e5c4ce005b3de8f5874ee>@@@@YAXQEAU_iobuf@@$$QEAV<lambda_c5860995281e5c4ce005b3de8f5874ee>@@@Z 0000000140053848     libucrtd:fflush.obj
 0002:00012858       $ip2state$??$__acrt_lock_stream_and_call@V<lambda_c5860995281e5c4ce005b3de8f5874ee>@@@@YAXQEAU_iobuf@@$$QEAV<lambda_c5860995281e5c4ce005b3de8f5874ee>@@@Z 0000000140053858     libucrtd:fflush.obj
 0002:00012860       $unwind$??$__acrt_lock_and_call@V<lambda_ab61a845afdef5b7c387490eaf3616ee>@@@@YAXW4__acrt_lock_id@@$$QEAV<lambda_ab61a845afdef5b7c387490eaf3616ee>@@@Z 0000000140053860     libucrtd:fflush.obj
 0002:00012870       $ip2state$??$__acrt_lock_and_call@V<lambda_ab61a845afdef5b7c387490eaf3616ee>@@@@YAXW4__acrt_lock_id@@$$QEAV<lambda_ab61a845afdef5b7c387490eaf3616ee>@@@Z 0000000140053870     libucrtd:fflush.obj
 0002:00012878       $unwind$??$?RV<lambda_842d9ff0dc9ef11c61343bbaebe7f885>@@AEAV<lambda_c5860995281e5c4ce005b3de8f5874ee>@@V<lambda_d90129c13df834fdcbf8d2b88dafcf2d>@@@?$__crt_seh_guarded_call@X@@QEAAX$$QEAV<lambda_842d9ff0dc9ef11c61343bbaebe7f885>@@AEAV<lambda_c5860995281e5c4ce005b3de8f5874ee>@@$$QEAV<lambda_d90129c13df834fdcbf8d2b88dafcf2d>@@@Z 0000000140053878     libucrtd:fflush.obj
 0002:00012898       $unwind$??$?RV<lambda_886d6c58226a84441f68b9f2b8217b83>@@AEAV<lambda_ab61a845afdef5b7c387490eaf3616ee>@@V<lambda_f7f22ab5edc0698d5f6905b0d3f44752>@@@?$__crt_seh_guarded_call@X@@QEAAX$$QEAV<lambda_886d6c58226a84441f68b9f2b8217b83>@@AEAV<lambda_ab61a845afdef5b7c387490eaf3616ee>@@$$QEAV<lambda_f7f22ab5edc0698d5f6905b0d3f44752>@@@Z 0000000140053898     libucrtd:fflush.obj
 0002:000128b8       $unwind$__acrt_fltout      00000001400538b8     libucrtd:cfout.obj
 0002:000128c0       $unwind$?make_big_integer@__crt_strtox@@YA?AUbig_integer@1@_K@Z 00000001400538c0     libucrtd:cfout.obj
 0002:000128d0       $unwind$?make_big_integer_power_of_two@__crt_strtox@@YA?AUbig_integer@1@I@Z 00000001400538d0     libucrtd:cfout.obj
 0002:000128e0       $unwind$?shift_left@__crt_strtox@@YA_NAEAUbig_integer@1@I@Z 00000001400538e0     libucrtd:cfout.obj
 0002:000128f0       $unwind$?add_multiply_carry@__crt_strtox@@YAIAEAIIII@Z 00000001400538f0     libucrtd:cfout.obj
 0002:000128f8       $unwind$?multiply@__crt_strtox@@YA_NAEAUbig_integer@1@I@Z 00000001400538f8     libucrtd:cfout.obj
 0002:00012908       $unwind$?multiply@__crt_strtox@@YA_NAEAUbig_integer@1@AEBU21@@Z 0000000140053908     libucrtd:cfout.obj
 0002:00012918       $unwind$?multiply_by_power_of_ten@__crt_strtox@@YA_NAEAUbig_integer@1@I@Z 0000000140053918     libucrtd:cfout.obj
 0002:00012928       $unwind$?divide@__crt_strtox@@YA_KAEAUbig_integer@1@AEBU21@@Z 0000000140053928     libucrtd:cfout.obj
 0002:00012938       $unwind$??0fp_control_word_guard@?A0x71ca7cfb@@QEAA@II@Z 0000000140053938     libucrtd:cfout.obj
 0002:00012940       $unwind$??$convert_to_fos_high_precision@N@@YA?AW4__acrt_has_trailing_digits@@NIW4__acrt_precision_style@@QEAHQEAD_K@Z 0000000140053940     libucrtd:cfout.obj
 0002:00012950       $unwind$?__c32rtomb_utf8@__crt_mbstring@@YA_KPEAD_UPEAU_Mbstatet@@AEAV__crt_cached_ptd_host@@@Z 0000000140053950     libucrtd:c32rtomb.obj
 0002:00012958       $unwind$_fcloseall         0000000140053958     libucrtd:closeall.obj
 0002:00012978       $unwind$?_mbstowcs_l_helper@@YA_KPEA_WPEBD_KAEAV__crt_cached_ptd_host@@@Z 0000000140053978     libucrtd:mbstowcs.obj
 0002:00012990       $ip2state$?_mbstowcs_l_helper@@YA_KPEA_WPEBD_KAEAV__crt_cached_ptd_host@@@Z 0000000140053990     libucrtd:mbstowcs.obj
 0002:00012998       $unwind$?_wcstombs_l_helper@@YA_KPEADPEB_W_KAEAV__crt_cached_ptd_host@@@Z 0000000140053998     libucrtd:wcstombs.obj
 0002:000129ac       $unwind$??$__acrt_lowio_lock_fh_and_call@V<lambda_3e4146214822e0ea86c47ff907aef2ff>@@@@YAHH$$QEAV<lambda_3e4146214822e0ea86c47ff907aef2ff>@@@Z 00000001400539ac     libucrtd:commit.obj
 0002:000129c0       $ip2state$??$__acrt_lowio_lock_fh_and_call@V<lambda_3e4146214822e0ea86c47ff907aef2ff>@@@@YAHH$$QEAV<lambda_3e4146214822e0ea86c47ff907aef2ff>@@@Z 00000001400539c0     libucrtd:commit.obj
 0002:000129c8       $unwind$??$?RV<lambda_7d29013d608e9f25a034de83c9b9e983>@@AEAV<lambda_3e4146214822e0ea86c47ff907aef2ff>@@V<lambda_b869e5a4e1069fcb5c3da79c0d999133>@@@?$__crt_seh_guarded_call@H@@QEAAH$$QEAV<lambda_7d29013d608e9f25a034de83c9b9e983>@@AEAV<lambda_3e4146214822e0ea86c47ff907aef2ff>@@$$QEAV<lambda_b869e5a4e1069fcb5c3da79c0d999133>@@@Z 00000001400539c8     libucrtd:commit.obj
 0002:000129e8       $unwind$_write_nolock      00000001400539e8     libucrtd:write.obj
 0002:000129fc       $unwind$_write_internal    00000001400539fc     libucrtd:write.obj
 0002:00012a1c       $unwind$?write_double_translated_ansi_nolock@@YA?AUwrite_result@?A0x17268360@@HQEBDIAEAV__crt_cached_ptd_host@@@Z 0000000140053a1c     libucrtd:write.obj
 0002:00012a38       $ip2state$?write_double_translated_ansi_nolock@@YA?AUwrite_result@?A0x17268360@@HQEBDIAEAV__crt_cached_ptd_host@@@Z 0000000140053a38     libucrtd:write.obj
 0002:00012a40       $unwind$?write_double_translated_unicode_nolock@@YA?AUwrite_result@?A0x17268360@@QEBDI@Z 0000000140053a40     libucrtd:write.obj
 0002:00012a54       $unwind$?write_text_ansi_nolock@@YA?AUwrite_result@?A0x17268360@@HQEBDI@Z 0000000140053a54     libucrtd:write.obj
 0002:00012a54       $unwind$?write_text_utf16le_nolock@@YA?AUwrite_result@?A0x17268360@@HQEBDI@Z 0000000140053a54     libucrtd:write.obj
 0002:00012a68       $unwind$?write_text_utf8_nolock@@YA?AUwrite_result@?A0x17268360@@HQEBDI@Z 0000000140053a68     libucrtd:write.obj
 0002:00012a7c       $unwind$?write_binary_nolock@@YA?AUwrite_result@?A0x17268360@@HQEBDI@Z 0000000140053a7c     libucrtd:write.obj
 0002:00012a90       $xdatasym                  0000000140053a90     libucrtd:log10.obj
 0002:00012a9c       $unwind$ceil               0000000140053a9c     libucrtd:ceil.obj
 0002:00012aa4       $unwind$?return_illegal_sequence@__crt_mbstring@@YA_KPEAU_Mbstatet@@AEAV__crt_cached_ptd_host@@@Z 0000000140053aa4     libucrtd:common_utf8.obj
 0002:00012aac       $unwind$?reset_and_return@__crt_mbstring@@YA_K_KPEAU_Mbstatet@@@Z 0000000140053aac     libucrtd:common_utf8.obj
 0002:00012ab4       $unwind$?__mbrtoc32_utf8@__crt_mbstring@@YA_KPEA_UPEBD_KPEAU_Mbstatet@@AEAV__crt_cached_ptd_host@@@Z 0000000140053ab4     libucrtd:mbrtoc32.obj
 0002:00012ac4       $unwind$?_fclose_internal@@YAHQEAU_iobuf@@AEAV__crt_cached_ptd_host@@@Z 0000000140053ac4     libucrtd:fclose.obj
 0002:00012ae4       $unwind$?__wcsrtombs_utf8@__crt_mbstring@@YA_KPEADPEAPEB_W_KPEAU_Mbstatet@@AEAV__crt_cached_ptd_host@@@Z 0000000140053ae4     libucrtd:wcrtomb.obj
 0002:00012af4       $unwind$__acrt_initialize_fma3 0000000140053af4     libucrtd:fma3_available.obj
 0002:00012b04       $unwind$_log_special_common 0000000140053b04     libucrtd:log_special.obj
 0002:00012b14       $unwind$_log10_special     0000000140053b14     libucrtd:log_special.obj
 0002:00012b1c       $unwind$_handle_error      0000000140053b1c     libucrtd:libm_error.obj
 0002:00012b2c       $unwind$common_control87   0000000140053b2c     libucrtd:ieee.obj
 0002:00012b4c       $unwind$??$__acrt_lowio_lock_fh_and_call@V<lambda_af29824b49a67d335554598d6cad2be6>@@@@YAHH$$QEAV<lambda_af29824b49a67d335554598d6cad2be6>@@@Z 0000000140053b4c     libucrtd:close.obj
 0002:00012b60       $ip2state$??$__acrt_lowio_lock_fh_and_call@V<lambda_af29824b49a67d335554598d6cad2be6>@@@@YAHH$$QEAV<lambda_af29824b49a67d335554598d6cad2be6>@@@Z 0000000140053b60     libucrtd:close.obj
 0002:00012b68       $unwind$??$?RV<lambda_19eaff14c5fe7be5b1b106a862eb1091>@@AEAV<lambda_af29824b49a67d335554598d6cad2be6>@@V<lambda_3ce37f5b621ab310299ea5f68cbdf3bb>@@@?$__crt_seh_guarded_call@H@@QEAAH$$QEAV<lambda_19eaff14c5fe7be5b1b106a862eb1091>@@AEAV<lambda_af29824b49a67d335554598d6cad2be6>@@$$QEAV<lambda_3ce37f5b621ab310299ea5f68cbdf3bb>@@@Z 0000000140053b68     libucrtd:close.obj
 0002:00012b88       $unwind$?__c16rtomb_utf8@__crt_mbstring@@YA_KPEAD_SPEAU_Mbstatet@@AEAV__crt_cached_ptd_host@@@Z 0000000140053b88     libucrtd:c16rtomb.obj
 0002:00012b90       $unwind$??$console_output_reopen_and_retry@V<lambda_61c1b8a38cedca4df5fdc542e6ccae6d>@@@@YAHAEBV<lambda_61c1b8a38cedca4df5fdc542e6ccae6d>@@@Z 0000000140053b90     libucrtd:initcon.obj
 0002:00012ba0       $ip2state$??$console_output_reopen_and_retry@V<lambda_61c1b8a38cedca4df5fdc542e6ccae6d>@@@@YAHAEBV<lambda_61c1b8a38cedca4df5fdc542e6ccae6d>@@@Z 0000000140053ba0     libucrtd:initcon.obj
 0002:00012ba8       $unwind$_ctrlfp            0000000140053ba8     libucrtd:fpctrl.obj
 0002:00012bc8       $xdatasym                  0000000140053bc8     libucrtd:fpsr.obj
 0002:00012bd0       $unwind$_IsNonwritableInCurrentImage 0000000140053bd0     LIBCMTD:pesect.obj
 0002:00013140       .idata$6                   0000000140054140     user32:USER32.dll
 0002:0001316c       .idata$6                   000000014005416c     Gdi32:GDI32.dll
 0002:00013188       .idata$6                   0000000140054188     winmm:WINMM.dll
 0002:00013450       .idata$6                   0000000140054450     kernel32:KERNEL32.dll
 0003:00000000       ?XInputGetState_@@3P6AKKPEAU_XINPUT_STATE@@@ZEA 0000000140055000     win32_handmade.obj
 0003:00000008       ?XInputSetState_@@3P6AKKPEAU_XINPUT_VIBRATION@@@ZEA 0000000140055008     win32_handmade.obj
 0003:000000c0       ?__vcrt_flsindex@@3KA      00000001400550c0     libvcruntimed:per_thread_data.obj
 0003:000000d0       ?__acrt_current_request_number@@3JA 00000001400550d0     libucrtd:debug_heap.obj
 0003:000000f0       ?__acrt_flsindex@@3KA      00000001400550f0     libucrtd:per_thread_data.obj
 0003:000000f4       ?errno_no_memory@@3HA      00000001400550f4     libucrtd:errno.obj
 0003:000000f8       ?doserrno_no_memory@@3KA   00000001400550f8     libucrtd:errno.obj
 0003:00000330       _mbctypes                  0000000140055330     libucrtd:mbctype.obj
 0003:00000440       _mbcasemaps                0000000140055440     libucrtd:mbctype.obj
 0003:00000540       ?__rgctypeflag@@3PADA      0000000140055540     libucrtd:mbctype.obj
 0003:00000550       ?__rgcode_page_info@@3PAUcode_page_info@@A 0000000140055550     libucrtd:mbctype.obj
 0003:00000860       ?__acrt_debug_fill_threshold@@3_KA 0000000140055860     libucrtd:debug_fill_threshold.obj
 0003:00000ab0       ?dazSupported@?1??common_control87@@9@9 0000000140055ab0     libucrtd:ieee.obj
 0003:00000ab8       ?__dcrt_lowio_console_output_handle@@3PEAXEA 0000000140055ab8     libucrtd:initcon.obj
 0003:00000ac0       ?dazSupported@?1??_ctrlfp@@9@9 0000000140055ac0     libucrtd:fpctrl.obj
 0003:00000b40       ?GlobalRunning@@3HA        0000000140055b40     win32_handmade.obj
 0003:00000b44       ?GlobalPause@@3HA          0000000140055b44     win32_handmade.obj
 0003:00000b48       ?GlobalSecondaryBuffer@@3PEAUIDirectSoundBuffer@@EA 0000000140055b48     win32_handmade.obj
 0003:00000b50       ?GlobalBackBuffer@@3Uwin32_offscreen_buffer@@A 0000000140055b50     win32_handmade.obj
 0003:00000b98       ?GlobalPerfCountFrequency@@3_JA 0000000140055b98     win32_handmade.obj
 0003:00000ba0       GS_ExceptionRecord         0000000140055ba0     LIBCMTD:gs_report.obj
 0003:00000c40       GS_ContextRecord           0000000140055c40     LIBCMTD:gs_report.obj
 0003:00001120       ?is_initialized_as_dll@@3_NA 0000000140056120     LIBCMTD:utility.obj
 0003:00001121       ?module_local_atexit_table_initialized@@3_NA 0000000140056121     LIBCMTD:utility.obj
 0003:00001128       ?module_local_atexit_table@@3U_onexit_table_t@@A 0000000140056128     LIBCMTD:utility.obj
 0003:00001140       ?module_local_at_quick_exit_table@@3U_onexit_table_t@@A 0000000140056140     LIBCMTD:utility.obj
 0003:000011a0       ?__vcrt_startup_thread_ptd@@3U__vcrt_ptd@@A 00000001400561a0     libvcruntimed:per_thread_data.obj
 0003:00001220       __vcrt_lock_table          0000000140056220     libvcruntimed:locks.obj
 0003:00001248       __vcrt_locks_initialized   0000000140056248     libvcruntimed:locks.obj
 0003:00001290       ?heap@@3V_HeapManager@@A   0000000140056290     libvcruntimed:undname.obj
 0003:000012b8       ?module_handles@@3PAPEAUHINSTANCE__@@A 00000001400562b8     libvcruntimed:winapi_downlevel.obj
 0003:000012d0       ?function_pointers@@3PAPEAXA 00000001400562d0     libvcruntimed:winapi_downlevel.obj
 0003:00001300       ?__acrt_app_type@@3W4_crt_app_type@@A 0000000140056300     libucrtd:report_runtime_error.obj
 0003:00001310       ?outmsg@?9??__acrt_report_runtime_error@@9@4PA_WA 0000000140056310     libucrtd:report_runtime_error.obj
 0003:00001938       ?user_matherr@@3V?$dual_state_global@P6AHPEAU_exception@@@Z@__crt_state_management@@A 0000000140056938     libucrtd:matherr.obj
 0003:00001940       ?program_name@?1???$common_configure_argv@D@@YAHW4_crt_argv_mode@@@Z@4PADA 0000000140056940     libucrtd:argv_parsing.obj
 0003:00001a68       ?empty_string@?1???$common_wincmdln@E@@YAPEAEXZ@4PAEA 0000000140056a68     libucrtd:argv_winmain.obj
 0003:00001a6c       ?c_termination_complete@@3JA 0000000140056a6c     libucrtd:exit.obj
 0003:00001a70       ?thread_local_exit_callback_func@@3P6AXPEAXK0@ZEA 0000000140056a70     libucrtd:exit.obj
 0003:00001a78       ?c_exit_complete@?1???R<lambda_6e4b09c48022b2350581041d5f6b0c4c>@@QEBA@XZ@4_NA 0000000140056a78     libucrtd:exit.obj
 0003:00001a80       ?__acrt_global_new_mode@@3V?$dual_state_global@J@__crt_state_management@@A 0000000140056a80     libucrtd:new_mode.obj
 0003:00001ab8       ?__acrt_first_block@@3PEAU_CrtMemBlockHeader@@EA 0000000140056ab8     libucrtd:debug_heap.obj
 0003:00001ac0       ?__acrt_last_block@@3PEAU_CrtMemBlockHeader@@EA 0000000140056ac0     libucrtd:debug_heap.obj
 0003:00001ac8       ?__acrt_total_allocations@@3_KA 0000000140056ac8     libucrtd:debug_heap.obj
 0003:00001ad0       ?__acrt_current_allocations@@3_KA 0000000140056ad0     libucrtd:debug_heap.obj
 0003:00001ad8       ?__acrt_max_allocations@@3_KA 0000000140056ad8     libucrtd:debug_heap.obj
 0003:00001ae0       ?__acrt_check_frequency@@3IA 0000000140056ae0     libucrtd:debug_heap.obj
 0003:00001ae4       ?__acrt_check_counter@@3IA 0000000140056ae4     libucrtd:debug_heap.obj
 0003:00001af0       ?heap_validation_pending@@3_NA 0000000140056af0     libucrtd:debug_heap.obj
 0003:00001af8       ?__acrt_invalid_parameter_handler@@3V?$dual_state_global@P6AXPEB_W00I_K@Z@__crt_state_management@@A 0000000140056af8     libucrtd:invalid_parameter.obj
 0003:00001b00       __acrt_error_mode          0000000140056b00     libucrtd:set_error_mode.obj
 0003:00001b20       ?fSystemSet@@3HA           0000000140056b20     libucrtd:mbctype.obj
 0003:00001b24       ?initialized@?1??__acrt_initialize_multibyte@@9@4_NA 0000000140056b24     libucrtd:mbctype.obj
 0003:00001b60       ?__acrt_lock_table@@3PAU_RTL_CRITICAL_SECTION@@A 0000000140056b60     libucrtd:locks.obj
 0003:00001d90       ?__acrt_locks_initialized@@3IA 0000000140056d90     libucrtd:locks.obj
 0003:00001d94       ?state_cache@?1???$get_cached_win_policy@Udeveloper_information_policy_properties@?1??__acrt_get_developer_information_policy@@YA?AW4developer_information_policy@@XZ@@@YA?AW4developer_information_policy@@W4AppPolicyShowDeveloperDiagnostic@@@Z@4JA 0000000140056d94     libucrtd:win_policies.obj
 0003:00001d98       ?state_cache@?1???$get_cached_win_policy@Uwindowing_model_policy_properties@?1??__acrt_get_windowing_model_policy@@YA?AW4windowing_model_policy@@XZ@@@YA?AW4windowing_model_policy@@W4AppPolicyWindowingModel@@@Z@4JA 0000000140056d98     libucrtd:win_policies.obj
 0003:000021b0       ?module_handles@@3PAPEAUHINSTANCE__@@A 00000001400571b0     libucrtd:winapi_thunks.obj
 0003:00002260       ?encoded_function_pointers@@3PAPEAXA 0000000140057260     libucrtd:winapi_thunks.obj
 0003:00002368       ?__acrt_new_handler@@3V?$dual_state_global@P6AH_K@Z@__crt_state_management@@A 0000000140057368     libucrtd:new_handler.obj
 0003:00002370       ?ctrlc_action@@3V?$dual_state_global@P6AXH@Z@__crt_state_management@@A 0000000140057370     libucrtd:signal.obj
 0003:00002378       ?ctrlbreak_action@@3V?$dual_state_global@P6AXH@Z@__crt_state_management@@A 0000000140057378     libucrtd:signal.obj
 0003:00002380       ?abort_action@@3V?$dual_state_global@P6AXH@Z@__crt_state_management@@A 0000000140057380     libucrtd:signal.obj
 0003:00002388       ?term_action@@3V?$dual_state_global@P6AXH@Z@__crt_state_management@@A 0000000140057388     libucrtd:signal.obj
 0003:000023a0       ?internal_state@?1??_mbtowc_internal@@9@4U_Mbstatet@@A 00000001400573a0     libucrtd:mbtowc.obj
 0003:000023b8       ?enable_percent_n@@3_KA    00000001400573b8     libucrtd:printf_count_output.obj
 0003:000023d8       ?internal_pst@?1??__mbrtoc32_utf8@__crt_mbstring@@YA_KPEA_UPEBD_KPEAU_Mbstatet@@AEAV__crt_cached_ptd_host@@@Z@4U3@A 00000001400573d8     libucrtd:mbrtoc32.obj
 0003:000023e8       ?internal_pst@?1??__c16rtomb_utf8@__crt_mbstring@@YA_KPEAD_SPEAU_Mbstatet@@AEAV__crt_cached_ptd_host@@@Z@4U3@A 00000001400573e8     libucrtd:c16rtomb.obj
